TN:
SF:/usr/include/c++/9/bits/stl_algo.h
FN:78,_ZSt22__move_median_to_firstIN9__gnu_cxx17__normal_iteratorIPN4arma22arma_sort_index_packetIdEESt6vectorIS4_SaIS4_EEEENS0_5__ops15_Iter_comp_iterINS2_30arma_sort_index_helper_descendIdEEEEEvT_SF_SF_SF_T0_
FNDA:0,_ZSt22__move_median_to_firstIN9__gnu_cxx17__normal_iteratorIPN4arma22arma_sort_index_packetIdEESt6vectorIS4_SaIS4_EEEENS0_5__ops15_Iter_comp_iterINS2_30arma_sort_index_helper_descendIdEEEEEvT_SF_SF_SF_T0_
FN:78,_ZSt22__move_median_to_firstIN9__gnu_cxx17__normal_iteratorIPN4arma22arma_sort_index_packetIdEESt6vectorIS4_SaIS4_EEEENS0_5__ops15_Iter_comp_iterINS2_29arma_sort_index_helper_ascendIdEEEEEvT_SF_SF_SF_T0_
FNDA:0,_ZSt22__move_median_to_firstIN9__gnu_cxx17__normal_iteratorIPN4arma22arma_sort_index_packetIdEESt6vectorIS4_SaIS4_EEEENS0_5__ops15_Iter_comp_iterINS2_29arma_sort_index_helper_ascendIdEEEEEvT_SF_SF_SF_T0_
FN:1673,_ZSt13__heap_selectIN9__gnu_cxx17__normal_iteratorIPN4arma22arma_sort_index_packetIdEESt6vectorIS4_SaIS4_EEEENS0_5__ops15_Iter_comp_iterINS2_30arma_sort_index_helper_descendIdEEEEEvT_SF_SF_T0_
FNDA:0,_ZSt13__heap_selectIN9__gnu_cxx17__normal_iteratorIPN4arma22arma_sort_index_packetIdEESt6vectorIS4_SaIS4_EEEENS0_5__ops15_Iter_comp_iterINS2_30arma_sort_index_helper_descendIdEEEEEvT_SF_SF_T0_
FN:1673,_ZSt13__heap_selectIN9__gnu_cxx17__normal_iteratorIPN4arma22arma_sort_index_packetIdEESt6vectorIS4_SaIS4_EEEENS0_5__ops15_Iter_comp_iterINS2_29arma_sort_index_helper_ascendIdEEEEEvT_SF_SF_T0_
FNDA:0,_ZSt13__heap_selectIN9__gnu_cxx17__normal_iteratorIPN4arma22arma_sort_index_packetIdEESt6vectorIS4_SaIS4_EEEENS0_5__ops15_Iter_comp_iterINS2_29arma_sort_index_helper_ascendIdEEEEEvT_SF_SF_T0_
FN:1826,_ZSt25__unguarded_linear_insertIN9__gnu_cxx17__normal_iteratorIPN4arma22arma_sort_index_packetIdEESt6vectorIS4_SaIS4_EEEENS0_5__ops14_Val_comp_iterINS2_30arma_sort_index_helper_descendIdEEEEEvT_T0_
FNDA:0,_ZSt25__unguarded_linear_insertIN9__gnu_cxx17__normal_iteratorIPN4arma22arma_sort_index_packetIdEESt6vectorIS4_SaIS4_EEEENS0_5__ops14_Val_comp_iterINS2_30arma_sort_index_helper_descendIdEEEEEvT_T0_
FN:1826,_ZSt25__unguarded_linear_insertIN9__gnu_cxx17__normal_iteratorIPN4arma22arma_sort_index_packetIdEESt6vectorIS4_SaIS4_EEEENS0_5__ops14_Val_comp_iterINS2_29arma_sort_index_helper_ascendIdEEEEEvT_T0_
FNDA:0,_ZSt25__unguarded_linear_insertIN9__gnu_cxx17__normal_iteratorIPN4arma22arma_sort_index_packetIdEESt6vectorIS4_SaIS4_EEEENS0_5__ops14_Val_comp_iterINS2_29arma_sort_index_helper_ascendIdEEEEEvT_T0_
FN:1845,_ZSt16__insertion_sortIN9__gnu_cxx17__normal_iteratorIPN4arma22arma_sort_index_packetIdEESt6vectorIS4_SaIS4_EEEENS0_5__ops15_Iter_comp_iterINS2_30arma_sort_index_helper_descendIdEEEEEvT_SF_T0_
FNDA:0,_ZSt16__insertion_sortIN9__gnu_cxx17__normal_iteratorIPN4arma22arma_sort_index_packetIdEESt6vectorIS4_SaIS4_EEEENS0_5__ops15_Iter_comp_iterINS2_30arma_sort_index_helper_descendIdEEEEEvT_SF_T0_
FN:1845,_ZSt16__insertion_sortIN9__gnu_cxx17__normal_iteratorIPN4arma22arma_sort_index_packetIdEESt6vectorIS4_SaIS4_EEEENS0_5__ops15_Iter_comp_iterINS2_29arma_sort_index_helper_ascendIdEEEEEvT_SF_T0_
FNDA:0,_ZSt16__insertion_sortIN9__gnu_cxx17__normal_iteratorIPN4arma22arma_sort_index_packetIdEESt6vectorIS4_SaIS4_EEEENS0_5__ops15_Iter_comp_iterINS2_29arma_sort_index_helper_ascendIdEEEEEvT_SF_T0_
FN:1868,_ZSt26__unguarded_insertion_sortIN9__gnu_cxx17__normal_iteratorIPN4arma22arma_sort_index_packetIdEESt6vectorIS4_SaIS4_EEEENS0_5__ops15_Iter_comp_iterINS2_30arma_sort_index_helper_descendIdEEEEEvT_SF_T0_
FNDA:0,_ZSt26__unguarded_insertion_sortIN9__gnu_cxx17__normal_iteratorIPN4arma22arma_sort_index_packetIdEESt6vectorIS4_SaIS4_EEEENS0_5__ops15_Iter_comp_iterINS2_30arma_sort_index_helper_descendIdEEEEEvT_SF_T0_
FN:1868,_ZSt26__unguarded_insertion_sortIN9__gnu_cxx17__normal_iteratorIPN4arma22arma_sort_index_packetIdEESt6vectorIS4_SaIS4_EEEENS0_5__ops15_Iter_comp_iterINS2_29arma_sort_index_helper_ascendIdEEEEEvT_SF_T0_
FNDA:0,_ZSt26__unguarded_insertion_sortIN9__gnu_cxx17__normal_iteratorIPN4arma22arma_sort_index_packetIdEESt6vectorIS4_SaIS4_EEEENS0_5__ops15_Iter_comp_iterINS2_29arma_sort_index_helper_ascendIdEEEEEvT_SF_T0_
FN:1885,_ZSt22__final_insertion_sortIN9__gnu_cxx17__normal_iteratorIPN4arma22arma_sort_index_packetIdEESt6vectorIS4_SaIS4_EEEENS0_5__ops15_Iter_comp_iterINS2_29arma_sort_index_helper_ascendIdEEEEEvT_SF_T0_
FNDA:0,_ZSt22__final_insertion_sortIN9__gnu_cxx17__normal_iteratorIPN4arma22arma_sort_index_packetIdEESt6vectorIS4_SaIS4_EEEENS0_5__ops15_Iter_comp_iterINS2_29arma_sort_index_helper_ascendIdEEEEEvT_SF_T0_
FN:1885,_ZSt22__final_insertion_sortIN9__gnu_cxx17__normal_iteratorIPN4arma22arma_sort_index_packetIdEESt6vectorIS4_SaIS4_EEEENS0_5__ops15_Iter_comp_iterINS2_30arma_sort_index_helper_descendIdEEEEEvT_SF_T0_
FNDA:0,_ZSt22__final_insertion_sortIN9__gnu_cxx17__normal_iteratorIPN4arma22arma_sort_index_packetIdEESt6vectorIS4_SaIS4_EEEENS0_5__ops15_Iter_comp_iterINS2_30arma_sort_index_helper_descendIdEEEEEvT_SF_T0_
FN:1901,_ZSt21__unguarded_partitionIN9__gnu_cxx17__normal_iteratorIPN4arma22arma_sort_index_packetIdEESt6vectorIS4_SaIS4_EEEENS0_5__ops15_Iter_comp_iterINS2_30arma_sort_index_helper_descendIdEEEEET_SF_SF_SF_T0_
FNDA:0,_ZSt21__unguarded_partitionIN9__gnu_cxx17__normal_iteratorIPN4arma22arma_sort_index_packetIdEESt6vectorIS4_SaIS4_EEEENS0_5__ops15_Iter_comp_iterINS2_30arma_sort_index_helper_descendIdEEEEET_SF_SF_SF_T0_
FN:1901,_ZSt21__unguarded_partitionIN9__gnu_cxx17__normal_iteratorIPN4arma22arma_sort_index_packetIdEESt6vectorIS4_SaIS4_EEEENS0_5__ops15_Iter_comp_iterINS2_29arma_sort_index_helper_ascendIdEEEEET_SF_SF_SF_T0_
FNDA:0,_ZSt21__unguarded_partitionIN9__gnu_cxx17__normal_iteratorIPN4arma22arma_sort_index_packetIdEESt6vectorIS4_SaIS4_EEEENS0_5__ops15_Iter_comp_iterINS2_29arma_sort_index_helper_ascendIdEEEEET_SF_SF_SF_T0_
FN:1922,_ZSt27__unguarded_partition_pivotIN9__gnu_cxx17__normal_iteratorIPN4arma22arma_sort_index_packetIdEESt6vectorIS4_SaIS4_EEEENS0_5__ops15_Iter_comp_iterINS2_29arma_sort_index_helper_ascendIdEEEEET_SF_SF_T0_
FNDA:0,_ZSt27__unguarded_partition_pivotIN9__gnu_cxx17__normal_iteratorIPN4arma22arma_sort_index_packetIdEESt6vectorIS4_SaIS4_EEEENS0_5__ops15_Iter_comp_iterINS2_29arma_sort_index_helper_ascendIdEEEEET_SF_SF_T0_
FN:1922,_ZSt27__unguarded_partition_pivotIN9__gnu_cxx17__normal_iteratorIPN4arma22arma_sort_index_packetIdEESt6vectorIS4_SaIS4_EEEENS0_5__ops15_Iter_comp_iterINS2_30arma_sort_index_helper_descendIdEEEEET_SF_SF_T0_
FNDA:0,_ZSt27__unguarded_partition_pivotIN9__gnu_cxx17__normal_iteratorIPN4arma22arma_sort_index_packetIdEESt6vectorIS4_SaIS4_EEEENS0_5__ops15_Iter_comp_iterINS2_30arma_sort_index_helper_descendIdEEEEET_SF_SF_T0_
FN:1933,_ZSt14__partial_sortIN9__gnu_cxx17__normal_iteratorIPN4arma22arma_sort_index_packetIdEESt6vectorIS4_SaIS4_EEEENS0_5__ops15_Iter_comp_iterINS2_30arma_sort_index_helper_descendIdEEEEEvT_SF_SF_T0_
FNDA:0,_ZSt14__partial_sortIN9__gnu_cxx17__normal_iteratorIPN4arma22arma_sort_index_packetIdEESt6vectorIS4_SaIS4_EEEENS0_5__ops15_Iter_comp_iterINS2_30arma_sort_index_helper_descendIdEEEEEvT_SF_SF_T0_
FN:1933,_ZSt14__partial_sortIN9__gnu_cxx17__normal_iteratorIPN4arma22arma_sort_index_packetIdEESt6vectorIS4_SaIS4_EEEENS0_5__ops15_Iter_comp_iterINS2_29arma_sort_index_helper_ascendIdEEEEEvT_SF_SF_T0_
FNDA:0,_ZSt14__partial_sortIN9__gnu_cxx17__normal_iteratorIPN4arma22arma_sort_index_packetIdEESt6vectorIS4_SaIS4_EEEENS0_5__ops15_Iter_comp_iterINS2_29arma_sort_index_helper_ascendIdEEEEEvT_SF_SF_T0_
FN:1945,_ZSt16__introsort_loopIN9__gnu_cxx17__normal_iteratorIPN4arma22arma_sort_index_packetIdEESt6vectorIS4_SaIS4_EEEElNS0_5__ops15_Iter_comp_iterINS2_30arma_sort_index_helper_descendIdEEEEEvT_SF_T0_T1_
FNDA:0,_ZSt16__introsort_loopIN9__gnu_cxx17__normal_iteratorIPN4arma22arma_sort_index_packetIdEESt6vectorIS4_SaIS4_EEEElNS0_5__ops15_Iter_comp_iterINS2_30arma_sort_index_helper_descendIdEEEEEvT_SF_T0_T1_
FN:1945,_ZSt16__introsort_loopIN9__gnu_cxx17__normal_iteratorIPN4arma22arma_sort_index_packetIdEESt6vectorIS4_SaIS4_EEEElNS0_5__ops15_Iter_comp_iterINS2_29arma_sort_index_helper_ascendIdEEEEEvT_SF_T0_T1_
FNDA:0,_ZSt16__introsort_loopIN9__gnu_cxx17__normal_iteratorIPN4arma22arma_sort_index_packetIdEESt6vectorIS4_SaIS4_EEEElNS0_5__ops15_Iter_comp_iterINS2_29arma_sort_index_helper_ascendIdEEEEEvT_SF_T0_T1_
FN:1968,_ZSt6__sortIN9__gnu_cxx17__normal_iteratorIPN4arma22arma_sort_index_packetIdEESt6vectorIS4_SaIS4_EEEENS0_5__ops15_Iter_comp_iterINS2_30arma_sort_index_helper_descendIdEEEEEvT_SF_T0_
FNDA:0,_ZSt6__sortIN9__gnu_cxx17__normal_iteratorIPN4arma22arma_sort_index_packetIdEESt6vectorIS4_SaIS4_EEEENS0_5__ops15_Iter_comp_iterINS2_30arma_sort_index_helper_descendIdEEEEEvT_SF_T0_
FN:1968,_ZSt6__sortIN9__gnu_cxx17__normal_iteratorIPN4arma22arma_sort_index_packetIdEESt6vectorIS4_SaIS4_EEEENS0_5__ops15_Iter_comp_iterINS2_29arma_sort_index_helper_ascendIdEEEEEvT_SF_T0_
FNDA:0,_ZSt6__sortIN9__gnu_cxx17__normal_iteratorIPN4arma22arma_sort_index_packetIdEESt6vectorIS4_SaIS4_EEEENS0_5__ops15_Iter_comp_iterINS2_29arma_sort_index_helper_ascendIdEEEEEvT_SF_T0_
FN:4893,_ZSt4sortIN9__gnu_cxx17__normal_iteratorIPN4arma22arma_sort_index_packetIdEESt6vectorIS4_SaIS4_EEEENS2_30arma_sort_index_helper_descendIdEEEvT_SC_T0_
FNDA:0,_ZSt4sortIN9__gnu_cxx17__normal_iteratorIPN4arma22arma_sort_index_packetIdEESt6vectorIS4_SaIS4_EEEENS2_30arma_sort_index_helper_descendIdEEEvT_SC_T0_
FN:4893,_ZSt4sortIN9__gnu_cxx17__normal_iteratorIPN4arma22arma_sort_index_packetIdEESt6vectorIS4_SaIS4_EEEENS2_29arma_sort_index_helper_ascendIdEEEvT_SC_T0_
FNDA:0,_ZSt4sortIN9__gnu_cxx17__normal_iteratorIPN4arma22arma_sort_index_packetIdEESt6vectorIS4_SaIS4_EEEENS2_29arma_sort_index_helper_ascendIdEEEvT_SC_T0_
DA:78,0
DA:81,0
DA:83,0
DA:84,0
DA:85,0
DA:86,0
DA:88,0
DA:90,0
DA:91,0
DA:92,0
DA:93,0
DA:95,0
DA:96,0
DA:78,0
DA:81,0
DA:83,0
DA:84,0
DA:85,0
DA:86,0
DA:88,0
DA:90,0
DA:91,0
DA:92,0
DA:93,0
DA:95,0
DA:96,0
DA:1673,0
DA:1677,0
DA:1678,0
DA:1679,0
DA:1680,0
DA:1681,0
DA:1673,0
DA:1677,0
DA:1678,0
DA:1679,0
DA:1680,0
DA:1681,0
DA:1826,0
DA:1830,0
DA:1831,0
DA:1832,0
DA:1833,0
DA:1835,0
DA:1836,0
DA:1837,0
DA:1839,0
DA:1840,0
DA:1826,0
DA:1830,0
DA:1831,0
DA:1832,0
DA:1833,0
DA:1835,0
DA:1836,0
DA:1837,0
DA:1839,0
DA:1840,0
DA:1845,0
DA:1848,0
DA:1850,0
DA:1852,0
DA:1855,0
DA:1856,0
DA:1857,0
DA:1860,0
DA:1845,0
DA:1848,0
DA:1850,0
DA:1852,0
DA:1855,0
DA:1856,0
DA:1857,0
DA:1860,0
DA:1868,0
DA:1871,0
DA:1872,0
DA:1874,0
DA:1868,0
DA:1871,0
DA:1872,0
DA:1874,0
DA:1885,0
DA:1888,0
DA:1890,0
DA:1891,0
DA:1895,0
DA:1896,0
DA:1885,0
DA:1888,0
DA:1890,0
DA:1891,0
DA:1895,0
DA:1896,0
DA:1901,0
DA:1907,0
DA:1908,0
DA:1909,0
DA:1910,0
DA:1911,0
DA:1912,0
DA:1913,0
DA:1914,0
DA:1915,0
DA:1901,0
DA:1907,0
DA:1908,0
DA:1909,0
DA:1910,0
DA:1911,0
DA:1912,0
DA:1913,0
DA:1914,0
DA:1915,0
DA:1922,0
DA:1925,0
DA:1926,0
DA:1928,0
DA:1922,0
DA:1925,0
DA:1926,0
DA:1928,0
DA:1933,0
DA:1938,0
DA:1939,0
DA:1940,0
DA:1933,0
DA:1938,0
DA:1939,0
DA:1940,0
DA:1945,0
DA:1949,0
DA:1951,0
DA:1953,0
DA:1954,0
DA:1956,0
DA:1958,0
DA:1959,0
DA:1960,0
DA:1945,0
DA:1949,0
DA:1951,0
DA:1953,0
DA:1954,0
DA:1956,0
DA:1958,0
DA:1959,0
DA:1960,0
DA:1968,0
DA:1971,0
DA:1973,0
DA:1974,0
DA:1976,0
DA:1978,0
DA:1968,0
DA:1971,0
DA:1973,0
DA:1974,0
DA:1976,0
DA:1978,0
DA:4893,0
DA:4905,0
DA:4906,0
DA:4893,0
DA:4905,0
DA:4906,0
end_of_record
SF:/usr/include/c++/9/ext/new_allocator.h
FN:80,_ZN9__gnu_cxx13new_allocatorIN4arma22arma_sort_index_packetIdEEEC2Ev
FNDA:0,_ZN9__gnu_cxx13new_allocatorIN4arma22arma_sort_index_packetIdEEEC2Ev
FN:80,_ZN9__gnu_cxx13new_allocatorIcEC2Ev
FNDA:0,_ZN9__gnu_cxx13new_allocatorIcEC2Ev
FN:83,_ZN9__gnu_cxx13new_allocatorIN4arma22arma_sort_index_packetIdEEEC2ERKS4_
FNDA:0,_ZN9__gnu_cxx13new_allocatorIN4arma22arma_sort_index_packetIdEEEC2ERKS4_
FN:83,_ZN9__gnu_cxx13new_allocatorIcEC2ERKS1_
FNDA:0,_ZN9__gnu_cxx13new_allocatorIcEC2ERKS1_
FN:89,_ZN9__gnu_cxx13new_allocatorIN4arma22arma_sort_index_packetIdEEED2Ev
FNDA:0,_ZN9__gnu_cxx13new_allocatorIN4arma22arma_sort_index_packetIdEEED2Ev
FN:89,_ZN9__gnu_cxx13new_allocatorIcED2Ev
FNDA:0,_ZN9__gnu_cxx13new_allocatorIcED2Ev
FN:102,_ZN9__gnu_cxx13new_allocatorIN4arma22arma_sort_index_packetIdEEE8allocateEmPKv
FNDA:0,_ZN9__gnu_cxx13new_allocatorIN4arma22arma_sort_index_packetIdEEE8allocateEmPKv
FN:119,_ZN9__gnu_cxx13new_allocatorIN4arma22arma_sort_index_packetIdEEE10deallocateEPS3_m
FNDA:0,_ZN9__gnu_cxx13new_allocatorIN4arma22arma_sort_index_packetIdEEE10deallocateEPS3_m
FN:132,_ZNK9__gnu_cxx13new_allocatorIN4arma22arma_sort_index_packetIdEEE8max_sizeEv
FNDA:0,_ZNK9__gnu_cxx13new_allocatorIN4arma22arma_sort_index_packetIdEEE8max_sizeEv
DA:80,0
DA:80,0
DA:83,0
DA:83,0
DA:89,0
DA:89,0
DA:102,0
DA:104,0
DA:105,0
DA:114,0
DA:119,0
DA:128,0
DA:129,0
DA:132,0
DA:135,0
end_of_record
SF:/usr/include/armadillo_bits/subview_cube_meat.hpp
FN:23,_ZN4arma12subview_cubeIdED2Ev
FNDA:0,_ZN4arma12subview_cubeIdED2Ev
FN:1782,_ZN4arma12subview_cubeIdE7extractERNS_3MatIdEERKS1_
FNDA:0,_ZN4arma12subview_cubeIdE7extractERNS_3MatIdEERKS1_
DA:23,0
DA:26,0
DA:32,0
DA:48,0
DA:50,0
DA:53,0
DA:1569,0
DA:1782,0
DA:1786,0
DA:1788,0
DA:1789,0
DA:1790,0
DA:1792,0
DA:1794,0
DA:1796,0
DA:1798,0
DA:1800,0
DA:1805,0
DA:1807,0
DA:1809,0
DA:1811,0
DA:1813,0
DA:1817,0
DA:1819,0
DA:1821,0
DA:1822,0
DA:1823,0
DA:1825,0
DA:1827,0
DA:1829,0
DA:1831,0
DA:1834,0
DA:1836,0
DA:1837,0
DA:1839,0
DA:1840,0
DA:1843,0
DA:1845,0
DA:1852,0
DA:1854,0
DA:1856,0
DA:1858,0
DA:1859,0
DA:1860,0
DA:1862,0
DA:1864,0
DA:1868,0
end_of_record
SF:/usr/include/armadillo_bits/arma_cmath.hpp
DA:241,0
end_of_record
SF:/usr/include/armadillo_bits/eGlueCube_meat.hpp
DA:27,0
DA:33,0
DA:35,0
DA:40,0
DA:45,0
DA:54,0
DA:64,0
DA:74,0
DA:84,0
DA:94,0
DA:108,0
DA:109,0
DA:143,0
end_of_record
SF:/usr/include/c++/9/bits/exception.h
FN:63,_ZNSt9exceptionC2Ev
FNDA:0,_ZNSt9exceptionC2Ev
DA:63,0
end_of_record
SF:/usr/include/armadillo_bits/op_sort_index_meat.hpp
FN:25,_ZN4arma22arma_sort_index_helperINS_13subview_elem1IdNS_3eOpINS_3ColIyEENS_15eop_scalar_plusEEEEELb0EEEbRNS_3MatIyEERKNS_5ProxyIT_EEy
FNDA:0,_ZN4arma22arma_sort_index_helperINS_13subview_elem1IdNS_3eOpINS_3ColIyEENS_15eop_scalar_plusEEEEELb0EEEbRNS_3MatIyEERKNS_5ProxyIT_EEy
FN:25,_ZN4arma22arma_sort_index_helperINS_13subview_elem1IdNS_3MatIyEEEELb0EEEbRS3_RKNS_5ProxyIT_EEy
FNDA:0,_ZN4arma22arma_sort_index_helperINS_13subview_elem1IdNS_3MatIyEEEELb0EEEbRS3_RKNS_5ProxyIT_EEy
FN:117,_ZN4arma13op_sort_index13apply_noaliasINS_13subview_elem1IdNS_3eOpINS_3ColIyEENS_15eop_scalar_plusEEEEEEEbRNS_3MatIyEERKNS_5ProxyIT_EEy
FNDA:0,_ZN4arma13op_sort_index13apply_noaliasINS_13subview_elem1IdNS_3eOpINS_3ColIyEENS_15eop_scalar_plusEEEEEEEbRNS_3MatIyEERKNS_5ProxyIT_EEy
FN:117,_ZN4arma13op_sort_index13apply_noaliasINS_13subview_elem1IdNS_3MatIyEEEEEEbRS4_RKNS_5ProxyIT_EEy
FNDA:0,_ZN4arma13op_sort_index13apply_noaliasINS_13subview_elem1IdNS_3MatIyEEEEEEbRS4_RKNS_5ProxyIT_EEy
FN:129,_ZN4arma13op_sort_index5applyINS_13subview_elem1IdNS_3eOpINS_3ColIyEENS_15eop_scalar_plusEEEEEEEvRNS_3MatIyEERKNS_4mtOpIyT_S0_EE
FNDA:0,_ZN4arma13op_sort_index5applyINS_13subview_elem1IdNS_3eOpINS_3ColIyEENS_15eop_scalar_plusEEEEEEEvRNS_3MatIyEERKNS_4mtOpIyT_S0_EE
FN:129,_ZN4arma13op_sort_index5applyINS_13subview_elem1IdNS_3MatIyEEEEEEvRS4_RKNS_4mtOpIyT_S0_EE
FNDA:0,_ZN4arma13op_sort_index5applyINS_13subview_elem1IdNS_3MatIyEEEEEEvRS4_RKNS_4mtOpIyT_S0_EE
DA:25,0
DA:31,0
DA:33,0
DA:35,0
DA:39,0
DA:41,0
DA:43,0
DA:45,0
DA:46,0
DA:71,0
DA:79,0
DA:94,0
DA:102,0
DA:104,0
DA:106,0
DA:109,0
DA:25,0
DA:31,0
DA:33,0
DA:35,0
DA:39,0
DA:41,0
DA:43,0
DA:45,0
DA:46,0
DA:71,0
DA:79,0
DA:94,0
DA:102,0
DA:104,0
DA:106,0
DA:109,0
DA:117,0
DA:121,0
DA:117,0
DA:121,0
DA:129,0
DA:133,0
DA:135,0
DA:137,0
DA:139,0
DA:141,0
DA:143,0
DA:145,0
DA:147,0
DA:151,0
DA:154,0
DA:129,0
DA:133,0
DA:135,0
DA:137,0
DA:139,0
DA:141,0
DA:143,0
DA:145,0
DA:147,0
DA:151,0
DA:154,0
end_of_record
SF:/usr/include/c++/9/iostream
end_of_record
SF:/usr/include/armadillo_bits/access.hpp
DA:26,0
end_of_record
SF:/usr/include/armadillo_bits/op_max_meat.hpp
FN:389,_ZN4arma6op_max10direct_maxIdEET_PKS2_yRy
FNDA:0,_ZN4arma6op_max10direct_maxIdEET_PKS2_yRy
DA:389,0
DA:393,0
DA:395,0
DA:398,0
DA:400,0
DA:401,0
DA:403,0
DA:405,0
DA:406,0
DA:409,0
DA:411,0
DA:412,0
DA:416,0
DA:418,0
DA:420,0
DA:422,0
DA:423,0
DA:427,0
DA:429,0
end_of_record
SF:/usr/include/c++/9/bits/stl_heap.h
FN:128,_ZSt11__push_heapIN9__gnu_cxx17__normal_iteratorIPN4arma22arma_sort_index_packetIdEESt6vectorIS4_SaIS4_EEEElS4_NS0_5__ops14_Iter_comp_valINS2_30arma_sort_index_helper_descendIdEEEEEvT_T0_SG_T1_RT2_
FNDA:0,_ZSt11__push_heapIN9__gnu_cxx17__normal_iteratorIPN4arma22arma_sort_index_packetIdEESt6vectorIS4_SaIS4_EEEElS4_NS0_5__ops14_Iter_comp_valINS2_30arma_sort_index_helper_descendIdEEEEEvT_T0_SG_T1_RT2_
FN:128,_ZSt11__push_heapIN9__gnu_cxx17__normal_iteratorIPN4arma22arma_sort_index_packetIdEESt6vectorIS4_SaIS4_EEEElS4_NS0_5__ops14_Iter_comp_valINS2_29arma_sort_index_helper_ascendIdEEEEEvT_T0_SG_T1_RT2_
FNDA:0,_ZSt11__push_heapIN9__gnu_cxx17__normal_iteratorIPN4arma22arma_sort_index_packetIdEESt6vectorIS4_SaIS4_EEEElS4_NS0_5__ops14_Iter_comp_valINS2_29arma_sort_index_helper_ascendIdEEEEEvT_T0_SG_T1_RT2_
FN:214,_ZSt13__adjust_heapIN9__gnu_cxx17__normal_iteratorIPN4arma22arma_sort_index_packetIdEESt6vectorIS4_SaIS4_EEEElS4_NS0_5__ops15_Iter_comp_iterINS2_30arma_sort_index_helper_descendIdEEEEEvT_T0_SG_T1_T2_
FNDA:0,_ZSt13__adjust_heapIN9__gnu_cxx17__normal_iteratorIPN4arma22arma_sort_index_packetIdEESt6vectorIS4_SaIS4_EEEElS4_NS0_5__ops15_Iter_comp_iterINS2_30arma_sort_index_helper_descendIdEEEEEvT_T0_SG_T1_T2_
FN:214,_ZSt13__adjust_heapIN9__gnu_cxx17__normal_iteratorIPN4arma22arma_sort_index_packetIdEESt6vectorIS4_SaIS4_EEEElS4_NS0_5__ops15_Iter_comp_iterINS2_29arma_sort_index_helper_ascendIdEEEEEvT_T0_SG_T1_T2_
FNDA:0,_ZSt13__adjust_heapIN9__gnu_cxx17__normal_iteratorIPN4arma22arma_sort_index_packetIdEESt6vectorIS4_SaIS4_EEEElS4_NS0_5__ops15_Iter_comp_iterINS2_29arma_sort_index_helper_ascendIdEEEEEvT_T0_SG_T1_T2_
FN:243,_ZSt10__pop_heapIN9__gnu_cxx17__normal_iteratorIPN4arma22arma_sort_index_packetIdEESt6vectorIS4_SaIS4_EEEENS0_5__ops15_Iter_comp_iterINS2_30arma_sort_index_helper_descendIdEEEEEvT_SF_SF_RT0_
FNDA:0,_ZSt10__pop_heapIN9__gnu_cxx17__normal_iteratorIPN4arma22arma_sort_index_packetIdEESt6vectorIS4_SaIS4_EEEENS0_5__ops15_Iter_comp_iterINS2_30arma_sort_index_helper_descendIdEEEEEvT_SF_SF_RT0_
FN:243,_ZSt10__pop_heapIN9__gnu_cxx17__normal_iteratorIPN4arma22arma_sort_index_packetIdEESt6vectorIS4_SaIS4_EEEENS0_5__ops15_Iter_comp_iterINS2_29arma_sort_index_helper_ascendIdEEEEEvT_SF_SF_RT0_
FNDA:0,_ZSt10__pop_heapIN9__gnu_cxx17__normal_iteratorIPN4arma22arma_sort_index_packetIdEESt6vectorIS4_SaIS4_EEEENS0_5__ops15_Iter_comp_iterINS2_29arma_sort_index_helper_ascendIdEEEEEvT_SF_SF_RT0_
FN:326,_ZSt11__make_heapIN9__gnu_cxx17__normal_iteratorIPN4arma22arma_sort_index_packetIdEESt6vectorIS4_SaIS4_EEEENS0_5__ops15_Iter_comp_iterINS2_30arma_sort_index_helper_descendIdEEEEEvT_SF_RT0_
FNDA:0,_ZSt11__make_heapIN9__gnu_cxx17__normal_iteratorIPN4arma22arma_sort_index_packetIdEESt6vectorIS4_SaIS4_EEEENS0_5__ops15_Iter_comp_iterINS2_30arma_sort_index_helper_descendIdEEEEEvT_SF_RT0_
FN:326,_ZSt11__make_heapIN9__gnu_cxx17__normal_iteratorIPN4arma22arma_sort_index_packetIdEESt6vectorIS4_SaIS4_EEEENS0_5__ops15_Iter_comp_iterINS2_29arma_sort_index_helper_ascendIdEEEEEvT_SF_RT0_
FNDA:0,_ZSt11__make_heapIN9__gnu_cxx17__normal_iteratorIPN4arma22arma_sort_index_packetIdEESt6vectorIS4_SaIS4_EEEENS0_5__ops15_Iter_comp_iterINS2_29arma_sort_index_helper_ascendIdEEEEEvT_SF_RT0_
FN:402,_ZSt11__sort_heapIN9__gnu_cxx17__normal_iteratorIPN4arma22arma_sort_index_packetIdEESt6vectorIS4_SaIS4_EEEENS0_5__ops15_Iter_comp_iterINS2_30arma_sort_index_helper_descendIdEEEEEvT_SF_RT0_
FNDA:0,_ZSt11__sort_heapIN9__gnu_cxx17__normal_iteratorIPN4arma22arma_sort_index_packetIdEESt6vectorIS4_SaIS4_EEEENS0_5__ops15_Iter_comp_iterINS2_30arma_sort_index_helper_descendIdEEEEEvT_SF_RT0_
FN:402,_ZSt11__sort_heapIN9__gnu_cxx17__normal_iteratorIPN4arma22arma_sort_index_packetIdEESt6vectorIS4_SaIS4_EEEENS0_5__ops15_Iter_comp_iterINS2_29arma_sort_index_helper_ascendIdEEEEEvT_SF_RT0_
FNDA:0,_ZSt11__sort_heapIN9__gnu_cxx17__normal_iteratorIPN4arma22arma_sort_index_packetIdEESt6vectorIS4_SaIS4_EEEENS0_5__ops15_Iter_comp_iterINS2_29arma_sort_index_helper_ascendIdEEEEEvT_SF_RT0_
DA:128,0
DA:132,0
DA:133,0
DA:135,0
DA:136,0
DA:137,0
DA:139,0
DA:140,0
DA:128,0
DA:132,0
DA:133,0
DA:135,0
DA:136,0
DA:137,0
DA:139,0
DA:140,0
DA:214,0
DA:217,0
DA:218,0
DA:219,0
DA:221,0
DA:222,0
DA:224,0
DA:225,0
DA:226,0
DA:228,0
DA:230,0
DA:231,0
DA:233,0
DA:236,0
DA:237,0
DA:238,0
DA:239,0
DA:214,0
DA:217,0
DA:218,0
DA:219,0
DA:221,0
DA:222,0
DA:224,0
DA:225,0
DA:226,0
DA:228,0
DA:230,0
DA:231,0
DA:233,0
DA:236,0
DA:237,0
DA:238,0
DA:239,0
DA:243,0
DA:251,0
DA:252,0
DA:253,0
DA:254,0
DA:255,0
DA:256,0
DA:243,0
DA:251,0
DA:252,0
DA:253,0
DA:254,0
DA:255,0
DA:256,0
DA:326,0
DA:334,0
DA:335,0
DA:337,0
DA:338,0
DA:339,0
DA:341,0
DA:342,0
DA:344,0
DA:345,0
DA:346,0
DA:326,0
DA:334,0
DA:335,0
DA:337,0
DA:338,0
DA:339,0
DA:341,0
DA:342,0
DA:344,0
DA:345,0
DA:346,0
DA:402,0
DA:405,0
DA:407,0
DA:408,0
DA:410,0
DA:402,0
DA:405,0
DA:407,0
DA:408,0
DA:410,0
end_of_record
SF:/usr/include/armadillo_bits/glue_solve_bones.hpp
FN:92,_ZN4arma10solve_opts4optsC2Ey
FNDA:0,_ZN4arma10solve_opts4optsC2Ey
FN:121,_ZN4arma10solve_opts9opts_noneC2Ev
FNDA:0,_ZN4arma10solve_opts9opts_noneC2Ev
FN:122,_ZN4arma10solve_opts9opts_fastC2Ev
FNDA:0,_ZN4arma10solve_opts9opts_fastC2Ev
FN:123,_ZN4arma10solve_opts16opts_equilibrateC2Ev
FNDA:0,_ZN4arma10solve_opts16opts_equilibrateC2Ev
FN:124,_ZN4arma10solve_opts14opts_no_approxC2Ev
FNDA:0,_ZN4arma10solve_opts14opts_no_approxC2Ev
FN:125,_ZN4arma10solve_opts9opts_triuC2Ev
FNDA:0,_ZN4arma10solve_opts9opts_triuC2Ev
FN:126,_ZN4arma10solve_opts9opts_trilC2Ev
FNDA:0,_ZN4arma10solve_opts9opts_trilC2Ev
FN:127,_ZN4arma10solve_opts12opts_no_bandC2Ev
FNDA:0,_ZN4arma10solve_opts12opts_no_bandC2Ev
FN:128,_ZN4arma10solve_opts13opts_no_sympdC2Ev
FNDA:0,_ZN4arma10solve_opts13opts_no_sympdC2Ev
FN:129,_ZN4arma10solve_opts15opts_allow_uglyC2Ev
FNDA:0,_ZN4arma10solve_opts15opts_allow_uglyC2Ev
FN:130,_ZN4arma10solve_opts17opts_likely_sympdC2Ev
FNDA:0,_ZN4arma10solve_opts17opts_likely_sympdC2Ev
FN:131,_ZN4arma10solve_opts11opts_refineC2Ev
FNDA:0,_ZN4arma10solve_opts11opts_refineC2Ev
FN:132,_ZN4arma10solve_opts14opts_no_trimatC2Ev
FNDA:0,_ZN4arma10solve_opts14opts_no_trimatC2Ev
DA:92,0
DA:93,0
DA:94,0
DA:121,0
DA:122,0
DA:123,0
DA:124,0
DA:125,0
DA:126,0
DA:127,0
DA:128,0
DA:129,0
DA:130,0
DA:131,0
DA:132,0
end_of_record
SF:/usr/include/armadillo_bits/fn_sort_index.hpp
FN:69,_ZN4arma10sort_indexINS_13subview_elem1IdNS_3eOpINS_3ColIyEENS_15eop_scalar_plusEEEEEcEENS_10enable_if2IXaaeqsrNS_12is_arma_typeIT_EE5valueLb1EeqsrNS_12is_same_typeIT0_cEE5valueLb1EEKNS_4mtOpIySA_NS_13op_sort_indexEEEE6resultERKSA_PKSD_
FNDA:0,_ZN4arma10sort_indexINS_13subview_elem1IdNS_3eOpINS_3ColIyEENS_15eop_scalar_plusEEEEEcEENS_10enable_if2IXaaeqsrNS_12is_arma_typeIT_EE5valueLb1EeqsrNS_12is_same_typeIT0_cEE5valueLb1EEKNS_4mtOpIySA_NS_13op_sort_indexEEEE6resultERKSA_PKSD_
FN:69,_ZN4arma10sort_indexINS_13subview_elem1IdNS_3MatIyEEEEcEENS_10enable_if2IXaaeqsrNS_12is_arma_typeIT_EE5valueLb1EeqsrNS_12is_same_typeIT0_cEE5valueLb1EEKNS_4mtOpIyS7_NS_13op_sort_indexEEEE6resultERKS7_PKSA_
FNDA:0,_ZN4arma10sort_indexINS_13subview_elem1IdNS_3MatIyEEEEcEENS_10enable_if2IXaaeqsrNS_12is_arma_typeIT_EE5valueLb1EeqsrNS_12is_same_typeIT0_cEE5valueLb1EEKNS_4mtOpIyS7_NS_13op_sort_indexEEEE6resultERKS7_PKSA_
DA:69,0
DA:77,0
DA:79,0
DA:81,0
DA:69,0
DA:77,0
DA:79,0
DA:81,0
end_of_record
SF:/usr/include/c++/9/bits/basic_string.h
FN:247,_ZNSt7__cxx1112basic_stringIcSt11char_traitsIcESaIcEE16_M_construct_auxIPcEEvT_S7_St12__false_type
FNDA:0,_ZNSt7__cxx1112basic_stringIcSt11char_traitsIcESaIcEE16_M_construct_auxIPcEEvT_S7_St12__false_type
FN:247,_ZNSt7__cxx1112basic_stringIcSt11char_traitsIcESaIcEE16_M_construct_auxIPKcEEvT_S8_St12__false_type
FNDA:0,_ZNSt7__cxx1112basic_stringIcSt11char_traitsIcESaIcEE16_M_construct_auxIPKcEEvT_S8_St12__false_type
FN:267,_ZNSt7__cxx1112basic_stringIcSt11char_traitsIcESaIcEE12_M_constructIPcEEvT_S7_
FNDA:0,_ZNSt7__cxx1112basic_stringIcSt11char_traitsIcESaIcEE12_M_constructIPcEEvT_S7_
FN:267,_ZNSt7__cxx1112basic_stringIcSt11char_traitsIcESaIcEE12_M_constructIPKcEEvT_S8_
FNDA:0,_ZNSt7__cxx1112basic_stringIcSt11char_traitsIcESaIcEE12_M_constructIPKcEEvT_S8_
DA:247,0
DA:251,0
DA:252,0
DA:247,0
DA:251,0
DA:252,0
DA:267,0
DA:270,0
DA:271,0
DA:267,0
DA:270,0
DA:271,0
end_of_record
SF:/usr/include/c++/9/limits
FN:1274,_ZNSt14numeric_limitsImE3maxEv
FNDA:0,_ZNSt14numeric_limitsImE3maxEv
FN:1781,_ZNSt14numeric_limitsIdE8infinityEv
FNDA:0,_ZNSt14numeric_limitsIdE8infinityEv
FN:1784,_ZNSt14numeric_limitsIdE9quiet_NaNEv
FNDA:0,_ZNSt14numeric_limitsIdE9quiet_NaNEv
DA:1274,0
DA:1781,0
DA:1784,0
end_of_record
SF:/usr/include/armadillo_bits/arma_forward.hpp
FN:379,_ZN4arma9hdf5_opts4optsC2Ej
FNDA:0,_ZN4arma9hdf5_opts4optsC2Ej
FN:400,_ZN4arma9hdf5_opts9opts_noneC2Ev
FNDA:0,_ZN4arma9hdf5_opts9opts_noneC2Ev
FN:401,_ZN4arma9hdf5_opts10opts_transC2Ev
FNDA:0,_ZN4arma9hdf5_opts10opts_transC2Ev
FN:402,_ZN4arma9hdf5_opts11opts_appendC2Ev
FNDA:0,_ZN4arma9hdf5_opts11opts_appendC2Ev
FN:403,_ZN4arma9hdf5_opts12opts_replaceC2Ev
FNDA:0,_ZN4arma9hdf5_opts12opts_replaceC2Ev
FN:451,_ZN4arma4fill10fill_classINS0_10fill_randnEEC2Ev
FNDA:0,_ZN4arma4fill10fill_classINS0_10fill_randnEEC2Ev
FN:451,_ZN4arma4fill10fill_classINS0_10fill_randuEEC2Ev
FNDA:0,_ZN4arma4fill10fill_classINS0_10fill_randuEEC2Ev
FN:451,_ZN4arma4fill10fill_classINS0_8fill_eyeEEC2Ev
FNDA:0,_ZN4arma4fill10fill_classINS0_8fill_eyeEEC2Ev
FN:451,_ZN4arma4fill10fill_classINS0_9fill_onesEEC2Ev
FNDA:0,_ZN4arma4fill10fill_classINS0_9fill_onesEEC2Ev
FN:451,_ZN4arma4fill10fill_classINS0_10fill_zerosEEC2Ev
FNDA:0,_ZN4arma4fill10fill_classINS0_10fill_zerosEEC2Ev
FN:451,_ZN4arma4fill10fill_classINS0_9fill_noneEEC2Ev
FNDA:0,_ZN4arma4fill10fill_classINS0_9fill_noneEEC2Ev
DA:379,0
DA:380,0
DA:381,0
DA:400,0
DA:401,0
DA:402,0
DA:403,0
DA:451,0
DA:451,0
DA:451,0
DA:451,0
DA:451,0
DA:451,0
end_of_record
SF:/usr/include/armadillo_bits/Base_meat.hpp
DA:27,0
end_of_record
SF:/usr/include/c++/9/bits/stl_iterator_base_funcs.h
FN:98,_ZSt10__distanceIPcENSt15iterator_traitsIT_E15difference_typeES2_S2_St26random_access_iterator_tag
FNDA:0,_ZSt10__distanceIPcENSt15iterator_traitsIT_E15difference_typeES2_S2_St26random_access_iterator_tag
FN:98,_ZSt10__distanceIPKcENSt15iterator_traitsIT_E15difference_typeES3_S3_St26random_access_iterator_tag
FNDA:0,_ZSt10__distanceIPKcENSt15iterator_traitsIT_E15difference_typeES3_S3_St26random_access_iterator_tag
FN:138,_ZSt8distanceIPcENSt15iterator_traitsIT_E15difference_typeES2_S2_
FNDA:0,_ZSt8distanceIPcENSt15iterator_traitsIT_E15difference_typeES2_S2_
FN:138,_ZSt8distanceIPKcENSt15iterator_traitsIT_E15difference_typeES3_S3_
FNDA:0,_ZSt8distanceIPKcENSt15iterator_traitsIT_E15difference_typeES3_S3_
DA:98,0
DA:104,0
DA:98,0
DA:104,0
DA:138,0
DA:141,0
DA:142,0
DA:138,0
DA:141,0
DA:142,0
end_of_record
SF:/usr/include/c++/9/bits/char_traits.h
FN:336,_ZNSt11char_traitsIcE6lengthEPKc
FNDA:0,_ZNSt11char_traitsIcE6lengthEPKc
DA:336,0
DA:342,0
end_of_record
SF:/usr/include/c++/9/bits/stl_algobase.h
FN:123,_ZSt9iter_swapIN9__gnu_cxx17__normal_iteratorIPN4arma22arma_sort_index_packetIdEESt6vectorIS4_SaIS4_EEEES9_EvT_T0_
FNDA:0,_ZSt9iter_swapIN9__gnu_cxx17__normal_iteratorIPN4arma22arma_sort_index_packetIdEESt6vectorIS4_SaIS4_EEEES9_EvT_T0_
FN:198,_ZSt3minImERKT_S2_S2_
FNDA:0,_ZSt3minImERKT_S2_S2_
FN:280,_ZSt12__niter_baseIPN4arma22arma_sort_index_packetIdEEET_S4_
FNDA:0,_ZSt12__niter_baseIPN4arma22arma_sort_index_packetIdEEET_S4_
FN:289,_ZSt12__niter_wrapIN9__gnu_cxx17__normal_iteratorIPN4arma22arma_sort_index_packetIdEESt6vectorIS4_SaIS4_EEEES5_ET_SA_T0_
FNDA:0,_ZSt12__niter_wrapIN9__gnu_cxx17__normal_iteratorIPN4arma22arma_sort_index_packetIdEESt6vectorIS4_SaIS4_EEEES5_ET_SA_T0_
FN:295,_ZSt12__niter_wrapIPN4arma22arma_sort_index_packetIdEEET_RKS4_S4_
FNDA:0,_ZSt12__niter_wrapIPN4arma22arma_sort_index_packetIdEEET_RKS4_S4_
FN:577,_ZNSt20__copy_move_backwardILb1ELb1ESt26random_access_iterator_tagE13__copy_move_bIN4arma22arma_sort_index_packetIdEEEEPT_PKS6_S9_S7_
FNDA:0,_ZNSt20__copy_move_backwardILb1ELb1ESt26random_access_iterator_tagE13__copy_move_bIN4arma22arma_sort_index_packetIdEEEEPT_PKS6_S9_S7_
FN:595,_ZSt22__copy_move_backward_aILb1EPN4arma22arma_sort_index_packetIdEES3_ET1_T0_S5_S4_
FNDA:0,_ZSt22__copy_move_backward_aILb1EPN4arma22arma_sort_index_packetIdEES3_ET1_T0_S5_S4_
FN:613,_ZSt23__copy_move_backward_a2ILb1EN9__gnu_cxx17__normal_iteratorIPN4arma22arma_sort_index_packetIdEESt6vectorIS4_SaIS4_EEEES9_ET1_T0_SB_SA_
FNDA:0,_ZSt23__copy_move_backward_a2ILb1EN9__gnu_cxx17__normal_iteratorIPN4arma22arma_sort_index_packetIdEESt6vectorIS4_SaIS4_EEEES9_ET1_T0_SB_SA_
FN:676,_ZSt13move_backwardIN9__gnu_cxx17__normal_iteratorIPN4arma22arma_sort_index_packetIdEESt6vectorIS4_SaIS4_EEEES9_ET0_T_SB_SA_
FNDA:0,_ZSt13move_backwardIN9__gnu_cxx17__normal_iteratorIPN4arma22arma_sort_index_packetIdEESt6vectorIS4_SaIS4_EEEES9_ET0_T_SB_SA_
FN:756,_ZSt10__fill_n_aIPN4arma22arma_sort_index_packetIdEEmS2_EN9__gnu_cxx11__enable_ifIXntsrSt11__is_scalarIT1_E7__valueET_E6__typeES9_T0_RKS7_
FNDA:0,_ZSt10__fill_n_aIPN4arma22arma_sort_index_packetIdEEmS2_EN9__gnu_cxx11__enable_ifIXntsrSt11__is_scalarIT1_E7__valueET_E6__typeES9_T0_RKS7_
FN:802,_ZSt6fill_nIPN4arma22arma_sort_index_packetIdEEmS2_ET_S4_T0_RKT1_
FNDA:0,_ZSt6fill_nIPN4arma22arma_sort_index_packetIdEEmS2_ET_S4_T0_RKT1_
FN:1028,_ZSt4__lgl
FNDA:0,_ZSt4__lgl
DA:123,0
DA:151,0
DA:153,0
DA:198,0
DA:203,0
DA:204,0
DA:205,0
DA:280,0
DA:282,0
DA:289,0
DA:290,0
DA:295,0
DA:296,0
DA:577,0
DA:586,0
DA:587,0
DA:588,0
DA:589,0
DA:595,0
DA:600,0
DA:606,0
DA:608,0
DA:613,0
DA:615,0
DA:618,0
DA:676,0
DA:686,0
DA:688,0
DA:756,0
DA:758,0
DA:759,0
DA:760,0
DA:761,0
DA:802,0
DA:808,0
DA:809,0
DA:1028,0
DA:1029,0
end_of_record
SF:/usr/include/armadillo_bits/Cube_meat.hpp
FN:23,_ZN4arma4CubeIdED2Ev
FNDA:0,_ZN4arma4CubeIdED2Ev
FN:106,_ZN4arma4CubeIdEC2INS_4fill10fill_zerosEEEyyyRKNS3_10fill_classIT_EE
FNDA:0,_ZN4arma4CubeIdEC2INS_4fill10fill_zerosEEEyyyRKNS3_10fill_classIT_EE
FN:198,_ZN4arma4CubeIdE9init_coldEv
FNDA:0,_ZN4arma4CubeIdE9init_coldEv
FN:245,_ZN4arma4CubeIdE9init_warmEyyy
FNDA:0,_ZN4arma4CubeIdE9init_warmEyyy
FN:426,_ZN4arma4CubeIdE10delete_matEv
FNDA:0,_ZN4arma4CubeIdE10delete_matEv
FN:449,_ZN4arma4CubeIdE10create_matEv
FNDA:0,_ZN4arma4CubeIdE10create_matEv
FN:561,_ZN4arma4CubeIdEC2ERKS1_
FNDA:0,_ZN4arma4CubeIdEC2ERKS1_
FN:2664,_ZN4arma4CubeIdEaSINS_9eGlueCubeINS3_INS3_INS3_IS1_S1_NS_10eglue_plusEEES1_S4_EES1_S4_EES1_S4_EENS_19eop_scalar_div_postEEERS1_RKNS_7eOpCubeIT_T0_EE
FNDA:0,_ZN4arma4CubeIdEaSINS_9eGlueCubeINS3_INS3_INS3_IS1_S1_NS_10eglue_plusEEES1_S4_EES1_S4_EES1_S4_EENS_19eop_scalar_div_postEEERS1_RKNS_7eOpCubeIT_T0_EE
FN:2975,_ZN4arma4CubeIdEC2INS_7eOpCubeIS1_NS_16eop_scalar_timesEEES1_NS_11eglue_minusEEERKNS_9eGlueCubeIT_T0_T1_EE
FNDA:0,_ZN4arma4CubeIdEC2INS_7eOpCubeIS1_NS_16eop_scalar_timesEEES1_NS_11eglue_minusEEERKNS_9eGlueCubeIT_T0_T1_EE
FN:3002,_ZN4arma4CubeIdEaSINS_7eOpCubeIS1_NS_19eop_scalar_div_postEEES5_NS_10eglue_plusEEERS1_RKNS_9eGlueCubeIT_T0_T1_EE
FNDA:0,_ZN4arma4CubeIdEaSINS_7eOpCubeIS1_NS_19eop_scalar_div_postEEES5_NS_10eglue_plusEEERS1_RKNS_9eGlueCubeIT_T0_T1_EE
FN:3993,_ZN4arma4CubeIdE5zerosEv
FNDA:0,_ZN4arma4CubeIdE5zerosEv
DA:23,0
DA:27,0
DA:29,0
DA:31,0
DA:37,0
DA:38,0
DA:42,0
DA:106,0
DA:109,0
DA:111,0
DA:114,0
DA:118,0
DA:120,0
DA:126,0
DA:198,0
DA:203,0
DA:209,0
DA:211,0
DA:212,0
DA:219,0
DA:221,0
DA:223,0
DA:228,0
DA:234,0
DA:237,0
DA:238,0
DA:245,0
DA:249,0
DA:251,0
DA:253,0
DA:254,0
DA:256,0
DA:259,0
DA:265,0
DA:269,0
DA:270,0
DA:276,0
DA:278,0
DA:279,0
DA:281,0
DA:285,0
DA:287,0
DA:288,0
DA:289,0
DA:290,0
DA:292,0
DA:296,0
DA:298,0
DA:300,0
DA:302,0
DA:304,0
DA:307,0
DA:310,0
DA:312,0
DA:317,0
DA:327,0
DA:330,0
DA:333,0
DA:336,0
DA:341,0
DA:344,0
DA:347,0
DA:348,0
DA:349,0
DA:350,0
DA:351,0
DA:353,0
DA:426,0
DA:430,0
DA:432,0
DA:434,0
DA:437,0
DA:439,0
DA:442,0
DA:449,0
DA:453,0
DA:455,0
DA:459,0
DA:461,0
DA:463,0
DA:467,0
DA:469,0
DA:473,0
DA:475,0
DA:478,0
DA:561,0
DA:562,0
DA:563,0
DA:564,0
DA:565,0
DA:566,0
DA:569,0
DA:574,0
DA:576,0
DA:577,0
DA:1462,0
DA:1463,0
DA:1467,0
DA:1715,0
DA:2664,0
DA:2670,0
DA:2674,0
DA:2676,0
DA:2685,0
DA:2975,0
DA:2983,0
DA:2990,0
DA:2992,0
DA:2993,0
DA:3002,0
DA:3009,0
DA:3013,0
DA:3015,0
DA:3024,0
DA:3207,0
DA:3210,0
DA:3222,0
DA:3223,0
DA:3259,0
DA:3296,0
DA:3297,0
DA:3298,0
DA:3299,0
DA:3304,0
DA:3349,0
DA:3560,0
DA:3572,0
DA:3993,0
DA:3997,0
DA:3999,0
end_of_record
SF:/usr/include/armadillo_bits/op_sort_index_bones.hpp
DA:66,0
DA:79,0
end_of_record
SF:/usr/include/c++/9/bits/stl_vector.h
FN:94,_ZNSt12_Vector_baseIN4arma22arma_sort_index_packetIdEESaIS2_EE17_Vector_impl_dataC2Ev
FNDA:0,_ZNSt12_Vector_baseIN4arma22arma_sort_index_packetIdEESaIS2_EE17_Vector_impl_dataC2Ev
FN:133,_ZNSt12_Vector_baseIN4arma22arma_sort_index_packetIdEESaIS2_EE12_Vector_implC2ERKS3_
FNDA:0,_ZNSt12_Vector_baseIN4arma22arma_sort_index_packetIdEESaIS2_EE12_Vector_implC2ERKS3_
FN:273,_ZNSt12_Vector_baseIN4arma22arma_sort_index_packetIdEESaIS2_EE19_M_get_Tp_allocatorEv
FNDA:0,_ZNSt12_Vector_baseIN4arma22arma_sort_index_packetIdEESaIS2_EE19_M_get_Tp_allocatorEv
FN:300,_ZNSt12_Vector_baseIN4arma22arma_sort_index_packetIdEESaIS2_EEC2EmRKS3_
FNDA:0,_ZNSt12_Vector_baseIN4arma22arma_sort_index_packetIdEESaIS2_EEC2EmRKS3_
FN:330,_ZNSt12_Vector_baseIN4arma22arma_sort_index_packetIdEESaIS2_EED2Ev
FNDA:0,_ZNSt12_Vector_baseIN4arma22arma_sort_index_packetIdEESaIS2_EED2Ev
FN:340,_ZNSt12_Vector_baseIN4arma22arma_sort_index_packetIdEESaIS2_EE11_M_allocateEm
FNDA:0,_ZNSt12_Vector_baseIN4arma22arma_sort_index_packetIdEESaIS2_EE11_M_allocateEm
FN:347,_ZNSt12_Vector_baseIN4arma22arma_sort_index_packetIdEESaIS2_EE13_M_deallocateEPS2_m
FNDA:0,_ZNSt12_Vector_baseIN4arma22arma_sort_index_packetIdEESaIS2_EE13_M_deallocateEPS2_m
FN:356,_ZNSt12_Vector_baseIN4arma22arma_sort_index_packetIdEESaIS2_EE17_M_create_storageEm
FNDA:0,_ZNSt12_Vector_baseIN4arma22arma_sort_index_packetIdEESaIS2_EE17_M_create_storageEm
FN:507,_ZNSt6vectorIN4arma22arma_sort_index_packetIdEESaIS2_EEC2EmRKS3_
FNDA:0,_ZNSt6vectorIN4arma22arma_sort_index_packetIdEESaIS2_EEC2EmRKS3_
FN:675,_ZNSt6vectorIN4arma22arma_sort_index_packetIdEESaIS2_EED2Ev
FNDA:0,_ZNSt6vectorIN4arma22arma_sort_index_packetIdEESaIS2_EED2Ev
FN:808,_ZNSt6vectorIN4arma22arma_sort_index_packetIdEESaIS2_EE5beginEv
FNDA:0,_ZNSt6vectorIN4arma22arma_sort_index_packetIdEESaIS2_EE5beginEv
FN:826,_ZNSt6vectorIN4arma22arma_sort_index_packetIdEESaIS2_EE3endEv
FNDA:0,_ZNSt6vectorIN4arma22arma_sort_index_packetIdEESaIS2_EE3endEv
FN:1040,_ZNSt6vectorIN4arma22arma_sort_index_packetIdEESaIS2_EEixEm
FNDA:0,_ZNSt6vectorIN4arma22arma_sort_index_packetIdEESaIS2_EEixEm
FN:1600,_ZNSt6vectorIN4arma22arma_sort_index_packetIdEESaIS2_EE21_M_default_initializeEm
FNDA:0,_ZNSt6vectorIN4arma22arma_sort_index_packetIdEESaIS2_EE21_M_default_initializeEm
FN:1764,_ZNSt6vectorIN4arma22arma_sort_index_packetIdEESaIS2_EE17_S_check_init_lenEmRKS3_
FNDA:0,_ZNSt6vectorIN4arma22arma_sort_index_packetIdEESaIS2_EE17_S_check_init_lenEmRKS3_
FN:1773,_ZNSt6vectorIN4arma22arma_sort_index_packetIdEESaIS2_EE11_S_max_sizeERKS3_
FNDA:0,_ZNSt6vectorIN4arma22arma_sort_index_packetIdEESaIS2_EE11_S_max_sizeERKS3_
DA:94,0
DA:95,0
DA:96,0
DA:133,0
DA:134,0
DA:135,0
DA:273,0
DA:274,0
DA:300,0
DA:301,0
DA:302,0
DA:330,0
DA:332,0
DA:333,0
DA:334,0
DA:340,0
DA:343,0
DA:347,0
DA:350,0
DA:351,0
DA:352,0
DA:356,0
DA:358,0
DA:359,0
DA:360,0
DA:361,0
DA:507,0
DA:508,0
DA:509,0
DA:675,0
DA:677,0
DA:678,0
DA:680,0
DA:808,0
DA:809,0
DA:826,0
DA:827,0
DA:1040,0
DA:1043,0
DA:1600,0
DA:1602,0
DA:1603,0
DA:1604,0
DA:1605,0
DA:1764,0
DA:1766,0
DA:1767,0
DA:1769,0
DA:1773,0
DA:1778,0
DA:1780,0
DA:1781,0
end_of_record
SF:/usr/include/c++/9/ext/type_traits.h
FN:152,_ZN9__gnu_cxx17__is_null_pointerIcEEbPT_
FNDA:0,_ZN9__gnu_cxx17__is_null_pointerIcEEbPT_
FN:152,_ZN9__gnu_cxx17__is_null_pointerIKcEEbPT_
FNDA:0,_ZN9__gnu_cxx17__is_null_pointerIKcEEbPT_
DA:152,0
DA:153,0
DA:152,0
DA:153,0
end_of_record
SF:/usr/include/c++/9/bits/stl_iterator.h
FN:803,_ZN9__gnu_cxx17__normal_iteratorIPN4arma22arma_sort_index_packetIdEESt6vectorIS3_SaIS3_EEEC2ERKS4_
FNDA:0,_ZN9__gnu_cxx17__normal_iteratorIPN4arma22arma_sort_index_packetIdEESt6vectorIS3_SaIS3_EEEC2ERKS4_
FN:816,_ZNK9__gnu_cxx17__normal_iteratorIPN4arma22arma_sort_index_packetIdEESt6vectorIS3_SaIS3_EEEdeEv
FNDA:0,_ZNK9__gnu_cxx17__normal_iteratorIPN4arma22arma_sort_index_packetIdEESt6vectorIS3_SaIS3_EEEdeEv
FN:824,_ZN9__gnu_cxx17__normal_iteratorIPN4arma22arma_sort_index_packetIdEESt6vectorIS3_SaIS3_EEEppEv
FNDA:0,_ZN9__gnu_cxx17__normal_iteratorIPN4arma22arma_sort_index_packetIdEESt6vectorIS3_SaIS3_EEEppEv
FN:836,_ZN9__gnu_cxx17__normal_iteratorIPN4arma22arma_sort_index_packetIdEESt6vectorIS3_SaIS3_EEEmmEv
FNDA:0,_ZN9__gnu_cxx17__normal_iteratorIPN4arma22arma_sort_index_packetIdEESt6vectorIS3_SaIS3_EEEmmEv
FN:856,_ZNK9__gnu_cxx17__normal_iteratorIPN4arma22arma_sort_index_packetIdEESt6vectorIS3_SaIS3_EEEplEl
FNDA:0,_ZNK9__gnu_cxx17__normal_iteratorIPN4arma22arma_sort_index_packetIdEESt6vectorIS3_SaIS3_EEEplEl
FN:864,_ZNK9__gnu_cxx17__normal_iteratorIPN4arma22arma_sort_index_packetIdEESt6vectorIS3_SaIS3_EEEmiEl
FNDA:0,_ZNK9__gnu_cxx17__normal_iteratorIPN4arma22arma_sort_index_packetIdEESt6vectorIS3_SaIS3_EEEmiEl
FN:868,_ZNK9__gnu_cxx17__normal_iteratorIPN4arma22arma_sort_index_packetIdEESt6vectorIS3_SaIS3_EEE4baseEv
FNDA:0,_ZNK9__gnu_cxx17__normal_iteratorIPN4arma22arma_sort_index_packetIdEESt6vectorIS3_SaIS3_EEE4baseEv
FN:890,_ZN9__gnu_cxxeqIPN4arma22arma_sort_index_packetIdEESt6vectorIS3_SaIS3_EEEEbRKNS_17__normal_iteratorIT_T0_EESD_
FNDA:0,_ZN9__gnu_cxxeqIPN4arma22arma_sort_index_packetIdEESt6vectorIS3_SaIS3_EEEEbRKNS_17__normal_iteratorIT_T0_EESD_
FN:904,_ZN9__gnu_cxxneIPN4arma22arma_sort_index_packetIdEESt6vectorIS3_SaIS3_EEEEbRKNS_17__normal_iteratorIT_T0_EESD_
FNDA:0,_ZN9__gnu_cxxneIPN4arma22arma_sort_index_packetIdEESt6vectorIS3_SaIS3_EEEEbRKNS_17__normal_iteratorIT_T0_EESD_
FN:919,_ZN9__gnu_cxxltIPN4arma22arma_sort_index_packetIdEESt6vectorIS3_SaIS3_EEEEbRKNS_17__normal_iteratorIT_T0_EESD_
FNDA:0,_ZN9__gnu_cxxltIPN4arma22arma_sort_index_packetIdEESt6vectorIS3_SaIS3_EEEEbRKNS_17__normal_iteratorIT_T0_EESD_
FN:986,_ZN9__gnu_cxxmiIPN4arma22arma_sort_index_packetIdEESt6vectorIS3_SaIS3_EEEENS_17__normal_iteratorIT_T0_E15difference_typeERKSB_SE_
FNDA:0,_ZN9__gnu_cxxmiIPN4arma22arma_sort_index_packetIdEESt6vectorIS3_SaIS3_EEEENS_17__normal_iteratorIT_T0_E15difference_typeERKSB_SE_
FN:1007,_ZSt12__niter_baseIPN4arma22arma_sort_index_packetIdEESt6vectorIS2_SaIS2_EEET_N9__gnu_cxx17__normal_iteratorIS7_T0_EE
FNDA:0,_ZSt12__niter_baseIPN4arma22arma_sort_index_packetIdEESt6vectorIS2_SaIS2_EEET_N9__gnu_cxx17__normal_iteratorIS7_T0_EE
DA:803,0
DA:804,0
DA:816,0
DA:817,0
DA:824,0
DA:826,0
DA:827,0
DA:836,0
DA:838,0
DA:839,0
DA:856,0
DA:857,0
DA:864,0
DA:865,0
DA:868,0
DA:869,0
DA:890,0
DA:893,0
DA:904,0
DA:907,0
DA:919,0
DA:922,0
DA:986,0
DA:989,0
DA:1007,0
DA:1009,0
end_of_record
SF:/usr/include/armadillo_bits/eop_aux.hpp
DA:160,0
end_of_record
SF:/usr/include/armadillo_bits/operator_times.hpp
DA:31,0
DA:45,0
end_of_record
SF:/usr/include/armadillo_bits/arma_str.hpp
FN:527,_ZN4arma8arma_strL11str_wrapperIcEEPKT_S4_PKNS0_9char_onlyIS2_E6resultE
FNDA:0,_ZN4arma8arma_strL11str_wrapperIcEEPKT_S4_PKNS0_9char_onlyIS2_E6resultE
DA:527,0
DA:531,0
end_of_record
SF:/usr/include/armadillo_bits/fn_accu.hpp
FN:481,_ZN4arma22accu_cube_proxy_linearINS_7eOpCubeINS_9eGlueCubeINS_4CubeIdEES4_NS_11eglue_minusEEENS_7eop_absEEEEENT_9elem_typeERKNS_9ProxyCubeIS9_EE
FNDA:0,_ZN4arma22accu_cube_proxy_linearINS_7eOpCubeINS_9eGlueCubeINS_4CubeIdEES4_NS_11eglue_minusEEENS_7eop_absEEEEENT_9elem_typeERKNS_9ProxyCubeIS9_EE
FN:653,_ZN4arma4accuINS_7eOpCubeINS_9eGlueCubeINS_4CubeIdEES4_NS_11eglue_minusEEENS_7eop_absEEEEENT_9elem_typeERKNS_8BaseCubeISA_S9_EE
FNDA:0,_ZN4arma4accuINS_7eOpCubeINS_9eGlueCubeINS_4CubeIdEES4_NS_11eglue_minusEEENS_7eop_absEEEEENT_9elem_typeERKNS_8BaseCubeISA_S9_EE
DA:481,0
DA:487,0
DA:489,0
DA:491,0
DA:541,0
DA:542,0
DA:545,0
DA:547,0
DA:549,0
DA:554,0
DA:653,0
DA:657,0
DA:666,0
end_of_record
SF:/usr/include/armadillo_bits/BaseCube_meat.hpp
DA:27,0
end_of_record
SF:/usr/include/armadillo_bits/Col_meat.hpp
FN:24,_ZN4arma3ColIdEC2Ev
FNDA:0,_ZN4arma3ColIdEC2Ev
FN:24,_ZN4arma3ColIyEC2Ev
FNDA:0,_ZN4arma3ColIyEC2Ev
FN:47,_ZN4arma3ColIyEC2Ey
FNDA:0,_ZN4arma3ColIyEC2Ey
FN:368,_ZN4arma3ColIyEaSINS_3eOpINS3_INS3_INS3_IS1_NS_16eop_scalar_timesEEES4_EENS_15eop_scalar_plusEEES7_EEEERS1_RKNS_4BaseIyT_EE
FNDA:0,_ZN4arma3ColIyEaSINS_3eOpINS3_INS3_INS3_IS1_NS_16eop_scalar_timesEEES4_EENS_15eop_scalar_plusEEES7_EEEERS1_RKNS_4BaseIyT_EE
FN:368,_ZN4arma3ColIyEaSINS_4mtOpIyNS_13subview_elem1IdNS_3eOpIS1_NS_15eop_scalar_plusEEEEENS_13op_sort_indexEEEEERS1_RKNS_4BaseIyT_EE
FNDA:0,_ZN4arma3ColIyEaSINS_4mtOpIyNS_13subview_elem1IdNS_3eOpIS1_NS_15eop_scalar_plusEEEEENS_13op_sort_indexEEEEERS1_RKNS_4BaseIyT_EE
FN:368,_ZN4arma3ColIyEaSINS_3eOpIS1_NS_15eop_scalar_plusEEEEERS1_RKNS_4BaseIyT_EE
FNDA:0,_ZN4arma3ColIyEaSINS_3eOpIS1_NS_15eop_scalar_plusEEEEERS1_RKNS_4BaseIyT_EE
FN:368,_ZN4arma3ColIyEaSINS_4mtOpIyNS_13subview_elem1IdNS_3MatIyEEEENS_13op_sort_indexEEEEERS1_RKNS_4BaseIyT_EE
FNDA:0,_ZN4arma3ColIyEaSINS_4mtOpIyNS_13subview_elem1IdNS_3MatIyEEEENS_13op_sort_indexEEEEERS1_RKNS_4BaseIyT_EE
FN:368,_ZN4arma3ColIyEaSINS_3eOpINS3_INS3_IS1_NS_16eop_scalar_timesEEENS_15eop_scalar_plusEEES6_EEEERS1_RKNS_4BaseIyT_EE
FNDA:0,_ZN4arma3ColIyEaSINS_3eOpINS3_INS3_IS1_NS_16eop_scalar_timesEEENS_15eop_scalar_plusEEES6_EEEERS1_RKNS_4BaseIyT_EE
FN:496,_ZN4arma3ColIdEaSERKNS_12subview_cubeIdEE
FNDA:0,_ZN4arma3ColIdEaSERKNS_12subview_cubeIdEE
DA:24,0
DA:25,0
DA:28,0
DA:24,0
DA:25,0
DA:28,0
DA:47,0
DA:48,0
DA:51,0
DA:368,0
DA:372,0
DA:374,0
DA:368,0
DA:372,0
DA:374,0
DA:368,0
DA:372,0
DA:374,0
DA:368,0
DA:372,0
DA:374,0
DA:368,0
DA:372,0
DA:374,0
DA:496,0
DA:500,0
DA:502,0
end_of_record
SF:/usr/include/armadillo_bits/eOpCube_meat.hpp
FN:24,_ZN4arma7eOpCubeINS_9eGlueCubeINS_4CubeIdEES3_NS_11eglue_minusEEENS_7eop_absEEC2ERKNS_8BaseCubeIdS5_EE
FNDA:0,_ZN4arma7eOpCubeINS_9eGlueCubeINS_4CubeIdEES3_NS_11eglue_minusEEENS_7eop_absEEC2ERKNS_8BaseCubeIdS5_EE
FN:34,_ZN4arma7eOpCubeINS_4CubeIdEENS_19eop_scalar_div_postEEC2ERKNS_8BaseCubeIdS2_EEd
FNDA:0,_ZN4arma7eOpCubeINS_4CubeIdEENS_19eop_scalar_div_postEEC2ERKNS_8BaseCubeIdS2_EEd
FN:34,_ZN4arma7eOpCubeINS_9eGlueCubeINS1_INS1_INS1_INS_4CubeIdEES3_NS_10eglue_plusEEES3_S4_EES3_S4_EES3_S4_EENS_19eop_scalar_div_postEEC2ERKNS_8BaseCubeIdS8_EEd
FNDA:0,_ZN4arma7eOpCubeINS_9eGlueCubeINS1_INS1_INS1_INS_4CubeIdEES3_NS_10eglue_plusEEES3_S4_EES3_S4_EES3_S4_EENS_19eop_scalar_div_postEEC2ERKNS_8BaseCubeIdS8_EEd
FN:34,_ZN4arma7eOpCubeINS_4CubeIdEENS_16eop_scalar_timesEEC2ERKNS_8BaseCubeIdS2_EEd
FNDA:0,_ZN4arma7eOpCubeINS_4CubeIdEENS_16eop_scalar_timesEEC2ERKNS_8BaseCubeIdS2_EEd
FN:84,_ZN4arma7eOpCubeINS_4CubeIdEENS_19eop_scalar_div_postEED2Ev
FNDA:0,_ZN4arma7eOpCubeINS_4CubeIdEENS_19eop_scalar_div_postEED2Ev
FN:84,_ZN4arma7eOpCubeINS_9eGlueCubeINS_4CubeIdEES3_NS_11eglue_minusEEENS_7eop_absEED2Ev
FNDA:0,_ZN4arma7eOpCubeINS_9eGlueCubeINS_4CubeIdEES3_NS_11eglue_minusEEENS_7eop_absEED2Ev
FN:84,_ZN4arma7eOpCubeINS_9eGlueCubeINS1_INS1_INS1_INS_4CubeIdEES3_NS_10eglue_plusEEES3_S4_EES3_S4_EES3_S4_EENS_19eop_scalar_div_postEED2Ev
FNDA:0,_ZN4arma7eOpCubeINS_9eGlueCubeINS1_INS1_INS1_INS_4CubeIdEES3_NS_10eglue_plusEEES3_S4_EES3_S4_EES3_S4_EENS_19eop_scalar_div_postEED2Ev
FN:84,_ZN4arma7eOpCubeINS_4CubeIdEENS_16eop_scalar_timesEED2Ev
FNDA:0,_ZN4arma7eOpCubeINS_4CubeIdEENS_16eop_scalar_timesEED2Ev
DA:24,0
DA:25,0
DA:28,0
DA:34,0
DA:36,0
DA:39,0
DA:34,0
DA:36,0
DA:39,0
DA:34,0
DA:36,0
DA:39,0
DA:84,0
DA:87,0
DA:84,0
DA:87,0
DA:84,0
DA:87,0
DA:84,0
DA:87,0
DA:96,0
DA:106,0
DA:116,0
DA:126,0
DA:136,0
DA:146,0
DA:166,0
end_of_record
SF:/usr/include/armadillo_bits/fn_elem.hpp
DA:445,0
end_of_record
SF:/usr/include/armadillo_bits/eglue_core_meat.hpp
FN:756,_ZN4arma10eglue_coreINS_10eglue_plusEE5applyINS_7eOpCubeINS_4CubeIdEENS_19eop_scalar_div_postEEES8_EEvRNS5_INT_9elem_typeEEERKNS_9eGlueCubeIS9_T0_S1_EE
FNDA:0,_ZN4arma10eglue_coreINS_10eglue_plusEE5applyINS_7eOpCubeINS_4CubeIdEENS_19eop_scalar_div_postEEES8_EEvRNS5_INT_9elem_typeEEERKNS_9eGlueCubeIS9_T0_S1_EE
FN:756,_ZN4arma10eglue_coreINS_11eglue_minusEE5applyINS_7eOpCubeINS_4CubeIdEENS_16eop_scalar_timesEEES6_EEvRNS5_INT_9elem_typeEEERKNS_9eGlueCubeIS9_T0_S1_EE
FNDA:0,_ZN4arma10eglue_coreINS_11eglue_minusEE5applyINS_7eOpCubeINS_4CubeIdEENS_16eop_scalar_timesEEES6_EEvRNS5_INT_9elem_typeEEERKNS_9eGlueCubeIS9_T0_S1_EE
DA:756,0
DA:762,0
DA:763,0
DA:769,0
DA:773,0
DA:787,0
DA:791,0
DA:793,0
DA:794,0
DA:796,0
DA:803,0
DA:804,0
DA:806,0
DA:814,0
DA:815,0
DA:817,0
DA:848,0
DA:756,0
DA:762,0
DA:763,0
DA:769,0
DA:773,0
DA:787,0
DA:791,0
DA:793,0
DA:794,0
DA:797,0
DA:803,0
DA:804,0
DA:807,0
DA:814,0
DA:815,0
DA:818,0
DA:848,0
end_of_record
SF:/usr/include/c++/9/ext/alloc_traits.h
FN:97,_ZN9__gnu_cxx14__alloc_traitsISaIcEcE17_S_select_on_copyERKS1_
FNDA:0,_ZN9__gnu_cxx14__alloc_traitsISaIcEcE17_S_select_on_copyERKS1_
DA:97,0
DA:98,0
end_of_record
SF:/usr/include/armadillo_bits/ProxyCube.hpp
FN:54,_ZN4arma9ProxyCubeINS_4CubeIdEEEC2ERKS2_
FNDA:0,_ZN4arma9ProxyCubeINS_4CubeIdEEEC2ERKS2_
FN:406,_ZN4arma9ProxyCubeINS_7eOpCubeINS_4CubeIdEENS_19eop_scalar_div_postEEEEC2ERKS5_
FNDA:0,_ZN4arma9ProxyCubeINS_7eOpCubeINS_4CubeIdEENS_19eop_scalar_div_postEEEEC2ERKS5_
FN:406,_ZN4arma9ProxyCubeINS_7eOpCubeINS_4CubeIdEENS_16eop_scalar_timesEEEEC2ERKS5_
FNDA:0,_ZN4arma9ProxyCubeINS_7eOpCubeINS_4CubeIdEENS_16eop_scalar_timesEEEEC2ERKS5_
FN:406,_ZN4arma9ProxyCubeINS_7eOpCubeINS_9eGlueCubeINS_4CubeIdEES4_NS_11eglue_minusEEENS_7eop_absEEEEC2ERKS8_
FNDA:0,_ZN4arma9ProxyCubeINS_7eOpCubeINS_9eGlueCubeINS_4CubeIdEES4_NS_11eglue_minusEEENS_7eop_absEEEEC2ERKS8_
FN:450,_ZN4arma9ProxyCubeINS_9eGlueCubeINS_4CubeIdEES3_NS_11eglue_minusEEEEC2ERKS5_
FNDA:0,_ZN4arma9ProxyCubeINS_9eGlueCubeINS_4CubeIdEES3_NS_11eglue_minusEEEEC2ERKS5_
FN:450,_ZN4arma9ProxyCubeINS_9eGlueCubeINS1_INS1_INS1_INS_4CubeIdEES3_NS_10eglue_plusEEES3_S4_EES3_S4_EES3_S4_EEEC2ERKS8_
FNDA:0,_ZN4arma9ProxyCubeINS_9eGlueCubeINS1_INS1_INS1_INS_4CubeIdEES3_NS_10eglue_plusEEES3_S4_EES3_S4_EES3_S4_EEEC2ERKS8_
FN:450,_ZN4arma9ProxyCubeINS_9eGlueCubeINS1_INS1_INS_4CubeIdEES3_NS_10eglue_plusEEES3_S4_EES3_S4_EEEC2ERKS7_
FNDA:0,_ZN4arma9ProxyCubeINS_9eGlueCubeINS1_INS1_INS_4CubeIdEES3_NS_10eglue_plusEEES3_S4_EES3_S4_EEEC2ERKS7_
FN:450,_ZN4arma9ProxyCubeINS_9eGlueCubeINS1_INS_4CubeIdEES3_NS_10eglue_plusEEES3_S4_EEEC2ERKS6_
FNDA:0,_ZN4arma9ProxyCubeINS_9eGlueCubeINS1_INS_4CubeIdEES3_NS_10eglue_plusEEES3_S4_EEEC2ERKS6_
FN:450,_ZN4arma9ProxyCubeINS_9eGlueCubeINS_4CubeIdEES3_NS_10eglue_plusEEEEC2ERKS5_
FNDA:0,_ZN4arma9ProxyCubeINS_9eGlueCubeINS_4CubeIdEES3_NS_10eglue_plusEEEEC2ERKS5_
DA:54,0
DA:55,0
DA:58,0
DA:60,0
DA:61,0
DA:62,0
DA:63,0
DA:64,0
DA:66,0
DA:68,0
DA:70,0
DA:71,0
DA:76,0
DA:406,0
DA:407,0
DA:410,0
DA:406,0
DA:407,0
DA:410,0
DA:406,0
DA:407,0
DA:410,0
DA:412,0
DA:413,0
DA:414,0
DA:415,0
DA:416,0
DA:422,0
DA:423,0
DA:428,0
DA:450,0
DA:451,0
DA:454,0
DA:450,0
DA:451,0
DA:454,0
DA:450,0
DA:451,0
DA:454,0
DA:450,0
DA:451,0
DA:454,0
DA:450,0
DA:451,0
DA:454,0
DA:456,0
DA:457,0
DA:459,0
DA:460,0
DA:462,0
DA:464,0
DA:466,0
DA:467,0
DA:472,0
end_of_record
SF:/usr/include/c++/9/bits/std_abs.h
FN:71,_ZSt3absd
FNDA:0,_ZSt3absd
DA:71,0
DA:72,0
end_of_record
SF:/usr/include/c++/9/bits/stl_construct.h
FN:117,_ZNSt12_Destroy_auxILb1EE9__destroyIPN4arma22arma_sort_index_packetIdEEEEvT_S6_
FNDA:0,_ZNSt12_Destroy_auxILb1EE9__destroyIPN4arma22arma_sort_index_packetIdEEEEvT_S6_
FN:127,_ZSt8_DestroyIPN4arma22arma_sort_index_packetIdEEEvT_S4_
FNDA:0,_ZSt8_DestroyIPN4arma22arma_sort_index_packetIdEEEvT_S4_
FN:203,_ZSt8_DestroyIPN4arma22arma_sort_index_packetIdEES2_EvT_S4_RSaIT0_E
FNDA:0,_ZSt8_DestroyIPN4arma22arma_sort_index_packetIdEES2_EvT_S4_RSaIT0_E
DA:117,0
DA:127,0
DA:137,0
DA:138,0
DA:203,0
DA:206,0
DA:207,0
end_of_record
SF:/usr/include/c++/9/bits/cpp_type_traits.h
FN:428,_ZSt12__miter_baseIN9__gnu_cxx17__normal_iteratorIPN4arma22arma_sort_index_packetIdEESt6vectorIS4_SaIS4_EEEEET_SA_
FNDA:0,_ZSt12__miter_baseIN9__gnu_cxx17__normal_iteratorIPN4arma22arma_sort_index_packetIdEESt6vectorIS4_SaIS4_EEEEET_SA_
DA:428,0
DA:429,0
end_of_record
SF:/usr/include/armadillo_bits/eglue_core_bones.hpp
FN:52,_ZN4arma10eglue_plus4textEv
FNDA:0,_ZN4arma10eglue_plus4textEv
FN:61,_ZN4arma11eglue_minus4textEv
FNDA:0,_ZN4arma11eglue_minus4textEv
DA:52,0
DA:61,0
end_of_record
SF:/usr/include/armadillo_bits/subview_elem1_meat.hpp
FN:23,_ZN4arma13subview_elem1IdNS_3eOpINS_3ColIyEENS_15eop_scalar_plusEEEED2Ev
FNDA:0,_ZN4arma13subview_elem1IdNS_3eOpINS_3ColIyEENS_15eop_scalar_plusEEEED2Ev
FN:23,_ZN4arma13subview_elem1IdNS_3MatIyEEED2Ev
FNDA:0,_ZN4arma13subview_elem1IdNS_3MatIyEEED2Ev
DA:23,0
DA:26,0
DA:23,0
DA:26,0
DA:44,0
DA:45,0
DA:46,0
DA:47,0
DA:50,0
end_of_record
SF:/usr/include/armadillo_bits/eop_core_meat.hpp
FN:245,_ZN4arma8eop_coreINS_15eop_scalar_plusEE5applyINS_3MatIyEENS_3eOpINS6_INS6_INS_3ColIyEENS_16eop_scalar_timesEEES9_EES1_EEEEvRT_RKNS6_IT0_S1_EE
FNDA:0,_ZN4arma8eop_coreINS_15eop_scalar_plusEE5applyINS_3MatIyEENS_3eOpINS6_INS6_INS_3ColIyEENS_16eop_scalar_timesEEES9_EES1_EEEEvRT_RKNS6_IT0_S1_EE
FN:245,_ZN4arma8eop_coreINS_15eop_scalar_plusEE5applyINS_3MatIyEENS_3ColIyEEEEvRT_RKNS_3eOpIT0_S1_EE
FNDA:0,_ZN4arma8eop_coreINS_15eop_scalar_plusEE5applyINS_3MatIyEENS_3ColIyEEEEvRT_RKNS_3eOpIT0_S1_EE
FN:245,_ZN4arma8eop_coreINS_15eop_scalar_plusEE5applyINS_3MatIyEENS_3eOpINS6_INS_3ColIyEENS_16eop_scalar_timesEEES1_EEEEvRT_RKNS6_IT0_S1_EE
FNDA:0,_ZN4arma8eop_coreINS_15eop_scalar_plusEE5applyINS_3MatIyEENS_3eOpINS6_INS_3ColIyEENS_16eop_scalar_timesEEES1_EEEEvRT_RKNS6_IT0_S1_EE
FN:626,_ZN4arma8eop_coreINS_19eop_scalar_div_postEE5applyINS_9eGlueCubeINS4_INS4_INS4_INS_4CubeIdEES6_NS_10eglue_plusEEES6_S7_EES6_S7_EES6_S7_EEEEvRNS5_INT_9elem_typeEEERKNS_7eOpCubeISC_S1_EE
FNDA:0,_ZN4arma8eop_coreINS_19eop_scalar_div_postEE5applyINS_9eGlueCubeINS4_INS4_INS4_INS_4CubeIdEES6_NS_10eglue_plusEEES6_S7_EES6_S7_EES6_S7_EEEEvRNS5_INT_9elem_typeEEERKNS_7eOpCubeISC_S1_EE
DA:245,0
DA:254,0
DA:255,0
DA:257,0
DA:261,0
DA:271,0
DA:275,0
DA:277,0
DA:279,0
DA:283,0
DA:285,0
DA:290,0
DA:292,0
DA:312,0
DA:245,0
DA:254,0
DA:255,0
DA:257,0
DA:261,0
DA:271,0
DA:275,0
DA:277,0
DA:279,0
DA:283,0
DA:285,0
DA:290,0
DA:292,0
DA:312,0
DA:245,0
DA:254,0
DA:255,0
DA:257,0
DA:261,0
DA:271,0
DA:275,0
DA:277,0
DA:279,0
DA:283,0
DA:285,0
DA:290,0
DA:292,0
DA:312,0
DA:626,0
DA:635,0
DA:636,0
DA:638,0
DA:642,0
DA:652,0
DA:656,0
DA:658,0
DA:660,0
DA:664,0
DA:666,0
DA:671,0
DA:673,0
DA:694,0
DA:1021,0
DA:1030,0
DA:1036,0
DA:1120,0
end_of_record
SF:/usr/include/c++/9/new
FN:57,_ZNSt9bad_allocC2Ev
FNDA:0,_ZNSt9bad_allocC2Ev
DA:57,0
end_of_record
SF:/usr/include/c++/9/bits/move.h
FN:99,_ZSt4moveIRN9__gnu_cxx5__ops15_Iter_comp_iterIN4arma30arma_sort_index_helper_descendIdEEEEEONSt16remove_referenceIT_E4typeEOS9_
FNDA:0,_ZSt4moveIRN9__gnu_cxx5__ops15_Iter_comp_iterIN4arma30arma_sort_index_helper_descendIdEEEEEONSt16remove_referenceIT_E4typeEOS9_
FN:99,_ZSt4moveIRN9__gnu_cxx5__ops15_Iter_comp_iterIN4arma29arma_sort_index_helper_ascendIdEEEEEONSt16remove_referenceIT_E4typeEOS9_
FNDA:0,_ZSt4moveIRN9__gnu_cxx5__ops15_Iter_comp_iterIN4arma29arma_sort_index_helper_ascendIdEEEEEONSt16remove_referenceIT_E4typeEOS9_
FN:99,_ZSt4moveIRN4arma22arma_sort_index_packetIdEEEONSt16remove_referenceIT_E4typeEOS5_
FNDA:0,_ZSt4moveIRN4arma22arma_sort_index_packetIdEEEONSt16remove_referenceIT_E4typeEOS5_
FN:99,_ZSt4moveIRN4arma30arma_sort_index_helper_descendIdEEEONSt16remove_referenceIT_E4typeEOS5_
FNDA:0,_ZSt4moveIRN4arma30arma_sort_index_helper_descendIdEEEONSt16remove_referenceIT_E4typeEOS5_
FN:99,_ZSt4moveIRN4arma29arma_sort_index_helper_ascendIdEEEONSt16remove_referenceIT_E4typeEOS5_
FNDA:0,_ZSt4moveIRN4arma29arma_sort_index_helper_ascendIdEEEONSt16remove_referenceIT_E4typeEOS5_
FN:99,_ZSt4moveIRSaIcEEONSt16remove_referenceIT_E4typeEOS3_
FNDA:0,_ZSt4moveIRSaIcEEONSt16remove_referenceIT_E4typeEOS3_
FN:182,_ZSt4swapIN4arma22arma_sort_index_packetIdEEENSt9enable_ifIXsrSt6__and_IJSt6__not_ISt15__is_tuple_likeIT_EESt21is_move_constructibleIS7_ESt18is_move_assignableIS7_EEE5valueEvE4typeERS7_SH_
FNDA:0,_ZSt4swapIN4arma22arma_sort_index_packetIdEEENSt9enable_ifIXsrSt6__and_IJSt6__not_ISt15__is_tuple_likeIT_EESt21is_move_constructibleIS7_ESt18is_move_assignableIS7_EEE5valueEvE4typeERS7_SH_
DA:99,0
DA:100,0
DA:99,0
DA:100,0
DA:99,0
DA:100,0
DA:99,0
DA:100,0
DA:99,0
DA:100,0
DA:99,0
DA:100,0
DA:182,0
DA:193,0
DA:194,0
DA:195,0
DA:196,0
end_of_record
SF:/usr/include/c++/9/bits/stl_iterator_base_types.h
FN:205,_ZSt19__iterator_categoryIPcENSt15iterator_traitsIT_E17iterator_categoryERKS2_
FNDA:0,_ZSt19__iterator_categoryIPcENSt15iterator_traitsIT_E17iterator_categoryERKS2_
FN:205,_ZSt19__iterator_categoryIPKcENSt15iterator_traitsIT_E17iterator_categoryERKS3_
FNDA:0,_ZSt19__iterator_categoryIPKcENSt15iterator_traitsIT_E17iterator_categoryERKS3_
DA:205,0
DA:206,0
DA:205,0
DA:206,0
end_of_record
SF:/usr/include/armadillo_bits/gmm_misc_bones.hpp
FN:21,_ZN4arma13gmm_dist_modeC2Ey
FNDA:0,_ZN4arma13gmm_dist_modeC2Ey
FN:26,_ZN4arma13gmm_dist_euclC2Ev
FNDA:0,_ZN4arma13gmm_dist_euclC2Ev
FN:27,_ZN4arma13gmm_dist_mahaC2Ev
FNDA:0,_ZN4arma13gmm_dist_mahaC2Ev
FN:28,_ZN4arma13gmm_dist_probC2Ev
FNDA:0,_ZN4arma13gmm_dist_probC2Ev
FN:36,_ZN4arma13gmm_seed_modeC2Ey
FNDA:0,_ZN4arma13gmm_seed_modeC2Ey
FN:41,_ZN4arma22gmm_seed_keep_existingC2Ev
FNDA:0,_ZN4arma22gmm_seed_keep_existingC2Ev
FN:42,_ZN4arma22gmm_seed_static_subsetC2Ev
FNDA:0,_ZN4arma22gmm_seed_static_subsetC2Ev
FN:43,_ZN4arma22gmm_seed_static_spreadC2Ev
FNDA:0,_ZN4arma22gmm_seed_static_spreadC2Ev
FN:44,_ZN4arma22gmm_seed_random_subsetC2Ev
FNDA:0,_ZN4arma22gmm_seed_random_subsetC2Ev
FN:45,_ZN4arma22gmm_seed_random_spreadC2Ev
FNDA:0,_ZN4arma22gmm_seed_random_spreadC2Ev
DA:21,0
DA:26,0
DA:27,0
DA:28,0
DA:36,0
DA:41,0
DA:42,0
DA:43,0
DA:44,0
DA:45,0
end_of_record
SF:/usr/include/armadillo_bits/operator_cube_times.hpp
DA:51,0
end_of_record
SF:/usr/include/c++/9/bits/stl_uninitialized.h
FN:561,_ZNSt27__uninitialized_default_n_1ILb1EE18__uninit_default_nIPN4arma22arma_sort_index_packetIdEEmEET_S6_T0_
FNDA:0,_ZNSt27__uninitialized_default_n_1ILb1EE18__uninit_default_nIPN4arma22arma_sort_index_packetIdEEmEET_S6_T0_
FN:592,_ZSt25__uninitialized_default_nIPN4arma22arma_sort_index_packetIdEEmET_S4_T0_
FNDA:0,_ZSt25__uninitialized_default_nIPN4arma22arma_sort_index_packetIdEEmET_S4_T0_
FN:661,_ZSt27__uninitialized_default_n_aIPN4arma22arma_sort_index_packetIdEEmS2_ET_S4_T0_RSaIT1_E
FNDA:0,_ZSt27__uninitialized_default_n_aIPN4arma22arma_sort_index_packetIdEEmS2_ET_S4_T0_RSaIT1_E
DA:561,0
DA:566,0
DA:592,0
DA:597,0
DA:601,0
DA:661,0
DA:663,0
end_of_record
SF:/usr/include/armadillo_bits/operator_cube_div.hpp
DA:34,0
end_of_record
SF:/usr/include/armadillo_bits/memory.hpp
FN:54,_ZN4arma6memory7acquireIyEEPT_y
FNDA:0,_ZN4arma6memory7acquireIyEEPT_y
FN:54,_ZN4arma6memory7acquireIdEEPT_y
FNDA:0,_ZN4arma6memory7acquireIdEEPT_y
DA:54,0
DA:56,0
DA:59,0
DA:60,0
DA:76,0
DA:78,0
DA:79,0
DA:82,0
DA:84,0
DA:105,0
DA:107,0
DA:54,0
DA:56,0
DA:59,0
DA:60,0
DA:76,0
DA:78,0
DA:79,0
DA:82,0
DA:84,0
DA:105,0
DA:107,0
DA:129,0
DA:141,0
DA:167,0
DA:191,0
DA:209,0
DA:224,0
DA:231,0
end_of_record
SF:/usr/include/armadillo_bits/operator_cube_plus.hpp
DA:118,0
end_of_record
SF:/usr/include/armadillo_bits/debug.hpp
FN:39,_ZN4arma16arma_cerr_streamIcEERSoPSo
FNDA:0,_ZN4arma16arma_cerr_streamIcEERSoPSo
FN:79,_ZN4arma15get_cerr_streamEv
FNDA:0,_ZN4arma15get_cerr_streamEv
FN:136,_ZN4armaL21arma_stop_logic_errorINSt7__cxx1112basic_stringIcSt11char_traitsIcESaIcEEEEEvRKT_
FNDA:0,_ZN4armaL21arma_stop_logic_errorINSt7__cxx1112basic_stringIcSt11char_traitsIcESaIcEEEEEvRKT_
FN:136,_ZN4armaL21arma_stop_logic_errorIPKcEEvRKT_
FNDA:0,_ZN4armaL21arma_stop_logic_errorIPKcEEvRKT_
FN:155,_ZN4armaL19arma_stop_bad_allocIA34_cEEvRKT_
FNDA:0,_ZN4armaL19arma_stop_bad_allocIA34_cEEvRKT_
FN:155,_ZN4armaL19arma_stop_bad_allocIA29_cEEvRKT_
FNDA:0,_ZN4armaL19arma_stop_bad_allocIA29_cEEvRKT_
FN:155,_ZN4armaL19arma_stop_bad_allocIA24_cEEvRKT_
FNDA:0,_ZN4armaL19arma_stop_bad_allocIA24_cEEvRKT_
FN:155,_ZN4armaL19arma_stop_bad_allocIA39_cEEvRKT_
FNDA:0,_ZN4armaL19arma_stop_bad_allocIA39_cEEvRKT_
FN:178,_ZN4armaL23arma_stop_runtime_errorIA49_cEEvRKT_
FNDA:0,_ZN4armaL23arma_stop_runtime_errorIA49_cEEvRKT_
FN:209,_ZN4armaL10arma_printIA46_cEEvRKT_
FNDA:0,_ZN4armaL10arma_printIA46_cEEvRKT_
FN:209,_ZN4armaL10arma_printIA27_cEEvRKT_
FNDA:0,_ZN4armaL10arma_printIA27_cEEvRKT_
FN:209,_ZN4armaL10arma_printIA32_cEEvRKT_
FNDA:0,_ZN4armaL10arma_printIA32_cEEvRKT_
FN:209,_ZN4armaL10arma_printIA30_cEEvRKT_
FNDA:0,_ZN4armaL10arma_printIA30_cEEvRKT_
FN:209,_ZN4armaL10arma_printIA33_cEEvRKT_
FNDA:0,_ZN4armaL10arma_printIA33_cEEvRKT_
FN:209,_ZN4armaL10arma_printIA31_cEEvRKT_
FNDA:0,_ZN4armaL10arma_printIA31_cEEvRKT_
FN:209,_ZN4armaL10arma_printIA29_cEEvRKT_
FNDA:0,_ZN4armaL10arma_printIA29_cEEvRKT_
FN:209,_ZN4armaL10arma_printIA28_cEEvRKT_
FNDA:0,_ZN4armaL10arma_printIA28_cEEvRKT_
FN:209,_ZN4armaL10arma_printIA17_cEEvRKT_
FNDA:0,_ZN4armaL10arma_printIA17_cEEvRKT_
FN:316,_ZN4armaL9arma_warnINSt7__cxx1112basic_stringIcSt11char_traitsIcESaIcEEEEEvRKT_
FNDA:0,_ZN4armaL9arma_warnINSt7__cxx1112basic_stringIcSt11char_traitsIcESaIcEEEEEvRKT_
FN:380,_ZN4arma10arma_checkIA27_cEEvbRKT_
FNDA:0,_ZN4arma10arma_checkIA27_cEEvbRKT_
FN:380,_ZN4arma10arma_checkIA42_cEEvbRKT_
FNDA:0,_ZN4arma10arma_checkIA42_cEEvbRKT_
FN:380,_ZN4arma10arma_checkIA53_cEEvbRKT_
FNDA:0,_ZN4arma10arma_checkIA53_cEEvbRKT_
FN:380,_ZN4arma10arma_checkIA74_cEEvbRKT_
FNDA:0,_ZN4arma10arma_checkIA74_cEEvbRKT_
FN:380,_ZN4arma10arma_checkIA36_cEEvbRKT_
FNDA:0,_ZN4arma10arma_checkIA36_cEEvbRKT_
FN:380,_ZN4arma10arma_checkIA37_cEEvbRKT_
FNDA:0,_ZN4arma10arma_checkIA37_cEEvbRKT_
FN:380,_ZN4arma10arma_checkIA38_cEEvbRKT_
FNDA:0,_ZN4arma10arma_checkIA38_cEEvbRKT_
FN:380,_ZN4arma10arma_checkIA35_cEEvbRKT_
FNDA:0,_ZN4arma10arma_checkIA35_cEEvbRKT_
FN:380,_ZN4arma10arma_checkIPKcEEvbRKT_
FNDA:0,_ZN4arma10arma_checkIPKcEEvbRKT_
FN:380,_ZN4arma10arma_checkIA81_cEEvbRKT_
FNDA:0,_ZN4arma10arma_checkIA81_cEEvbRKT_
FN:380,_ZN4arma10arma_checkIA33_cEEvbRKT_
FNDA:0,_ZN4arma10arma_checkIA33_cEEvbRKT_
FN:380,_ZN4arma10arma_checkIPcEEvbRKT_
FNDA:0,_ZN4arma10arma_checkIPcEEvbRKT_
FN:400,_ZN4arma20arma_check_bad_allocIA39_cEEvbRKT_
FNDA:0,_ZN4arma20arma_check_bad_allocIA39_cEEvbRKT_
FN:400,_ZN4arma20arma_check_bad_allocIA34_cEEvbRKT_
FNDA:0,_ZN4arma20arma_check_bad_allocIA34_cEEvbRKT_
FN:433,_ZN4armaL25arma_incompat_size_stringEyyyyPKc
FNDA:0,_ZN4armaL25arma_incompat_size_stringEyyyyPKc
FN:448,_ZN4armaL25arma_incompat_size_stringEyyyyyyPKc
FNDA:0,_ZN4armaL25arma_incompat_size_stringEyyyyyyPKc
FN:716,_ZN4arma21arma_assert_same_sizeEyyyyyyPKc
FNDA:0,_ZN4arma21arma_assert_same_sizeEyyyyyyPKc
FN:870,_ZN4arma23arma_assert_cube_as_matIdNS_12subview_cubeIdEEEEvRKNS_3MatIT_EERKT0_PKcb
FNDA:0,_ZN4arma23arma_assert_cube_as_matIdNS_12subview_cubeIdEEEEvRKNS_3MatIT_EERKT0_PKcb
DA:39,0
DA:43,0
DA:45,0
DA:79,0
DA:81,0
DA:136,0
DA:140,0
DA:144,0
DA:136,0
DA:140,0
DA:144,0
DA:155,0
DA:159,0
DA:167,0
DA:155,0
DA:159,0
DA:167,0
DA:155,0
DA:159,0
DA:167,0
DA:155,0
DA:159,0
DA:167,0
DA:178,0
DA:182,0
DA:186,0
DA:209,0
DA:211,0
DA:212,0
DA:209,0
DA:211,0
DA:212,0
DA:209,0
DA:211,0
DA:212,0
DA:209,0
DA:211,0
DA:212,0
DA:209,0
DA:211,0
DA:212,0
DA:209,0
DA:211,0
DA:212,0
DA:209,0
DA:211,0
DA:212,0
DA:209,0
DA:211,0
DA:212,0
DA:209,0
DA:211,0
DA:212,0
DA:316,0
DA:320,0
DA:327,0
DA:380,0
DA:382,0
DA:383,0
DA:380,0
DA:382,0
DA:383,0
DA:380,0
DA:382,0
DA:383,0
DA:380,0
DA:382,0
DA:383,0
DA:380,0
DA:382,0
DA:383,0
DA:380,0
DA:382,0
DA:383,0
DA:380,0
DA:382,0
DA:383,0
DA:380,0
DA:382,0
DA:383,0
DA:380,0
DA:382,0
DA:383,0
DA:380,0
DA:382,0
DA:383,0
DA:380,0
DA:382,0
DA:383,0
DA:380,0
DA:382,0
DA:383,0
DA:400,0
DA:402,0
DA:403,0
DA:400,0
DA:402,0
DA:403,0
DA:416,0
DA:418,0
DA:419,0
DA:421,0
DA:433,0
DA:435,0
DA:437,0
DA:439,0
DA:448,0
DA:450,0
DA:452,0
DA:454,0
DA:716,0
DA:718,0
DA:720,0
DA:722,0
DA:870,0
DA:872,0
DA:873,0
DA:874,0
DA:876,0
DA:878,0
DA:880,0
DA:882,0
DA:885,0
DA:886,0
DA:887,0
DA:889,0
DA:894,0
DA:896,0
DA:898,0
DA:901,0
DA:902,0
DA:903,0
DA:905,0
DA:908,0
DA:910,0
DA:913,0
DA:914,0
DA:915,0
DA:917,0
DA:922,0
DA:924,0
DA:927,0
DA:928,0
DA:929,0
DA:931,0
DA:937,0
DA:939,0
DA:940,0
DA:942,0
DA:944,0
DA:946,0
DA:947,0
DA:948,0
DA:949,0
DA:950,0
DA:955,0
DA:958,0
DA:959,0
DA:960,0
DA:961,0
DA:963,0
DA:968,0
DA:970,0
DA:972,0
DA:975,0
DA:976,0
DA:977,0
DA:978,0
DA:980,0
DA:983,0
DA:985,0
DA:988,0
DA:989,0
DA:990,0
DA:991,0
DA:993,0
DA:998,0
DA:1000,0
DA:1003,0
DA:1004,0
DA:1005,0
DA:1006,0
DA:1008,0
DA:1013,0
end_of_record
SF:/usr/include/armadillo_bits/Mat_meat.hpp
FN:23,_ZN4arma3MatIdED2Ev
FNDA:0,_ZN4arma3MatIdED2Ev
FN:23,_ZN4arma3MatIyED2Ev
FNDA:0,_ZN4arma3MatIyED2Ev
FN:42,_ZN4arma3MatIyEC2Ev
FNDA:0,_ZN4arma3MatIyEC2Ev
FN:134,_ZN4arma3MatIyEC2ERKNS_18arma_vec_indicatorEj
FNDA:0,_ZN4arma3MatIyEC2ERKNS_18arma_vec_indicatorEj
FN:134,_ZN4arma3MatIdEC2ERKNS_18arma_vec_indicatorEj
FNDA:0,_ZN4arma3MatIdEC2ERKNS_18arma_vec_indicatorEj
FN:150,_ZN4arma3MatIyEC2ERKNS_18arma_vec_indicatorEyyj
FNDA:0,_ZN4arma3MatIyEC2ERKNS_18arma_vec_indicatorEyyj
FN:183,_ZN4arma3MatIyE9init_coldEv
FNDA:0,_ZN4arma3MatIyE9init_coldEv
FN:183,_ZN4arma3MatIdE9init_coldEv
FNDA:0,_ZN4arma3MatIdE9init_coldEv
FN:229,_ZN4arma3MatIdE9init_warmEyy
FNDA:0,_ZN4arma3MatIdE9init_warmEyy
FN:229,_ZN4arma3MatIyE9init_warmEyy
FNDA:0,_ZN4arma3MatIyE9init_warmEyy
FN:805,_ZN4arma3MatIyEaSERKS1_
FNDA:0,_ZN4arma3MatIyEaSERKS1_
FN:1099,_ZN4arma3MatIyE9steal_memERS1_
FNDA:0,_ZN4arma3MatIyE9steal_memERS1_
FN:1217,_ZN4arma3MatIdEC2EPdyybb
FNDA:0,_ZN4arma3MatIdEC2EPdyybb
FN:2076,_ZN4arma3MatIdEaSERKNS_12subview_cubeIdEE
FNDA:0,_ZN4arma3MatIdEaSERKNS_12subview_cubeIdEE
FN:4889,_ZN4arma3MatIyEaSINS_3eOpINS3_INS3_INS_3ColIyEENS_16eop_scalar_timesEEES6_EENS_15eop_scalar_plusEEES9_EERS1_RKNS3_IT_T0_EE
FNDA:0,_ZN4arma3MatIyEaSINS_3eOpINS3_INS3_INS_3ColIyEENS_16eop_scalar_timesEEES6_EENS_15eop_scalar_plusEEES9_EERS1_RKNS3_IT_T0_EE
FN:4889,_ZN4arma3MatIyEaSINS_3ColIyEENS_15eop_scalar_plusEEERS1_RKNS_3eOpIT_T0_EE
FNDA:0,_ZN4arma3MatIyEaSINS_3ColIyEENS_15eop_scalar_plusEEERS1_RKNS_3eOpIT_T0_EE
FN:4889,_ZN4arma3MatIyEaSINS_3eOpINS3_INS_3ColIyEENS_16eop_scalar_timesEEENS_15eop_scalar_plusEEES8_EERS1_RKNS3_IT_T0_EE
FNDA:0,_ZN4arma3MatIyEaSINS_3eOpINS3_INS_3ColIyEENS_16eop_scalar_timesEEENS_15eop_scalar_plusEEES8_EERS1_RKNS3_IT_T0_EE
FN:5024,_ZN4arma3MatIyEaSINS_13subview_elem1IdS1_EENS_13op_sort_indexEEERS1_RKNS_4mtOpIyT_T0_EE
FNDA:0,_ZN4arma3MatIyEaSINS_13subview_elem1IdS1_EENS_13op_sort_indexEEERS1_RKNS_4mtOpIyT_T0_EE
FN:5024,_ZN4arma3MatIyEaSINS_13subview_elem1IdNS_3eOpINS_3ColIyEENS_15eop_scalar_plusEEEEENS_13op_sort_indexEEERS1_RKNS_4mtOpIyT_T0_EE
FNDA:0,_ZN4arma3MatIyEaSINS_13subview_elem1IdNS_3eOpINS_3ColIyEENS_15eop_scalar_plusEEEEENS_13op_sort_indexEEERS1_RKNS_4mtOpIyT_T0_EE
FN:6521,_ZN4arma3MatIyE8set_sizeEy
FNDA:0,_ZN4arma3MatIyE8set_sizeEy
FN:6521,_ZN4arma3MatIdE8set_sizeEy
FNDA:0,_ZN4arma3MatIdE8set_sizeEy
FN:6547,_ZN4arma3MatIdE8set_sizeEyy
FNDA:0,_ZN4arma3MatIdE8set_sizeEyy
FN:6547,_ZN4arma3MatIyE8set_sizeEyy
FNDA:0,_ZN4arma3MatIyE8set_sizeEyy
FN:6841,_ZN4arma3MatIyE4fillEy
FNDA:0,_ZN4arma3MatIyE4fillEy
FN:7137,_ZN4arma3MatIyE5resetEv
FNDA:0,_ZN4arma3MatIyE5resetEv
FN:7163,_ZN4arma3MatIyE10soft_resetEv
FNDA:0,_ZN4arma3MatIyE10soft_resetEv
FN:7270,_ZNK4arma3MatIdE3maxERy
FNDA:0,_ZNK4arma3MatIdE3maxERy
DA:23,0
DA:27,0
DA:29,0
DA:33,0
DA:36,0
DA:23,0
DA:27,0
DA:29,0
DA:33,0
DA:36,0
DA:42,0
DA:48,0
DA:51,0
DA:134,0
DA:140,0
DA:143,0
DA:134,0
DA:140,0
DA:143,0
DA:150,0
DA:153,0
DA:156,0
DA:160,0
DA:161,0
DA:183,0
DA:190,0
DA:196,0
DA:198,0
DA:199,0
DA:205,0
DA:207,0
DA:209,0
DA:214,0
DA:220,0
DA:222,0
DA:183,0
DA:190,0
DA:196,0
DA:198,0
DA:199,0
DA:205,0
DA:207,0
DA:209,0
DA:214,0
DA:220,0
DA:222,0
DA:229,0
DA:233,0
DA:235,0
DA:236,0
DA:238,0
DA:239,0
DA:241,0
DA:243,0
DA:245,0
DA:247,0
DA:248,0
DA:252,0
DA:253,0
DA:260,0
DA:266,0
DA:270,0
DA:271,0
DA:277,0
DA:279,0
DA:280,0
DA:282,0
DA:285,0
DA:286,0
DA:290,0
DA:292,0
DA:294,0
DA:296,0
DA:299,0
DA:302,0
DA:304,0
DA:309,0
DA:319,0
DA:322,0
DA:325,0
DA:328,0
DA:333,0
DA:336,0
DA:339,0
DA:340,0
DA:341,0
DA:229,0
DA:233,0
DA:235,0
DA:236,0
DA:238,0
DA:239,0
DA:241,0
DA:243,0
DA:245,0
DA:247,0
DA:248,0
DA:252,0
DA:253,0
DA:260,0
DA:266,0
DA:270,0
DA:271,0
DA:277,0
DA:279,0
DA:280,0
DA:282,0
DA:285,0
DA:286,0
DA:290,0
DA:292,0
DA:294,0
DA:296,0
DA:299,0
DA:302,0
DA:304,0
DA:309,0
DA:319,0
DA:322,0
DA:325,0
DA:328,0
DA:333,0
DA:336,0
DA:339,0
DA:340,0
DA:341,0
DA:805,0
DA:809,0
DA:811,0
DA:813,0
DA:816,0
DA:1099,0
DA:1103,0
DA:1105,0
DA:1106,0
DA:1107,0
DA:1108,0
DA:1109,0
DA:1111,0
DA:1112,0
DA:1114,0
DA:1116,0
DA:1118,0
DA:1122,0
DA:1123,0
DA:1127,0
DA:1129,0
DA:1131,0
DA:1132,0
DA:1133,0
DA:1134,0
DA:1135,0
DA:1137,0
DA:1138,0
DA:1139,0
DA:1140,0
DA:1141,0
DA:1145,0
DA:1217,0
DA:1220,0
DA:1223,0
DA:1227,0
DA:1229,0
DA:1231,0
DA:1233,0
DA:2076,0
DA:2080,0
DA:2082,0
DA:4889,0
DA:4895,0
DA:4899,0
DA:4901,0
DA:4912,0
DA:4889,0
DA:4895,0
DA:4899,0
DA:4901,0
DA:4912,0
DA:4889,0
DA:4895,0
DA:4899,0
DA:4901,0
DA:4912,0
DA:5024,0
DA:5028,0
DA:5030,0
DA:5024,0
DA:5028,0
DA:5030,0
DA:5795,0
DA:5798,0
DA:5810,0
DA:5811,0
DA:5835,0
DA:5847,0
DA:6372,0
DA:6396,0
DA:6408,0
DA:6521,0
DA:6525,0
DA:6527,0
DA:6529,0
DA:6530,0
DA:6532,0
DA:6533,0
DA:6534,0
DA:6536,0
DA:6539,0
DA:6521,0
DA:6525,0
DA:6527,0
DA:6529,0
DA:6530,0
DA:6532,0
DA:6533,0
DA:6534,0
DA:6536,0
DA:6539,0
DA:6547,0
DA:6551,0
DA:6552,0
DA:6547,0
DA:6551,0
DA:6552,0
DA:6841,0
DA:6845,0
DA:6847,0
DA:7137,0
DA:7141,0
DA:7143,0
DA:7144,0
DA:7145,0
DA:7147,0
DA:7148,0
DA:7149,0
DA:7151,0
DA:7152,0
DA:7153,0
DA:7155,0
DA:7163,0
DA:7168,0
DA:7170,0
DA:7174,0
DA:7176,0
DA:7270,0
DA:7274,0
DA:7276,0
DA:7278,0
DA:7280,0
DA:7283,0
end_of_record
SF:/usr/include/c++/9/bits/predefined_ops.h
FN:135,_ZN9__gnu_cxx5__ops15_Iter_comp_iterIN4arma30arma_sort_index_helper_descendIdEEEC2ES4_
FNDA:0,_ZN9__gnu_cxx5__ops15_Iter_comp_iterIN4arma30arma_sort_index_helper_descendIdEEEC2ES4_
FN:135,_ZN9__gnu_cxx5__ops15_Iter_comp_iterIN4arma29arma_sort_index_helper_ascendIdEEEC2ES4_
FNDA:0,_ZN9__gnu_cxx5__ops15_Iter_comp_iterIN4arma29arma_sort_index_helper_ascendIdEEEC2ES4_
FN:142,_ZN9__gnu_cxx5__ops15_Iter_comp_iterIN4arma30arma_sort_index_helper_descendIdEEEclINS_17__normal_iteratorIPNS2_22arma_sort_index_packetIdEESt6vectorIS9_SaIS9_EEEESE_EEbT_T0_
FNDA:0,_ZN9__gnu_cxx5__ops15_Iter_comp_iterIN4arma30arma_sort_index_helper_descendIdEEEclINS_17__normal_iteratorIPNS2_22arma_sort_index_packetIdEESt6vectorIS9_SaIS9_EEEESE_EEbT_T0_
FN:142,_ZN9__gnu_cxx5__ops15_Iter_comp_iterIN4arma29arma_sort_index_helper_ascendIdEEEclINS_17__normal_iteratorIPNS2_22arma_sort_index_packetIdEESt6vectorIS9_SaIS9_EEEESE_EEbT_T0_
FNDA:0,_ZN9__gnu_cxx5__ops15_Iter_comp_iterIN4arma29arma_sort_index_helper_ascendIdEEEclINS_17__normal_iteratorIPNS2_22arma_sort_index_packetIdEESt6vectorIS9_SaIS9_EEEESE_EEbT_T0_
FN:149,_ZN9__gnu_cxx5__ops16__iter_comp_iterIN4arma30arma_sort_index_helper_descendIdEEEENS0_15_Iter_comp_iterIT_EES6_
FNDA:0,_ZN9__gnu_cxx5__ops16__iter_comp_iterIN4arma30arma_sort_index_helper_descendIdEEEENS0_15_Iter_comp_iterIT_EES6_
FN:149,_ZN9__gnu_cxx5__ops16__iter_comp_iterIN4arma29arma_sort_index_helper_ascendIdEEEENS0_15_Iter_comp_iterIT_EES6_
FNDA:0,_ZN9__gnu_cxx5__ops16__iter_comp_iterIN4arma29arma_sort_index_helper_ascendIdEEEENS0_15_Iter_comp_iterIT_EES6_
FN:169,_ZN9__gnu_cxx5__ops14_Iter_comp_valIN4arma30arma_sort_index_helper_descendIdEEEC2EONS0_15_Iter_comp_iterIS4_EE
FNDA:0,_ZN9__gnu_cxx5__ops14_Iter_comp_valIN4arma30arma_sort_index_helper_descendIdEEEC2EONS0_15_Iter_comp_iterIS4_EE
FN:169,_ZN9__gnu_cxx5__ops14_Iter_comp_valIN4arma29arma_sort_index_helper_ascendIdEEEC2EONS0_15_Iter_comp_iterIS4_EE
FNDA:0,_ZN9__gnu_cxx5__ops14_Iter_comp_valIN4arma29arma_sort_index_helper_ascendIdEEEC2EONS0_15_Iter_comp_iterIS4_EE
FN:176,_ZN9__gnu_cxx5__ops14_Iter_comp_valIN4arma30arma_sort_index_helper_descendIdEEEclINS_17__normal_iteratorIPNS2_22arma_sort_index_packetIdEESt6vectorIS9_SaIS9_EEEES9_EEbT_RT0_
FNDA:0,_ZN9__gnu_cxx5__ops14_Iter_comp_valIN4arma30arma_sort_index_helper_descendIdEEEclINS_17__normal_iteratorIPNS2_22arma_sort_index_packetIdEESt6vectorIS9_SaIS9_EEEES9_EEbT_RT0_
FN:176,_ZN9__gnu_cxx5__ops14_Iter_comp_valIN4arma29arma_sort_index_helper_ascendIdEEEclINS_17__normal_iteratorIPNS2_22arma_sort_index_packetIdEESt6vectorIS9_SaIS9_EEEES9_EEbT_RT0_
FNDA:0,_ZN9__gnu_cxx5__ops14_Iter_comp_valIN4arma29arma_sort_index_helper_ascendIdEEEclINS_17__normal_iteratorIPNS2_22arma_sort_index_packetIdEESt6vectorIS9_SaIS9_EEEES9_EEbT_RT0_
FN:207,_ZN9__gnu_cxx5__ops14_Val_comp_iterIN4arma30arma_sort_index_helper_descendIdEEEC2EONS0_15_Iter_comp_iterIS4_EE
FNDA:0,_ZN9__gnu_cxx5__ops14_Val_comp_iterIN4arma30arma_sort_index_helper_descendIdEEEC2EONS0_15_Iter_comp_iterIS4_EE
FN:207,_ZN9__gnu_cxx5__ops14_Val_comp_iterIN4arma29arma_sort_index_helper_ascendIdEEEC2EONS0_15_Iter_comp_iterIS4_EE
FNDA:0,_ZN9__gnu_cxx5__ops14_Val_comp_iterIN4arma29arma_sort_index_helper_ascendIdEEEC2EONS0_15_Iter_comp_iterIS4_EE
FN:214,_ZN9__gnu_cxx5__ops14_Val_comp_iterIN4arma30arma_sort_index_helper_descendIdEEEclINS2_22arma_sort_index_packetIdEENS_17__normal_iteratorIPS8_St6vectorIS8_SaIS8_EEEEEEbRT_T0_
FNDA:0,_ZN9__gnu_cxx5__ops14_Val_comp_iterIN4arma30arma_sort_index_helper_descendIdEEEclINS2_22arma_sort_index_packetIdEENS_17__normal_iteratorIPS8_St6vectorIS8_SaIS8_EEEEEEbRT_T0_
FN:214,_ZN9__gnu_cxx5__ops14_Val_comp_iterIN4arma29arma_sort_index_helper_ascendIdEEEclINS2_22arma_sort_index_packetIdEENS_17__normal_iteratorIPS8_St6vectorIS8_SaIS8_EEEEEEbRT_T0_
FNDA:0,_ZN9__gnu_cxx5__ops14_Val_comp_iterIN4arma29arma_sort_index_helper_ascendIdEEEclINS2_22arma_sort_index_packetIdEENS_17__normal_iteratorIPS8_St6vectorIS8_SaIS8_EEEEEEbRT_T0_
FN:225,_ZN9__gnu_cxx5__ops15__val_comp_iterIN4arma30arma_sort_index_helper_descendIdEEEENS0_14_Val_comp_iterIT_EENS0_15_Iter_comp_iterIS6_EE
FNDA:0,_ZN9__gnu_cxx5__ops15__val_comp_iterIN4arma30arma_sort_index_helper_descendIdEEEENS0_14_Val_comp_iterIT_EENS0_15_Iter_comp_iterIS6_EE
FN:225,_ZN9__gnu_cxx5__ops15__val_comp_iterIN4arma29arma_sort_index_helper_ascendIdEEEENS0_14_Val_comp_iterIT_EENS0_15_Iter_comp_iterIS6_EE
FNDA:0,_ZN9__gnu_cxx5__ops15__val_comp_iterIN4arma29arma_sort_index_helper_ascendIdEEEENS0_14_Val_comp_iterIT_EENS0_15_Iter_comp_iterIS6_EE
DA:135,0
DA:136,0
DA:137,0
DA:135,0
DA:136,0
DA:137,0
DA:142,0
DA:143,0
DA:142,0
DA:143,0
DA:149,0
DA:150,0
DA:149,0
DA:150,0
DA:169,0
DA:170,0
DA:171,0
DA:169,0
DA:170,0
DA:171,0
DA:176,0
DA:177,0
DA:176,0
DA:177,0
DA:207,0
DA:208,0
DA:209,0
DA:207,0
DA:208,0
DA:209,0
DA:214,0
DA:215,0
DA:214,0
DA:215,0
DA:225,0
DA:226,0
DA:225,0
DA:226,0
end_of_record
SF:/usr/include/c++/9/bits/basic_string.tcc
FN:206,_ZNSt7__cxx1112basic_stringIcSt11char_traitsIcESaIcEE12_M_constructIPcEEvT_S7_St20forward_iterator_tag
FNDA:0,_ZNSt7__cxx1112basic_stringIcSt11char_traitsIcESaIcEE12_M_constructIPcEEvT_S7_St20forward_iterator_tag
FN:206,_ZNSt7__cxx1112basic_stringIcSt11char_traitsIcESaIcEE12_M_constructIPKcEEvT_S8_St20forward_iterator_tag
FNDA:0,_ZNSt7__cxx1112basic_stringIcSt11char_traitsIcESaIcEE12_M_constructIPKcEEvT_S8_St20forward_iterator_tag
DA:206,0
DA:211,0
DA:212,0
DA:215,0
DA:217,0
DA:219,0
DA:220,0
DA:225,0
DA:226,0
DA:228,0
DA:229,0
DA:232,0
DA:233,0
DA:206,0
DA:211,0
DA:212,0
DA:215,0
DA:217,0
DA:219,0
DA:220,0
DA:225,0
DA:226,0
DA:228,0
DA:229,0
DA:232,0
DA:233,0
end_of_record
SF:/usr/include/armadillo_bits/Col_bones.hpp
end_of_record
SF:/usr/include/c++/9/bits/allocator.h
FN:137,_ZNSaIN4arma22arma_sort_index_packetIdEEEC2Ev
FNDA:0,_ZNSaIN4arma22arma_sort_index_packetIdEEEC2Ev
FN:140,_ZNSaIN4arma22arma_sort_index_packetIdEEEC2ERKS2_
FNDA:0,_ZNSaIN4arma22arma_sort_index_packetIdEEEC2ERKS2_
FN:152,_ZNSaIN4arma22arma_sort_index_packetIdEEED2Ev
FNDA:0,_ZNSaIN4arma22arma_sort_index_packetIdEEED2Ev
DA:137,0
DA:140,0
DA:141,0
DA:152,0
end_of_record
SF:/home/aca/Desktop/vs/2023_Analysis_sudoku/sudoku/altproj.cpp
FN:17,_Z3RC1RKN4arma4CubeIdEE
FNDA:0,_Z3RC1RKN4arma4CubeIdEE
FN:32,_Z3RC2RKN4arma4CubeIdEE
FNDA:0,_Z3RC2RKN4arma4CubeIdEE
FN:46,_Z3RC3RKN4arma4CubeIdEE
FNDA:0,_Z3RC3RKN4arma4CubeIdEE
FN:69,_Z3RC4RKN4arma4CubeIdEE
FNDA:0,_Z3RC4RKN4arma4CubeIdEE
FN:83,_Z3RC5RKN4arma4CubeIdEER5Board
FNDA:0,_Z3RC5RKN4arma4CubeIdEER5Board
FN:95,_Z10cube2BoardRKN4arma4CubeIdEE
FNDA:0,_Z10cube2BoardRKN4arma4CubeIdEE
FN:110,_Z2DRR5Board
FNDA:0,_Z2DRR5Board
DA:17,0
DA:19,0
DA:20,0
DA:21,0
DA:22,0
DA:23,0
DA:24,0
DA:25,0
DA:26,0
DA:28,0
DA:32,0
DA:33,0
DA:34,0
DA:35,0
DA:36,0
DA:37,0
DA:38,0
DA:39,0
DA:40,0
DA:42,0
DA:46,0
DA:47,0
DA:48,0
DA:50,0
DA:51,0
DA:52,0
DA:53,0
DA:54,0
DA:55,0
DA:58,0
DA:59,0
DA:60,0
DA:61,0
DA:62,0
DA:63,0
DA:65,0
DA:69,0
DA:70,0
DA:71,0
DA:72,0
DA:73,0
DA:74,0
DA:75,0
DA:76,0
DA:77,0
DA:79,0
DA:83,0
DA:84,0
DA:85,0
DA:86,0
DA:87,0
DA:88,0
DA:89,0
DA:90,0
DA:95,0
DA:96,0
DA:97,0
DA:99,0
DA:100,0
DA:101,0
DA:102,0
DA:103,0
DA:104,0
DA:106,0
DA:110,0
DA:111,0
DA:113,0
DA:114,0
DA:115,0
DA:118,0
DA:120,0
DA:123,0
DA:124,0
DA:125,0
DA:126,0
DA:127,0
DA:129,0
DA:134,0
DA:135,0
DA:136,0
DA:137,0
DA:138,0
DA:141,0
end_of_record
SF:/home/aca/Desktop/vs/2023_Analysis_sudoku/sudoku/solver.hpp
FN:23,_ZN5BoardC2Ei
FNDA:0,_ZN5BoardC2Ei
FN:59,_ZN5BoardD2Ev
FNDA:0,_ZN5BoardD2Ev
FN:83,_ZN5BoardclEii
FNDA:0,_ZN5BoardclEii
FN:111,_ZN5Board7getSizeEv
FNDA:0,_ZN5Board7getSizeEv
DA:23,0
DA:26,0
DA:27,0
DA:28,0
DA:30,0
DA:31,0
DA:32,0
DA:35,0
DA:36,0
DA:37,0
DA:40,0
DA:41,0
DA:42,0
DA:47,0
DA:48,0
DA:49,0
DA:52,0
DA:53,0
DA:54,0
DA:56,0
DA:59,0
DA:60,0
DA:61,0
DA:63,0
DA:65,0
DA:66,0
DA:68,0
DA:70,0
DA:71,0
DA:73,0
DA:74,0
DA:83,0
DA:84,0
DA:85,0
DA:111,0
DA:112,0
end_of_record
SF:/usr/include/armadillo_bits/constants.hpp
FN:30,_ZN4arma4priv12Datum_helper3nanIdEENS_14arma_real_onlyIT_E6resultEPS6_
FNDA:0,_ZN4arma4priv12Datum_helper3nanIdEENS_14arma_real_onlyIT_E6resultEPS6_
FN:61,_ZN4arma4priv12Datum_helper3nanIyEENS_18arma_integral_onlyIT_E6resultEPS6_
FNDA:1,_ZN4arma4priv12Datum_helper3nanIyEENS_18arma_integral_onlyIT_E6resultEPS6_
FN:61,_ZN4arma4priv12Datum_helper3nanIxEENS_18arma_integral_onlyIT_E6resultEPS6_
FNDA:0,_ZN4arma4priv12Datum_helper3nanIxEENS_18arma_integral_onlyIT_E6resultEPS6_
DA:30,0
DA:36,0
DA:61,1
DA:65,1
DA:61,0
DA:65,0
DA:239,0
end_of_record
SF:/usr/include/armadillo_bits/arrayops_meat.hpp
FN:51,_ZN4arma8arrayops10copy_smallIyEEvPT_PKS2_y
FNDA:0,_ZN4arma8arrayops10copy_smallIyEEvPT_PKS2_y
FN:51,_ZN4arma8arrayops10copy_smallIdEEvPT_PKS2_y
FNDA:0,_ZN4arma8arrayops10copy_smallIdEEvPT_PKS2_y
FN:83,_ZN4arma8arrayops10fill_zerosIdEEvPT_y
FNDA:0,_ZN4arma8arrayops10fill_zerosIdEEvPT_y
FN:596,_ZN4arma8arrayops11inplace_setIyEEvPT_S2_y
FNDA:0,_ZN4arma8arrayops11inplace_setIyEEvPT_S2_y
FN:596,_ZN4arma8arrayops11inplace_setIdEEvPT_S2_y
FNDA:0,_ZN4arma8arrayops11inplace_setIdEEvPT_S2_y
FN:632,_ZN4arma8arrayops16inplace_set_baseIyEEvPT_S2_y
FNDA:0,_ZN4arma8arrayops16inplace_set_baseIyEEvPT_S2_y
FN:632,_ZN4arma8arrayops16inplace_set_baseIdEEvPT_S2_y
FNDA:0,_ZN4arma8arrayops16inplace_set_baseIdEEvPT_S2_y
FN:665,_ZN4arma8arrayops17inplace_set_smallIyEEvPT_S2_y
FNDA:0,_ZN4arma8arrayops17inplace_set_smallIyEEvPT_S2_y
FN:665,_ZN4arma8arrayops17inplace_set_smallIdEEvPT_S2_y
FNDA:0,_ZN4arma8arrayops17inplace_set_smallIdEEvPT_S2_y
DA:30,0
DA:32,0
DA:36,0
DA:43,0
DA:51,0
DA:53,0
DA:55,0
DA:57,0
DA:59,0
DA:61,0
DA:63,0
DA:65,0
DA:67,0
DA:69,0
DA:71,0
DA:73,0
DA:75,0
DA:51,0
DA:53,0
DA:55,0
DA:57,0
DA:59,0
DA:61,0
DA:63,0
DA:65,0
DA:67,0
DA:69,0
DA:71,0
DA:73,0
DA:75,0
DA:83,0
DA:85,0
DA:86,0
DA:596,0
DA:600,0
DA:602,0
DA:606,0
DA:608,0
DA:612,0
DA:616,0
DA:620,0
DA:624,0
DA:596,0
DA:600,0
DA:602,0
DA:606,0
DA:608,0
DA:612,0
DA:616,0
DA:620,0
DA:624,0
DA:632,0
DA:645,0
DA:647,0
DA:648,0
DA:651,0
DA:653,0
DA:657,0
DA:632,0
DA:645,0
DA:647,0
DA:648,0
DA:651,0
DA:653,0
DA:657,0
DA:665,0
DA:667,0
DA:669,0
DA:671,0
DA:673,0
DA:675,0
DA:677,0
DA:679,0
DA:681,0
DA:683,0
DA:685,0
DA:687,0
DA:689,0
DA:665,0
DA:667,0
DA:669,0
DA:671,0
DA:673,0
DA:675,0
DA:677,0
DA:679,0
DA:681,0
DA:683,0
DA:685,0
DA:687,0
DA:689,0
end_of_record
SF:/usr/include/c++/9/bits/alloc_traits.h
FN:442,_ZNSt16allocator_traitsISaIN4arma22arma_sort_index_packetIdEEEE8allocateERS3_m
FNDA:0,_ZNSt16allocator_traitsISaIN4arma22arma_sort_index_packetIdEEEE8allocateERS3_m
FN:468,_ZNSt16allocator_traitsISaIN4arma22arma_sort_index_packetIdEEEE10deallocateERS3_PS2_m
FNDA:0,_ZNSt16allocator_traitsISaIN4arma22arma_sort_index_packetIdEEEE10deallocateERS3_PS2_m
FN:504,_ZNSt16allocator_traitsISaIN4arma22arma_sort_index_packetIdEEEE8max_sizeERKS3_
FNDA:0,_ZNSt16allocator_traitsISaIN4arma22arma_sort_index_packetIdEEEE8max_sizeERKS3_
FN:513,_ZNSt16allocator_traitsISaIcEE37select_on_container_copy_constructionERKS0_
FNDA:0,_ZNSt16allocator_traitsISaIcEE37select_on_container_copy_constructionERKS0_
DA:442,0
DA:443,0
DA:468,0
DA:469,0
DA:504,0
DA:505,0
DA:513,0
DA:514,0
end_of_record
SF:/usr/include/armadillo_bits/operator_plus.hpp
DA:45,0
DA:59,0
end_of_record
SF:/usr/include/armadillo_bits/eOp_meat.hpp
FN:34,_ZN4arma3eOpINS0_INS0_INS0_INS_3ColIyEENS_16eop_scalar_timesEEES3_EENS_15eop_scalar_plusEEES6_EC2ERKS7_y
FNDA:0,_ZN4arma3eOpINS0_INS0_INS0_INS_3ColIyEENS_16eop_scalar_timesEEES3_EENS_15eop_scalar_plusEEES6_EC2ERKS7_y
FN:34,_ZN4arma3eOpINS0_INS0_INS_3ColIyEENS_16eop_scalar_timesEEES3_EENS_15eop_scalar_plusEEC2ERKS5_y
FNDA:0,_ZN4arma3eOpINS0_INS0_INS_3ColIyEENS_16eop_scalar_timesEEES3_EENS_15eop_scalar_plusEEC2ERKS5_y
FN:34,_ZN4arma3eOpINS0_INS_3ColIyEENS_16eop_scalar_timesEEES3_EC2ERKS4_y
FNDA:0,_ZN4arma3eOpINS0_INS_3ColIyEENS_16eop_scalar_timesEEES3_EC2ERKS4_y
FN:34,_ZN4arma3eOpINS_3ColIyEENS_15eop_scalar_plusEEC2ERKS2_y
FNDA:0,_ZN4arma3eOpINS_3ColIyEENS_15eop_scalar_plusEEC2ERKS2_y
FN:34,_ZN4arma3eOpINS0_INS0_INS_3ColIyEENS_16eop_scalar_timesEEENS_15eop_scalar_plusEEES5_EC2ERKS6_y
FNDA:0,_ZN4arma3eOpINS0_INS0_INS_3ColIyEENS_16eop_scalar_timesEEENS_15eop_scalar_plusEEES5_EC2ERKS6_y
FN:34,_ZN4arma3eOpINS0_INS_3ColIyEENS_16eop_scalar_timesEEENS_15eop_scalar_plusEEC2ERKS4_y
FNDA:0,_ZN4arma3eOpINS0_INS_3ColIyEENS_16eop_scalar_timesEEENS_15eop_scalar_plusEEC2ERKS4_y
FN:34,_ZN4arma3eOpINS_3ColIyEENS_16eop_scalar_timesEEC2ERKS2_y
FNDA:0,_ZN4arma3eOpINS_3ColIyEENS_16eop_scalar_timesEEC2ERKS2_y
FN:70,_ZN4arma3eOpINS0_INS0_INS0_INS_3ColIyEENS_16eop_scalar_timesEEES3_EENS_15eop_scalar_plusEEES6_ED2Ev
FNDA:0,_ZN4arma3eOpINS0_INS0_INS0_INS_3ColIyEENS_16eop_scalar_timesEEES3_EENS_15eop_scalar_plusEEES6_ED2Ev
FN:70,_ZN4arma3eOpINS0_INS0_INS_3ColIyEENS_16eop_scalar_timesEEES3_EENS_15eop_scalar_plusEED2Ev
FNDA:0,_ZN4arma3eOpINS0_INS0_INS_3ColIyEENS_16eop_scalar_timesEEES3_EENS_15eop_scalar_plusEED2Ev
FN:70,_ZN4arma3eOpINS0_INS_3ColIyEENS_16eop_scalar_timesEEES3_ED2Ev
FNDA:0,_ZN4arma3eOpINS0_INS_3ColIyEENS_16eop_scalar_timesEEES3_ED2Ev
FN:70,_ZN4arma3eOpINS_3ColIyEENS_15eop_scalar_plusEED2Ev
FNDA:0,_ZN4arma3eOpINS_3ColIyEENS_15eop_scalar_plusEED2Ev
FN:70,_ZN4arma3eOpINS0_INS0_INS_3ColIyEENS_16eop_scalar_timesEEENS_15eop_scalar_plusEEES5_ED2Ev
FNDA:0,_ZN4arma3eOpINS0_INS0_INS_3ColIyEENS_16eop_scalar_timesEEENS_15eop_scalar_plusEEES5_ED2Ev
FN:70,_ZN4arma3eOpINS0_INS_3ColIyEENS_16eop_scalar_timesEEENS_15eop_scalar_plusEED2Ev
FNDA:0,_ZN4arma3eOpINS0_INS_3ColIyEENS_16eop_scalar_timesEEENS_15eop_scalar_plusEED2Ev
FN:70,_ZN4arma3eOpINS_3ColIyEENS_16eop_scalar_timesEED2Ev
FNDA:0,_ZN4arma3eOpINS_3ColIyEENS_16eop_scalar_timesEED2Ev
DA:34,0
DA:36,0
DA:39,0
DA:34,0
DA:36,0
DA:39,0
DA:34,0
DA:36,0
DA:39,0
DA:34,0
DA:36,0
DA:39,0
DA:34,0
DA:36,0
DA:39,0
DA:34,0
DA:36,0
DA:39,0
DA:34,0
DA:36,0
DA:39,0
DA:70,0
DA:73,0
DA:70,0
DA:73,0
DA:70,0
DA:73,0
DA:70,0
DA:73,0
DA:70,0
DA:73,0
DA:70,0
DA:73,0
DA:70,0
DA:73,0
DA:82,0
DA:92,0
DA:102,0
DA:112,0
DA:144,0
end_of_record
SF:/usr/include/armadillo_bits/operator_cube_minus.hpp
DA:118,0
end_of_record
SF:/usr/include/c++/9/cmath
FN:475,_ZSt4sqrtIiEN9__gnu_cxx11__enable_ifIXsrSt12__is_integerIT_E7__valueEdE6__typeES3_
FNDA:0,_ZSt4sqrtIiEN9__gnu_cxx11__enable_ifIXsrSt12__is_integerIT_E7__valueEdE6__typeES3_
FN:619,_ZSt5isnand
FNDA:0,_ZSt5isnand
DA:475,0
DA:476,0
DA:619,0
DA:620,0
end_of_record
SF:/usr/include/armadillo_bits/fn_misc.hpp
FN:31,_ZN4arma8linspaceINS_3ColIyEEEENS_10enable_if2IXsrNS_6is_MatIT_EE5valueES5_E6resultENS5_8pod_typeES9_y
FNDA:0,_ZN4arma8linspaceINS_3ColIyEEEENS_10enable_if2IXsrNS_6is_MatIT_EE5valueES5_E6resultENS5_8pod_typeES9_y
DA:31,0
DA:43,0
DA:45,0
DA:47,0
DA:49,0
DA:52,0
DA:54,0
DA:56,0
DA:58,0
DA:73,0
DA:75,0
DA:77,0
DA:80,0
DA:84,0
end_of_record
SF:/usr/include/armadillo_bits/Proxy.hpp
FN:168,_ZN4arma5ProxyINS_3MatIyEEEC2ERKS2_
FNDA:0,_ZN4arma5ProxyINS_3MatIyEEEC2ERKS2_
FN:218,_ZN4arma5ProxyINS_3ColIyEEEC2ERKS2_
FNDA:0,_ZN4arma5ProxyINS_3ColIyEEEC2ERKS2_
FN:468,_ZN4arma5ProxyINS_3eOpINS_3ColIyEENS_15eop_scalar_plusEEEEC2ERKS5_
FNDA:0,_ZN4arma5ProxyINS_3eOpINS_3ColIyEENS_15eop_scalar_plusEEEEC2ERKS5_
FN:468,_ZN4arma5ProxyINS_3eOpINS1_INS1_INS_3ColIyEENS_16eop_scalar_timesEEES4_EENS_15eop_scalar_plusEEEEC2ERKS8_
FNDA:0,_ZN4arma5ProxyINS_3eOpINS1_INS1_INS_3ColIyEENS_16eop_scalar_timesEEES4_EENS_15eop_scalar_plusEEEEC2ERKS8_
FN:468,_ZN4arma5ProxyINS_3eOpINS1_INS_3ColIyEENS_16eop_scalar_timesEEES4_EEEC2ERKS6_
FNDA:0,_ZN4arma5ProxyINS_3eOpINS1_INS_3ColIyEENS_16eop_scalar_timesEEES4_EEEC2ERKS6_
FN:468,_ZN4arma5ProxyINS_3eOpINS1_INS_3ColIyEENS_16eop_scalar_timesEEENS_15eop_scalar_plusEEEEC2ERKS7_
FNDA:0,_ZN4arma5ProxyINS_3eOpINS1_INS_3ColIyEENS_16eop_scalar_timesEEENS_15eop_scalar_plusEEEEC2ERKS7_
FN:468,_ZN4arma5ProxyINS_3eOpINS_3ColIyEENS_16eop_scalar_timesEEEEC2ERKS5_
FNDA:0,_ZN4arma5ProxyINS_3eOpINS_3ColIyEENS_16eop_scalar_timesEEEEC2ERKS5_
FN:1123,_ZN4arma5ProxyINS_13subview_elem1IdNS_3eOpINS_3ColIyEENS_15eop_scalar_plusEEEEEEC2ERKS7_
FNDA:0,_ZN4arma5ProxyINS_13subview_elem1IdNS_3eOpINS_3ColIyEENS_15eop_scalar_plusEEEEEEC2ERKS7_
FN:1123,_ZN4arma5ProxyINS_13subview_elem1IdNS_3MatIyEEEEEC2ERKS4_
FNDA:0,_ZN4arma5ProxyINS_13subview_elem1IdNS_3MatIyEEEEEC2ERKS4_
DA:168,0
DA:169,0
DA:172,0
DA:174,0
DA:175,0
DA:176,0
DA:178,0
DA:186,0
DA:218,0
DA:219,0
DA:222,0
DA:224,0
DA:226,0
DA:228,0
DA:230,0
DA:232,0
DA:233,0
DA:236,0
DA:241,0
DA:468,0
DA:469,0
DA:472,0
DA:468,0
DA:469,0
DA:472,0
DA:468,0
DA:469,0
DA:472,0
DA:468,0
DA:469,0
DA:472,0
DA:468,0
DA:469,0
DA:472,0
DA:474,0
DA:475,0
DA:476,0
DA:478,0
DA:480,0
DA:482,0
DA:483,0
DA:486,0
DA:491,0
DA:1123,0
DA:1125,0
DA:1129,0
DA:1130,0
DA:1132,0
DA:1133,0
DA:1123,0
DA:1125,0
DA:1129,0
DA:1130,0
DA:1132,0
DA:1133,0
DA:1137,0
DA:1139,0
DA:1147,0
end_of_record
SF:/usr/include/armadillo_bits/mtOp_meat.hpp
FN:45,_ZN4arma4mtOpIyNS_13subview_elem1IdNS_3eOpINS_3ColIyEENS_15eop_scalar_plusEEEEENS_13op_sort_indexEEC2ERKS7_yy
FNDA:0,_ZN4arma4mtOpIyNS_13subview_elem1IdNS_3eOpINS_3ColIyEENS_15eop_scalar_plusEEEEENS_13op_sort_indexEEC2ERKS7_yy
FN:45,_ZN4arma4mtOpIyNS_13subview_elem1IdNS_3MatIyEEEENS_13op_sort_indexEEC2ERKS4_yy
FNDA:0,_ZN4arma4mtOpIyNS_13subview_elem1IdNS_3MatIyEEEENS_13op_sort_indexEEC2ERKS4_yy
FN:95,_ZN4arma4mtOpIyNS_13subview_elem1IdNS_3eOpINS_3ColIyEENS_15eop_scalar_plusEEEEENS_13op_sort_indexEED2Ev
FNDA:0,_ZN4arma4mtOpIyNS_13subview_elem1IdNS_3eOpINS_3ColIyEENS_15eop_scalar_plusEEEEENS_13op_sort_indexEED2Ev
FN:95,_ZN4arma4mtOpIyNS_13subview_elem1IdNS_3MatIyEEEENS_13op_sort_indexEED2Ev
FNDA:0,_ZN4arma4mtOpIyNS_13subview_elem1IdNS_3MatIyEEEENS_13op_sort_indexEED2Ev
DA:45,0
DA:48,0
DA:51,0
DA:45,0
DA:48,0
DA:51,0
DA:95,0
DA:98,0
DA:95,0
DA:98,0
end_of_record
TN:
SF:/usr/include/c++/9/new
FN:57,_ZNSt9bad_allocC2Ev
FNDA:0,_ZNSt9bad_allocC2Ev
DA:57,0
end_of_record
SF:/usr/include/c++/9/ext/alloc_traits.h
FN:97,_ZN9__gnu_cxx14__alloc_traitsISaIcEcE17_S_select_on_copyERKS1_
FNDA:0,_ZN9__gnu_cxx14__alloc_traitsISaIcEcE17_S_select_on_copyERKS1_
DA:97,0
DA:98,0
end_of_record
SF:/usr/include/armadillo_bits/gmm_misc_bones.hpp
FN:21,_ZN4arma13gmm_dist_modeC2Ey
FNDA:0,_ZN4arma13gmm_dist_modeC2Ey
FN:26,_ZN4arma13gmm_dist_euclC2Ev
FNDA:0,_ZN4arma13gmm_dist_euclC2Ev
FN:27,_ZN4arma13gmm_dist_mahaC2Ev
FNDA:0,_ZN4arma13gmm_dist_mahaC2Ev
FN:28,_ZN4arma13gmm_dist_probC2Ev
FNDA:0,_ZN4arma13gmm_dist_probC2Ev
FN:36,_ZN4arma13gmm_seed_modeC2Ey
FNDA:0,_ZN4arma13gmm_seed_modeC2Ey
FN:41,_ZN4arma22gmm_seed_keep_existingC2Ev
FNDA:0,_ZN4arma22gmm_seed_keep_existingC2Ev
FN:42,_ZN4arma22gmm_seed_static_subsetC2Ev
FNDA:0,_ZN4arma22gmm_seed_static_subsetC2Ev
FN:43,_ZN4arma22gmm_seed_static_spreadC2Ev
FNDA:0,_ZN4arma22gmm_seed_static_spreadC2Ev
FN:44,_ZN4arma22gmm_seed_random_subsetC2Ev
FNDA:0,_ZN4arma22gmm_seed_random_subsetC2Ev
FN:45,_ZN4arma22gmm_seed_random_spreadC2Ev
FNDA:0,_ZN4arma22gmm_seed_random_spreadC2Ev
DA:21,0
DA:26,0
DA:27,0
DA:28,0
DA:36,0
DA:41,0
DA:42,0
DA:43,0
DA:44,0
DA:45,0
end_of_record
SF:/usr/include/c++/9/bits/stl_iterator_base_types.h
FN:205,_ZSt19__iterator_categoryIPcENSt15iterator_traitsIT_E17iterator_categoryERKS2_
FNDA:0,_ZSt19__iterator_categoryIPcENSt15iterator_traitsIT_E17iterator_categoryERKS2_
FN:205,_ZSt19__iterator_categoryIPKcENSt15iterator_traitsIT_E17iterator_categoryERKS3_
FNDA:0,_ZSt19__iterator_categoryIPKcENSt15iterator_traitsIT_E17iterator_categoryERKS3_
DA:205,0
DA:206,0
DA:205,0
DA:206,0
end_of_record
SF:/usr/include/c++/9/bits/move.h
FN:99,_ZSt4moveIRSaIcEEONSt16remove_referenceIT_E4typeEOS3_
FNDA:0,_ZSt4moveIRSaIcEEONSt16remove_referenceIT_E4typeEOS3_
DA:99,0
DA:100,0
end_of_record
SF:/usr/include/c++/9/bits/basic_string.tcc
FN:206,_ZNSt7__cxx1112basic_stringIcSt11char_traitsIcESaIcEE12_M_constructIPcEEvT_S7_St20forward_iterator_tag
FNDA:0,_ZNSt7__cxx1112basic_stringIcSt11char_traitsIcESaIcEE12_M_constructIPcEEvT_S7_St20forward_iterator_tag
FN:206,_ZNSt7__cxx1112basic_stringIcSt11char_traitsIcESaIcEE12_M_constructIPKcEEvT_S8_St20forward_iterator_tag
FNDA:0,_ZNSt7__cxx1112basic_stringIcSt11char_traitsIcESaIcEE12_M_constructIPKcEEvT_S8_St20forward_iterator_tag
DA:206,0
DA:211,0
DA:212,0
DA:215,0
DA:217,0
DA:219,0
DA:220,0
DA:225,0
DA:226,0
DA:228,0
DA:229,0
DA:232,0
DA:233,0
DA:206,0
DA:211,0
DA:212,0
DA:215,0
DA:217,0
DA:219,0
DA:220,0
DA:225,0
DA:226,0
DA:228,0
DA:229,0
DA:232,0
DA:233,0
end_of_record
SF:/usr/include/armadillo_bits/debug.hpp
FN:39,_ZN4arma16arma_cerr_streamIcEERSoPSo
FNDA:0,_ZN4arma16arma_cerr_streamIcEERSoPSo
FN:79,_ZN4arma15get_cerr_streamEv
FNDA:0,_ZN4arma15get_cerr_streamEv
FN:136,_ZN4armaL21arma_stop_logic_errorINSt7__cxx1112basic_stringIcSt11char_traitsIcESaIcEEEEEvRKT_
FNDA:0,_ZN4armaL21arma_stop_logic_errorINSt7__cxx1112basic_stringIcSt11char_traitsIcESaIcEEEEEvRKT_
FN:136,_ZN4armaL21arma_stop_logic_errorIPKcEEvRKT_
FNDA:0,_ZN4armaL21arma_stop_logic_errorIPKcEEvRKT_
FN:155,_ZN4armaL19arma_stop_bad_allocIA29_cEEvRKT_
FNDA:0,_ZN4armaL19arma_stop_bad_allocIA29_cEEvRKT_
FN:155,_ZN4armaL19arma_stop_bad_allocIA39_cEEvRKT_
FNDA:0,_ZN4armaL19arma_stop_bad_allocIA39_cEEvRKT_
FN:155,_ZN4armaL19arma_stop_bad_allocIA24_cEEvRKT_
FNDA:0,_ZN4armaL19arma_stop_bad_allocIA24_cEEvRKT_
FN:155,_ZN4armaL19arma_stop_bad_allocIA34_cEEvRKT_
FNDA:0,_ZN4armaL19arma_stop_bad_allocIA34_cEEvRKT_
FN:178,_ZN4armaL23arma_stop_runtime_errorIA49_cEEvRKT_
FNDA:0,_ZN4armaL23arma_stop_runtime_errorIA49_cEEvRKT_
FN:209,_ZN4armaL10arma_printIA31_cEEvRKT_
FNDA:0,_ZN4armaL10arma_printIA31_cEEvRKT_
FN:209,_ZN4armaL10arma_printIA33_cEEvRKT_
FNDA:0,_ZN4armaL10arma_printIA33_cEEvRKT_
FN:209,_ZN4armaL10arma_printIA28_cEEvRKT_
FNDA:0,_ZN4armaL10arma_printIA28_cEEvRKT_
FN:209,_ZN4armaL10arma_printIA46_cEEvRKT_
FNDA:0,_ZN4armaL10arma_printIA46_cEEvRKT_
FN:209,_ZN4armaL10arma_printIA30_cEEvRKT_
FNDA:0,_ZN4armaL10arma_printIA30_cEEvRKT_
FN:209,_ZN4armaL10arma_printIA32_cEEvRKT_
FNDA:0,_ZN4armaL10arma_printIA32_cEEvRKT_
FN:209,_ZN4armaL10arma_printIA27_cEEvRKT_
FNDA:0,_ZN4armaL10arma_printIA27_cEEvRKT_
FN:209,_ZN4armaL10arma_printIA29_cEEvRKT_
FNDA:0,_ZN4armaL10arma_printIA29_cEEvRKT_
FN:316,_ZN4armaL9arma_warnINSt7__cxx1112basic_stringIcSt11char_traitsIcESaIcEEEEEvRKT_
FNDA:0,_ZN4armaL9arma_warnINSt7__cxx1112basic_stringIcSt11char_traitsIcESaIcEEEEEvRKT_
FN:433,_ZN4armaL25arma_incompat_size_stringEyyyyPKc
FNDA:0,_ZN4armaL25arma_incompat_size_stringEyyyyPKc
FN:448,_ZN4armaL25arma_incompat_size_stringEyyyyyyPKc
FNDA:0,_ZN4armaL25arma_incompat_size_stringEyyyyyyPKc
DA:39,0
DA:43,0
DA:45,0
DA:79,0
DA:81,0
DA:136,0
DA:140,0
DA:144,0
DA:136,0
DA:140,0
DA:144,0
DA:155,0
DA:159,0
DA:167,0
DA:155,0
DA:159,0
DA:167,0
DA:155,0
DA:159,0
DA:167,0
DA:155,0
DA:159,0
DA:167,0
DA:178,0
DA:182,0
DA:186,0
DA:209,0
DA:211,0
DA:212,0
DA:209,0
DA:211,0
DA:212,0
DA:209,0
DA:211,0
DA:212,0
DA:209,0
DA:211,0
DA:212,0
DA:209,0
DA:211,0
DA:212,0
DA:209,0
DA:211,0
DA:212,0
DA:209,0
DA:211,0
DA:212,0
DA:209,0
DA:211,0
DA:212,0
DA:316,0
DA:320,0
DA:327,0
DA:433,0
DA:435,0
DA:437,0
DA:439,0
DA:448,0
DA:450,0
DA:452,0
DA:454,0
end_of_record
SF:/usr/include/c++/9/bits/alloc_traits.h
FN:513,_ZNSt16allocator_traitsISaIcEE37select_on_container_copy_constructionERKS0_
FNDA:0,_ZNSt16allocator_traitsISaIcEE37select_on_container_copy_constructionERKS0_
DA:513,0
DA:514,0
end_of_record
SF:/home/aca/Desktop/vs/2023_Analysis_sudoku/sudoku/main.cpp
FN:17,main
FNDA:1,main
DA:17,1
DA:20,1
DA:21,1
DA:22,1
DA:23,1
DA:24,2
DA:27,1
DA:28,0
DA:30,0
DA:31,0
DA:32,0
DA:33,0
DA:35,0
DA:36,0
DA:40,0
DA:41,0
DA:43,0
DA:44,0
DA:45,0
DA:46,0
DA:48,0
DA:49,0
DA:53,0
DA:55,0
DA:56,0
DA:57,0
DA:58,0
DA:60,0
DA:61,0
DA:65,0
DA:66,0
DA:68,0
DA:69,0
DA:70,0
DA:71,0
DA:73,0
DA:74,0
DA:78,0
DA:79,0
DA:80,0
DA:83,0
DA:84,0
DA:88,1
DA:91,1
DA:92,1
DA:93,1
DA:96,1
DA:97,1
DA:99,0
DA:102,1
end_of_record
SF:/usr/include/armadillo_bits/constants.hpp
FN:30,_ZN4arma4priv12Datum_helper3nanIdEENS_14arma_real_onlyIT_E6resultEPS6_
FNDA:0,_ZN4arma4priv12Datum_helper3nanIdEENS_14arma_real_onlyIT_E6resultEPS6_
FN:61,_ZN4arma4priv12Datum_helper3nanIxEENS_18arma_integral_onlyIT_E6resultEPS6_
FNDA:0,_ZN4arma4priv12Datum_helper3nanIxEENS_18arma_integral_onlyIT_E6resultEPS6_
DA:30,0
DA:36,0
DA:61,0
DA:65,0
end_of_record
SF:/usr/include/c++/9/iostream
end_of_record
SF:/usr/include/c++/9/bits/exception.h
FN:63,_ZNSt9exceptionC2Ev
FNDA:0,_ZNSt9exceptionC2Ev
DA:63,0
end_of_record
SF:/usr/include/c++/9/ext/new_allocator.h
FN:80,_ZN9__gnu_cxx13new_allocatorIcEC2Ev
FNDA:0,_ZN9__gnu_cxx13new_allocatorIcEC2Ev
FN:83,_ZN9__gnu_cxx13new_allocatorIcEC2ERKS1_
FNDA:0,_ZN9__gnu_cxx13new_allocatorIcEC2ERKS1_
FN:89,_ZN9__gnu_cxx13new_allocatorIcED2Ev
FNDA:0,_ZN9__gnu_cxx13new_allocatorIcED2Ev
DA:80,0
DA:83,0
DA:89,0
end_of_record
SF:/usr/include/c++/9/bits/char_traits.h
FN:336,_ZNSt11char_traitsIcE6lengthEPKc
FNDA:0,_ZNSt11char_traitsIcE6lengthEPKc
DA:336,0
DA:342,0
end_of_record
SF:/usr/include/c++/9/bits/stl_iterator_base_funcs.h
FN:98,_ZSt10__distanceIPcENSt15iterator_traitsIT_E15difference_typeES2_S2_St26random_access_iterator_tag
FNDA:0,_ZSt10__distanceIPcENSt15iterator_traitsIT_E15difference_typeES2_S2_St26random_access_iterator_tag
FN:98,_ZSt10__distanceIPKcENSt15iterator_traitsIT_E15difference_typeES3_S3_St26random_access_iterator_tag
FNDA:0,_ZSt10__distanceIPKcENSt15iterator_traitsIT_E15difference_typeES3_S3_St26random_access_iterator_tag
FN:138,_ZSt8distanceIPcENSt15iterator_traitsIT_E15difference_typeES2_S2_
FNDA:0,_ZSt8distanceIPcENSt15iterator_traitsIT_E15difference_typeES2_S2_
FN:138,_ZSt8distanceIPKcENSt15iterator_traitsIT_E15difference_typeES3_S3_
FNDA:0,_ZSt8distanceIPKcENSt15iterator_traitsIT_E15difference_typeES3_S3_
DA:98,0
DA:104,0
DA:98,0
DA:104,0
DA:138,0
DA:141,0
DA:142,0
DA:138,0
DA:141,0
DA:142,0
end_of_record
SF:/usr/include/armadillo_bits/arma_forward.hpp
FN:379,_ZN4arma9hdf5_opts4optsC2Ej
FNDA:0,_ZN4arma9hdf5_opts4optsC2Ej
FN:400,_ZN4arma9hdf5_opts9opts_noneC2Ev
FNDA:0,_ZN4arma9hdf5_opts9opts_noneC2Ev
FN:401,_ZN4arma9hdf5_opts10opts_transC2Ev
FNDA:0,_ZN4arma9hdf5_opts10opts_transC2Ev
FN:402,_ZN4arma9hdf5_opts11opts_appendC2Ev
FNDA:0,_ZN4arma9hdf5_opts11opts_appendC2Ev
FN:403,_ZN4arma9hdf5_opts12opts_replaceC2Ev
FNDA:0,_ZN4arma9hdf5_opts12opts_replaceC2Ev
FN:451,_ZN4arma4fill10fill_classINS0_10fill_randnEEC2Ev
FNDA:0,_ZN4arma4fill10fill_classINS0_10fill_randnEEC2Ev
FN:451,_ZN4arma4fill10fill_classINS0_10fill_randuEEC2Ev
FNDA:0,_ZN4arma4fill10fill_classINS0_10fill_randuEEC2Ev
FN:451,_ZN4arma4fill10fill_classINS0_8fill_eyeEEC2Ev
FNDA:0,_ZN4arma4fill10fill_classINS0_8fill_eyeEEC2Ev
FN:451,_ZN4arma4fill10fill_classINS0_9fill_onesEEC2Ev
FNDA:0,_ZN4arma4fill10fill_classINS0_9fill_onesEEC2Ev
FN:451,_ZN4arma4fill10fill_classINS0_10fill_zerosEEC2Ev
FNDA:0,_ZN4arma4fill10fill_classINS0_10fill_zerosEEC2Ev
FN:451,_ZN4arma4fill10fill_classINS0_9fill_noneEEC2Ev
FNDA:0,_ZN4arma4fill10fill_classINS0_9fill_noneEEC2Ev
DA:379,0
DA:380,0
DA:381,0
DA:400,0
DA:401,0
DA:402,0
DA:403,0
DA:451,0
DA:451,0
DA:451,0
DA:451,0
DA:451,0
DA:451,0
end_of_record
SF:/usr/include/c++/9/limits
FN:1784,_ZNSt14numeric_limitsIdE9quiet_NaNEv
FNDA:0,_ZNSt14numeric_limitsIdE9quiet_NaNEv
DA:1784,0
end_of_record
SF:/usr/include/c++/9/bits/basic_string.h
FN:247,_ZNSt7__cxx1112basic_stringIcSt11char_traitsIcESaIcEE16_M_construct_auxIPcEEvT_S7_St12__false_type
FNDA:0,_ZNSt7__cxx1112basic_stringIcSt11char_traitsIcESaIcEE16_M_construct_auxIPcEEvT_S7_St12__false_type
FN:247,_ZNSt7__cxx1112basic_stringIcSt11char_traitsIcESaIcEE16_M_construct_auxIPKcEEvT_S8_St12__false_type
FNDA:0,_ZNSt7__cxx1112basic_stringIcSt11char_traitsIcESaIcEE16_M_construct_auxIPKcEEvT_S8_St12__false_type
FN:267,_ZNSt7__cxx1112basic_stringIcSt11char_traitsIcESaIcEE12_M_constructIPcEEvT_S7_
FNDA:0,_ZNSt7__cxx1112basic_stringIcSt11char_traitsIcESaIcEE12_M_constructIPcEEvT_S7_
FN:267,_ZNSt7__cxx1112basic_stringIcSt11char_traitsIcESaIcEE12_M_constructIPKcEEvT_S8_
FNDA:0,_ZNSt7__cxx1112basic_stringIcSt11char_traitsIcESaIcEE12_M_constructIPKcEEvT_S8_
FN:6178,_ZSteqIcSt11char_traitsIcESaIcEEbRKNSt7__cxx1112basic_stringIT_T0_T1_EEPKS5_
FNDA:0,_ZSteqIcSt11char_traitsIcESaIcEEbRKNSt7__cxx1112basic_stringIT_T0_T1_EEPKS5_
DA:247,0
DA:251,0
DA:252,0
DA:247,0
DA:251,0
DA:252,0
DA:267,0
DA:270,0
DA:271,0
DA:267,0
DA:270,0
DA:271,0
DA:6178,0
DA:6180,0
end_of_record
SF:/usr/include/armadillo_bits/glue_solve_bones.hpp
FN:92,_ZN4arma10solve_opts4optsC2Ey
FNDA:0,_ZN4arma10solve_opts4optsC2Ey
FN:121,_ZN4arma10solve_opts9opts_noneC2Ev
FNDA:0,_ZN4arma10solve_opts9opts_noneC2Ev
FN:122,_ZN4arma10solve_opts9opts_fastC2Ev
FNDA:0,_ZN4arma10solve_opts9opts_fastC2Ev
FN:123,_ZN4arma10solve_opts16opts_equilibrateC2Ev
FNDA:0,_ZN4arma10solve_opts16opts_equilibrateC2Ev
FN:124,_ZN4arma10solve_opts14opts_no_approxC2Ev
FNDA:0,_ZN4arma10solve_opts14opts_no_approxC2Ev
FN:125,_ZN4arma10solve_opts9opts_triuC2Ev
FNDA:0,_ZN4arma10solve_opts9opts_triuC2Ev
FN:126,_ZN4arma10solve_opts9opts_trilC2Ev
FNDA:0,_ZN4arma10solve_opts9opts_trilC2Ev
FN:127,_ZN4arma10solve_opts12opts_no_bandC2Ev
FNDA:0,_ZN4arma10solve_opts12opts_no_bandC2Ev
FN:128,_ZN4arma10solve_opts13opts_no_sympdC2Ev
FNDA:0,_ZN4arma10solve_opts13opts_no_sympdC2Ev
FN:129,_ZN4arma10solve_opts15opts_allow_uglyC2Ev
FNDA:0,_ZN4arma10solve_opts15opts_allow_uglyC2Ev
FN:130,_ZN4arma10solve_opts17opts_likely_sympdC2Ev
FNDA:0,_ZN4arma10solve_opts17opts_likely_sympdC2Ev
FN:131,_ZN4arma10solve_opts11opts_refineC2Ev
FNDA:0,_ZN4arma10solve_opts11opts_refineC2Ev
FN:132,_ZN4arma10solve_opts14opts_no_trimatC2Ev
FNDA:0,_ZN4arma10solve_opts14opts_no_trimatC2Ev
DA:92,0
DA:93,0
DA:94,0
DA:121,0
DA:122,0
DA:123,0
DA:124,0
DA:125,0
DA:126,0
DA:127,0
DA:128,0
DA:129,0
DA:130,0
DA:131,0
DA:132,0
end_of_record
SF:/usr/include/c++/9/ext/type_traits.h
FN:152,_ZN9__gnu_cxx17__is_null_pointerIcEEbPT_
FNDA:0,_ZN9__gnu_cxx17__is_null_pointerIcEEbPT_
FN:152,_ZN9__gnu_cxx17__is_null_pointerIKcEEbPT_
FNDA:0,_ZN9__gnu_cxx17__is_null_pointerIKcEEbPT_
DA:152,0
DA:153,0
DA:152,0
DA:153,0
end_of_record
TN:
SF:/usr/include/c++/9/bits/basic_string.h
FN:247,_ZNSt7__cxx1112basic_stringIcSt11char_traitsIcESaIcEE16_M_construct_auxIN9__gnu_cxx17__normal_iteratorIPcS4_EEEEvT_SA_St12__false_type
FNDA:0,_ZNSt7__cxx1112basic_stringIcSt11char_traitsIcESaIcEE16_M_construct_auxIN9__gnu_cxx17__normal_iteratorIPcS4_EEEEvT_SA_St12__false_type
FN:247,_ZNSt7__cxx1112basic_stringIcSt11char_traitsIcESaIcEE16_M_construct_auxIN9__gnu_cxx17__normal_iteratorIPKcS4_EEEEvT_SB_St12__false_type
FNDA:12,_ZNSt7__cxx1112basic_stringIcSt11char_traitsIcESaIcEE16_M_construct_auxIN9__gnu_cxx17__normal_iteratorIPKcS4_EEEEvT_SB_St12__false_type
FN:247,_ZNSt7__cxx1112basic_stringIcSt11char_traitsIcESaIcEE16_M_construct_auxIPcEEvT_S7_St12__false_type
FNDA:246,_ZNSt7__cxx1112basic_stringIcSt11char_traitsIcESaIcEE16_M_construct_auxIPcEEvT_S7_St12__false_type
FN:247,_ZNSt7__cxx1112basic_stringIcSt11char_traitsIcESaIcEE16_M_construct_auxIPKcEEvT_S8_St12__false_type
FNDA:0,_ZNSt7__cxx1112basic_stringIcSt11char_traitsIcESaIcEE16_M_construct_auxIPKcEEvT_S8_St12__false_type
FN:267,_ZNSt7__cxx1112basic_stringIcSt11char_traitsIcESaIcEE12_M_constructIN9__gnu_cxx17__normal_iteratorIPcS4_EEEEvT_SA_
FNDA:0,_ZNSt7__cxx1112basic_stringIcSt11char_traitsIcESaIcEE12_M_constructIN9__gnu_cxx17__normal_iteratorIPcS4_EEEEvT_SA_
FN:267,_ZNSt7__cxx1112basic_stringIcSt11char_traitsIcESaIcEE12_M_constructIN9__gnu_cxx17__normal_iteratorIPKcS4_EEEEvT_SB_
FNDA:12,_ZNSt7__cxx1112basic_stringIcSt11char_traitsIcESaIcEE12_M_constructIN9__gnu_cxx17__normal_iteratorIPKcS4_EEEEvT_SB_
FN:267,_ZNSt7__cxx1112basic_stringIcSt11char_traitsIcESaIcEE12_M_constructIPcEEvT_S7_
FNDA:246,_ZNSt7__cxx1112basic_stringIcSt11char_traitsIcESaIcEE12_M_constructIPcEEvT_S7_
FN:267,_ZNSt7__cxx1112basic_stringIcSt11char_traitsIcESaIcEE12_M_constructIPKcEEvT_S8_
FNDA:0,_ZNSt7__cxx1112basic_stringIcSt11char_traitsIcESaIcEE12_M_constructIPKcEEvT_S8_
FN:629,_ZNSt7__cxx1112basic_stringIcSt11char_traitsIcESaIcEEC2IN9__gnu_cxx17__normal_iteratorIPcS4_EEvEET_SA_RKS3_
FNDA:0,_ZNSt7__cxx1112basic_stringIcSt11char_traitsIcESaIcEEC2IN9__gnu_cxx17__normal_iteratorIPcS4_EEvEET_SA_RKS3_
FN:629,_ZNSt7__cxx1112basic_stringIcSt11char_traitsIcESaIcEEC2IN9__gnu_cxx17__normal_iteratorIPKcS4_EEvEET_SB_RKS3_
FNDA:12,_ZNSt7__cxx1112basic_stringIcSt11char_traitsIcESaIcEEC2IN9__gnu_cxx17__normal_iteratorIPKcS4_EEvEET_SB_RKS3_
FN:629,_ZNSt7__cxx1112basic_stringIcSt11char_traitsIcESaIcEEC2IPcvEET_S7_RKS3_
FNDA:246,_ZNSt7__cxx1112basic_stringIcSt11char_traitsIcESaIcEEC2IPcvEET_S7_RKS3_
FN:6152,_ZSteqIcEN9__gnu_cxx11__enable_ifIXsrSt9__is_charIT_E7__valueEbE6__typeERKNSt7__cxx1112basic_stringIS3_St11char_traitsIS3_ESaIS3_EEESE_
FNDA:0,_ZSteqIcEN9__gnu_cxx11__enable_ifIXsrSt9__is_charIT_E7__valueEbE6__typeERKNSt7__cxx1112basic_stringIS3_St11char_traitsIS3_ESaIS3_EEESE_
FN:6178,_ZSteqIcSt11char_traitsIcESaIcEEbRKNSt7__cxx1112basic_stringIT_T0_T1_EEPKS5_
FNDA:25,_ZSteqIcSt11char_traitsIcESaIcEEbRKNSt7__cxx1112basic_stringIT_T0_T1_EEPKS5_
FN:6216,_ZStneIcSt11char_traitsIcESaIcEEbRKNSt7__cxx1112basic_stringIT_T0_T1_EEPKS5_
FNDA:2,_ZStneIcSt11char_traitsIcESaIcEEbRKNSt7__cxx1112basic_stringIT_T0_T1_EEPKS5_
FN:6305,_ZStleIcSt11char_traitsIcESaIcEEbRKNSt7__cxx1112basic_stringIT_T0_T1_EESA_
FNDA:0,_ZStleIcSt11char_traitsIcESaIcEEbRKNSt7__cxx1112basic_stringIT_T0_T1_EESA_
FN:6506,_ZNSt7__cxx114stoiERKNS_12basic_stringIcSt11char_traitsIcESaIcEEEPmi
FNDA:12,_ZNSt7__cxx114stoiERKNS_12basic_stringIcSt11char_traitsIcESaIcEEEPmi
DA:247,0
DA:251,0
DA:252,0
DA:247,12
DA:251,12
DA:252,12
DA:247,246
DA:251,246
DA:252,246
DA:247,0
DA:251,0
DA:252,0
DA:267,0
DA:270,0
DA:271,0
DA:267,12
DA:270,12
DA:271,12
DA:267,246
DA:270,246
DA:271,246
DA:267,0
DA:270,0
DA:271,0
DA:629,0
DA:631,0
DA:632,0
DA:629,12
DA:631,12
DA:632,12
DA:629,246
DA:631,246
DA:632,246
DA:6152,0
DA:6154,0
DA:6155,0
DA:6156,0
DA:6178,25
DA:6180,25
DA:6216,2
DA:6218,2
DA:6305,0
DA:6308,0
DA:6506,12
DA:6507,12
DA:6508,12
end_of_record
SF:/usr/include/c++/9/limits
FN:1065,_ZNSt14numeric_limitsIiE3minEv
FNDA:0,_ZNSt14numeric_limitsIiE3minEv
FN:1068,_ZNSt14numeric_limitsIiE3maxEv
FNDA:0,_ZNSt14numeric_limitsIiE3maxEv
FN:1784,_ZNSt14numeric_limitsIdE9quiet_NaNEv
FNDA:1,_ZNSt14numeric_limitsIdE9quiet_NaNEv
DA:1065,0
DA:1068,0
DA:1784,1
end_of_record
SF:/usr/include/armadillo_bits/arma_forward.hpp
FN:379,_ZN4arma9hdf5_opts4optsC2Ej
FNDA:16,_ZN4arma9hdf5_opts4optsC2Ej
FN:400,_ZN4arma9hdf5_opts9opts_noneC2Ev
FNDA:4,_ZN4arma9hdf5_opts9opts_noneC2Ev
FN:401,_ZN4arma9hdf5_opts10opts_transC2Ev
FNDA:4,_ZN4arma9hdf5_opts10opts_transC2Ev
FN:402,_ZN4arma9hdf5_opts11opts_appendC2Ev
FNDA:4,_ZN4arma9hdf5_opts11opts_appendC2Ev
FN:403,_ZN4arma9hdf5_opts12opts_replaceC2Ev
FNDA:4,_ZN4arma9hdf5_opts12opts_replaceC2Ev
FN:451,_ZN4arma4fill10fill_classINS0_10fill_randnEEC2Ev
FNDA:4,_ZN4arma4fill10fill_classINS0_10fill_randnEEC2Ev
FN:451,_ZN4arma4fill10fill_classINS0_10fill_randuEEC2Ev
FNDA:4,_ZN4arma4fill10fill_classINS0_10fill_randuEEC2Ev
FN:451,_ZN4arma4fill10fill_classINS0_8fill_eyeEEC2Ev
FNDA:4,_ZN4arma4fill10fill_classINS0_8fill_eyeEEC2Ev
FN:451,_ZN4arma4fill10fill_classINS0_9fill_onesEEC2Ev
FNDA:4,_ZN4arma4fill10fill_classINS0_9fill_onesEEC2Ev
FN:451,_ZN4arma4fill10fill_classINS0_10fill_zerosEEC2Ev
FNDA:4,_ZN4arma4fill10fill_classINS0_10fill_zerosEEC2Ev
FN:451,_ZN4arma4fill10fill_classINS0_9fill_noneEEC2Ev
FNDA:4,_ZN4arma4fill10fill_classINS0_9fill_noneEEC2Ev
DA:379,16
DA:380,16
DA:381,16
DA:400,4
DA:401,4
DA:402,4
DA:403,4
DA:451,4
DA:451,4
DA:451,4
DA:451,4
DA:451,4
DA:451,4
end_of_record
SF:/usr/include/c++/9/bits/locale_classes.tcc
FN:132,_ZSt9use_facetIKSt5ctypeIcEERKT_RKSt6locale
FNDA:1,_ZSt9use_facetIKSt5ctypeIcEERKT_RKSt6locale
DA:132,1
DA:134,1
DA:135,1
DA:136,1
DA:137,0
DA:139,1
end_of_record
SF:/usr/include/c++/9/bits/stl_iterator_base_funcs.h
FN:98,_ZSt10__distanceIN9__gnu_cxx17__normal_iteratorIPcNSt7__cxx1112basic_stringIcSt11char_traitsIcESaIcEEEEEENSt15iterator_traitsIT_E15difference_typeESB_SB_St26random_access_iterator_tag
FNDA:0,_ZSt10__distanceIN9__gnu_cxx17__normal_iteratorIPcNSt7__cxx1112basic_stringIcSt11char_traitsIcESaIcEEEEEENSt15iterator_traitsIT_E15difference_typeESB_SB_St26random_access_iterator_tag
FN:98,_ZSt10__distanceIN9__gnu_cxx17__normal_iteratorIPKcSt6vectorIcSaIcEEEEENSt15iterator_traitsIT_E15difference_typeES9_S9_St26random_access_iterator_tag
FNDA:256,_ZSt10__distanceIN9__gnu_cxx17__normal_iteratorIPKcSt6vectorIcSaIcEEEEENSt15iterator_traitsIT_E15difference_typeES9_S9_St26random_access_iterator_tag
FN:98,_ZSt10__distanceIN9__gnu_cxx17__normal_iteratorIPKcNSt7__cxx1112basic_stringIcSt11char_traitsIcESaIcEEEEEENSt15iterator_traitsIT_E15difference_typeESC_SC_St26random_access_iterator_tag
FNDA:12,_ZSt10__distanceIN9__gnu_cxx17__normal_iteratorIPKcNSt7__cxx1112basic_stringIcSt11char_traitsIcESaIcEEEEEENSt15iterator_traitsIT_E15difference_typeESC_SC_St26random_access_iterator_tag
FN:98,_ZSt10__distanceIPcENSt15iterator_traitsIT_E15difference_typeES2_S2_St26random_access_iterator_tag
FNDA:246,_ZSt10__distanceIPcENSt15iterator_traitsIT_E15difference_typeES2_S2_St26random_access_iterator_tag
FN:98,_ZSt10__distanceIPKcENSt15iterator_traitsIT_E15difference_typeES3_S3_St26random_access_iterator_tag
FNDA:246,_ZSt10__distanceIPKcENSt15iterator_traitsIT_E15difference_typeES3_S3_St26random_access_iterator_tag
FN:138,_ZSt8distanceIN9__gnu_cxx17__normal_iteratorIPcNSt7__cxx1112basic_stringIcSt11char_traitsIcESaIcEEEEEENSt15iterator_traitsIT_E15difference_typeESB_SB_
FNDA:0,_ZSt8distanceIN9__gnu_cxx17__normal_iteratorIPcNSt7__cxx1112basic_stringIcSt11char_traitsIcESaIcEEEEEENSt15iterator_traitsIT_E15difference_typeESB_SB_
FN:138,_ZSt8distanceIN9__gnu_cxx17__normal_iteratorIPKcSt6vectorIcSaIcEEEEENSt15iterator_traitsIT_E15difference_typeES9_S9_
FNDA:256,_ZSt8distanceIN9__gnu_cxx17__normal_iteratorIPKcSt6vectorIcSaIcEEEEENSt15iterator_traitsIT_E15difference_typeES9_S9_
FN:138,_ZSt8distanceIN9__gnu_cxx17__normal_iteratorIPKcNSt7__cxx1112basic_stringIcSt11char_traitsIcESaIcEEEEEENSt15iterator_traitsIT_E15difference_typeESC_SC_
FNDA:12,_ZSt8distanceIN9__gnu_cxx17__normal_iteratorIPKcNSt7__cxx1112basic_stringIcSt11char_traitsIcESaIcEEEEEENSt15iterator_traitsIT_E15difference_typeESC_SC_
FN:138,_ZSt8distanceIPcENSt15iterator_traitsIT_E15difference_typeES2_S2_
FNDA:246,_ZSt8distanceIPcENSt15iterator_traitsIT_E15difference_typeES2_S2_
FN:138,_ZSt8distanceIPKcENSt15iterator_traitsIT_E15difference_typeES3_S3_
FNDA:246,_ZSt8distanceIPKcENSt15iterator_traitsIT_E15difference_typeES3_S3_
FN:174,_ZSt9__advanceIN9__gnu_cxx17__normal_iteratorIPKcSt6vectorIcSaIcEEEElEvRT_T0_St26random_access_iterator_tag
FNDA:0,_ZSt9__advanceIN9__gnu_cxx17__normal_iteratorIPKcSt6vectorIcSaIcEEEElEvRT_T0_St26random_access_iterator_tag
FN:174,_ZSt9__advanceIN9__gnu_cxx17__normal_iteratorIPKcNSt7__cxx1112basic_stringIcSt11char_traitsIcESaIcEEEEElEvRT_T0_St26random_access_iterator_tag
FNDA:0,_ZSt9__advanceIN9__gnu_cxx17__normal_iteratorIPKcNSt7__cxx1112basic_stringIcSt11char_traitsIcESaIcEEEEElEvRT_T0_St26random_access_iterator_tag
FN:202,_ZSt7advanceIN9__gnu_cxx17__normal_iteratorIPKcSt6vectorIcSaIcEEEElEvRT_T0_
FNDA:0,_ZSt7advanceIN9__gnu_cxx17__normal_iteratorIPKcSt6vectorIcSaIcEEEElEvRT_T0_
FN:202,_ZSt7advanceIN9__gnu_cxx17__normal_iteratorIPKcNSt7__cxx1112basic_stringIcSt11char_traitsIcESaIcEEEEElEvRT_T0_
FNDA:0,_ZSt7advanceIN9__gnu_cxx17__normal_iteratorIPKcNSt7__cxx1112basic_stringIcSt11char_traitsIcESaIcEEEEElEvRT_T0_
FN:224,_ZSt4prevIN9__gnu_cxx17__normal_iteratorIPKcNSt7__cxx1112basic_stringIcSt11char_traitsIcESaIcEEEEEET_SB_NSt15iterator_traitsISB_E15difference_typeE
FNDA:0,_ZSt4prevIN9__gnu_cxx17__normal_iteratorIPKcNSt7__cxx1112basic_stringIcSt11char_traitsIcESaIcEEEEEET_SB_NSt15iterator_traitsISB_E15difference_typeE
DA:98,0
DA:104,0
DA:98,256
DA:104,256
DA:98,12
DA:104,12
DA:98,246
DA:104,246
DA:98,246
DA:104,246
DA:138,0
DA:141,0
DA:142,0
DA:138,256
DA:141,256
DA:142,512
DA:138,12
DA:141,12
DA:142,24
DA:138,246
DA:141,246
DA:142,492
DA:138,246
DA:141,246
DA:142,492
DA:174,0
DA:185,0
DA:186,0
DA:174,0
DA:185,0
DA:186,0
DA:202,0
DA:205,0
DA:206,0
DA:207,0
DA:202,0
DA:205,0
DA:206,0
DA:207,0
DA:224,0
DA:230,0
DA:231,0
end_of_record
SF:/usr/include/c++/9/bits/char_traits.h
FN:315,_ZNSt11char_traitsIcE7compareEPKcS2_m
FNDA:0,_ZNSt11char_traitsIcE7compareEPKcS2_m
FN:336,_ZNSt11char_traitsIcE6lengthEPKc
FNDA:1,_ZNSt11char_traitsIcE6lengthEPKc
FN:368,_ZNSt11char_traitsIcE4copyEPcPKcm
FNDA:0,_ZNSt11char_traitsIcE4copyEPcPKcm
DA:315,0
DA:317,0
DA:318,0
DA:332,0
DA:336,1
DA:342,1
DA:368,0
DA:370,0
DA:371,0
DA:372,0
end_of_record
SF:/usr/include/c++/9/bits/regex_automaton.tcc
FN:149,_ZNSt8__detail4_NFAINSt7__cxx1112regex_traitsIcEEE17_M_insert_backrefEm
FNDA:0,_ZNSt8__detail4_NFAINSt7__cxx1112regex_traitsIcEEE17_M_insert_backrefEm
FN:178,_ZNSt8__detail4_NFAINSt7__cxx1112regex_traitsIcEEE18_M_eliminate_dummyEv
FNDA:1,_ZNSt8__detail4_NFAINSt7__cxx1112regex_traitsIcEEE18_M_eliminate_dummyEv
FN:195,_ZNSt8__detail9_StateSeqINSt7__cxx1112regex_traitsIcEEE8_M_cloneEv
FNDA:2,_ZNSt8__detail9_StateSeqINSt7__cxx1112regex_traitsIcEEE8_M_cloneEv
DA:149,0
DA:151,0
DA:152,0
DA:161,0
DA:162,0
DA:165,0
DA:166,0
DA:167,0
DA:170,0
DA:171,0
DA:172,0
DA:173,0
DA:178,1
DA:180,10
DA:182,20
DA:183,9
DA:184,2
DA:185,9
DA:186,2
DA:187,1
DA:188,0
DA:190,1
DA:195,2
DA:197,4
DA:198,4
DA:199,2
DA:200,4
DA:202,2
DA:203,2
DA:204,2
DA:206,2
DA:207,2
DA:208,2
DA:209,0
DA:210,0
DA:211,0
DA:212,2
DA:213,2
DA:214,0
DA:215,0
DA:216,0
DA:218,4
DA:220,2
DA:221,2
DA:222,2
DA:223,0
DA:224,2
DA:225,0
DA:227,4
end_of_record
SF:/usr/include/c++/9/bits/regex_compiler.h
FN:69,_ZNSt8__detail9_CompilerINSt7__cxx1112regex_traitsIcEEE10_M_get_nfaEv
FNDA:1,_ZNSt8__detail9_CompilerINSt7__cxx1112regex_traitsIcEEE10_M_get_nfaEv
FN:140,_ZNSt8__detail9_CompilerINSt7__cxx1112regex_traitsIcEEE6_M_popEv
FNDA:4,_ZNSt8__detail9_CompilerINSt7__cxx1112regex_traitsIcEEE6_M_popEv
FN:176,_ZNSt8__detail13__compile_nfaINSt7__cxx1112regex_traitsIcEEPKcEENSt9enable_ifIXsrNS_20__is_contiguous_iterIT0_EE5valueESt10shared_ptrIKNS_4_NFAIT_EEEE4typeES8_S8_RKNSC_11locale_typeENSt15regex_constants18syntax_option_typeE
FNDA:1,_ZNSt8__detail13__compile_nfaINSt7__cxx1112regex_traitsIcEEPKcEENSt9enable_ifIXsrNS_20__is_contiguous_iterIT0_EE5valueESt10shared_ptrIKNS_4_NFAIT_EEEE4typeES8_S8_RKNSC_11locale_typeENSt15regex_constants18syntax_option_typeE
FN:207,_ZNSt8__detail20_RegexTranslatorBaseINSt7__cxx1112regex_traitsIcEELb0ELb1EEC2ERKS3_
FNDA:0,_ZNSt8__detail20_RegexTranslatorBaseINSt7__cxx1112regex_traitsIcEELb0ELb1EEC2ERKS3_
FN:207,_ZNSt8__detail20_RegexTranslatorBaseINSt7__cxx1112regex_traitsIcEELb1ELb0EEC2ERKS3_
FNDA:0,_ZNSt8__detail20_RegexTranslatorBaseINSt7__cxx1112regex_traitsIcEELb1ELb0EEC2ERKS3_
FN:207,_ZNSt8__detail20_RegexTranslatorBaseINSt7__cxx1112regex_traitsIcEELb1ELb1EEC2ERKS3_
FNDA:0,_ZNSt8__detail20_RegexTranslatorBaseINSt7__cxx1112regex_traitsIcEELb1ELb1EEC2ERKS3_
FN:212,_ZNKSt8__detail20_RegexTranslatorBaseINSt7__cxx1112regex_traitsIcEELb0ELb1EE12_M_translateEc
FNDA:0,_ZNKSt8__detail20_RegexTranslatorBaseINSt7__cxx1112regex_traitsIcEELb0ELb1EE12_M_translateEc
FN:212,_ZNKSt8__detail20_RegexTranslatorBaseINSt7__cxx1112regex_traitsIcEELb1ELb0EE12_M_translateEc
FNDA:0,_ZNKSt8__detail20_RegexTranslatorBaseINSt7__cxx1112regex_traitsIcEELb1ELb0EE12_M_translateEc
FN:212,_ZNKSt8__detail20_RegexTranslatorBaseINSt7__cxx1112regex_traitsIcEELb1ELb1EE12_M_translateEc
FNDA:0,_ZNKSt8__detail20_RegexTranslatorBaseINSt7__cxx1112regex_traitsIcEELb1ELb1EE12_M_translateEc
FN:223,_ZNKSt8__detail20_RegexTranslatorBaseINSt7__cxx1112regex_traitsIcEELb1ELb1EE12_M_transformEc
FNDA:0,_ZNKSt8__detail20_RegexTranslatorBaseINSt7__cxx1112regex_traitsIcEELb1ELb1EE12_M_transformEc
FN:223,_ZNKSt8__detail20_RegexTranslatorBaseINSt7__cxx1112regex_traitsIcEELb0ELb1EE12_M_transformEc
FNDA:0,_ZNKSt8__detail20_RegexTranslatorBaseINSt7__cxx1112regex_traitsIcEELb0ELb1EE12_M_transformEc
FN:233,_ZNKSt8__detail20_RegexTranslatorBaseINSt7__cxx1112regex_traitsIcEELb0ELb1EE14_M_match_rangeERKNS1_12basic_stringIcSt11char_traitsIcESaIcEEESB_SB_
FNDA:0,_ZNKSt8__detail20_RegexTranslatorBaseINSt7__cxx1112regex_traitsIcEELb0ELb1EE14_M_match_rangeERKNS1_12basic_stringIcSt11char_traitsIcESaIcEEESB_SB_
FN:238,_ZNKSt8__detail20_RegexTranslatorBaseINSt7__cxx1112regex_traitsIcEELb1ELb0EE17_M_in_range_icaseEccc
FNDA:0,_ZNKSt8__detail20_RegexTranslatorBaseINSt7__cxx1112regex_traitsIcEELb1ELb0EE17_M_in_range_icaseEccc
FN:238,_ZNKSt8__detail20_RegexTranslatorBaseINSt7__cxx1112regex_traitsIcEELb1ELb1EE17_M_in_range_icaseEccc
FNDA:0,_ZNKSt8__detail20_RegexTranslatorBaseINSt7__cxx1112regex_traitsIcEELb1ELb1EE17_M_in_range_icaseEccc
FN:272,_ZNKSt8__detail16_RegexTranslatorINSt7__cxx1112regex_traitsIcEELb1ELb0EE12_M_transformEc
FNDA:0,_ZNKSt8__detail16_RegexTranslatorINSt7__cxx1112regex_traitsIcEELb1ELb0EE12_M_transformEc
FN:276,_ZNKSt8__detail16_RegexTranslatorINSt7__cxx1112regex_traitsIcEELb1ELb0EE14_M_match_rangeEccc
FNDA:0,_ZNKSt8__detail16_RegexTranslatorINSt7__cxx1112regex_traitsIcEELb1ELb0EE14_M_match_rangeEccc
FN:297,_ZNKSt8__detail16_RegexTranslatorINSt7__cxx1112regex_traitsIcEELb1ELb1EE14_M_match_rangeERKNS1_12basic_stringIcSt11char_traitsIcESaIcEEESB_SB_
FNDA:0,_ZNKSt8__detail16_RegexTranslatorINSt7__cxx1112regex_traitsIcEELb1ELb1EE14_M_match_rangeERKNS1_12basic_stringIcSt11char_traitsIcESaIcEEESB_SB_
FN:315,_ZNSt8__detail16_RegexTranslatorINSt7__cxx1112regex_traitsIcEELb0ELb0EEC2ERKS3_
FNDA:1,_ZNSt8__detail16_RegexTranslatorINSt7__cxx1112regex_traitsIcEELb0ELb0EEC2ERKS3_
FN:319,_ZNKSt8__detail16_RegexTranslatorINSt7__cxx1112regex_traitsIcEELb0ELb0EE12_M_translateEc
FNDA:256,_ZNKSt8__detail16_RegexTranslatorINSt7__cxx1112regex_traitsIcEELb0ELb0EE12_M_translateEc
FN:323,_ZNKSt8__detail16_RegexTranslatorINSt7__cxx1112regex_traitsIcEELb0ELb0EE12_M_transformEc
FNDA:258,_ZNKSt8__detail16_RegexTranslatorINSt7__cxx1112regex_traitsIcEELb0ELb0EE12_M_transformEc
FN:327,_ZNKSt8__detail16_RegexTranslatorINSt7__cxx1112regex_traitsIcEELb0ELb0EE14_M_match_rangeEccc
FNDA:256,_ZNKSt8__detail16_RegexTranslatorINSt7__cxx1112regex_traitsIcEELb0ELb0EE14_M_match_rangeEccc
FN:341,_ZNSt8__detail11_AnyMatcherINSt7__cxx1112regex_traitsIcEELb0ELb1ELb1EEC2ERKS3_
FNDA:0,_ZNSt8__detail11_AnyMatcherINSt7__cxx1112regex_traitsIcEELb0ELb1ELb1EEC2ERKS3_
FN:341,_ZNSt8__detail11_AnyMatcherINSt7__cxx1112regex_traitsIcEELb0ELb1ELb0EEC2ERKS3_
FNDA:0,_ZNSt8__detail11_AnyMatcherINSt7__cxx1112regex_traitsIcEELb0ELb1ELb0EEC2ERKS3_
FN:341,_ZNSt8__detail11_AnyMatcherINSt7__cxx1112regex_traitsIcEELb0ELb0ELb1EEC2ERKS3_
FNDA:0,_ZNSt8__detail11_AnyMatcherINSt7__cxx1112regex_traitsIcEELb0ELb0ELb1EEC2ERKS3_
FN:341,_ZNSt8__detail11_AnyMatcherINSt7__cxx1112regex_traitsIcEELb0ELb0ELb0EEC2ERKS3_
FNDA:0,_ZNSt8__detail11_AnyMatcherINSt7__cxx1112regex_traitsIcEELb0ELb0ELb0EEC2ERKS3_
FN:346,_ZNKSt8__detail11_AnyMatcherINSt7__cxx1112regex_traitsIcEELb0ELb1ELb1EEclEc
FNDA:0,_ZNKSt8__detail11_AnyMatcherINSt7__cxx1112regex_traitsIcEELb0ELb1ELb1EEclEc
FN:346,_ZNKSt8__detail11_AnyMatcherINSt7__cxx1112regex_traitsIcEELb0ELb1ELb0EEclEc
FNDA:0,_ZNKSt8__detail11_AnyMatcherINSt7__cxx1112regex_traitsIcEELb0ELb1ELb0EEclEc
FN:346,_ZNKSt8__detail11_AnyMatcherINSt7__cxx1112regex_traitsIcEELb0ELb0ELb1EEclEc
FNDA:0,_ZNKSt8__detail11_AnyMatcherINSt7__cxx1112regex_traitsIcEELb0ELb0ELb1EEclEc
FN:346,_ZNKSt8__detail11_AnyMatcherINSt7__cxx1112regex_traitsIcEELb0ELb0ELb0EEclEc
FNDA:0,_ZNKSt8__detail11_AnyMatcherINSt7__cxx1112regex_traitsIcEELb0ELb0ELb0EEclEc
FN:362,_ZNSt8__detail11_AnyMatcherINSt7__cxx1112regex_traitsIcEELb1ELb0ELb0EEC2ERKS3_
FNDA:0,_ZNSt8__detail11_AnyMatcherINSt7__cxx1112regex_traitsIcEELb1ELb0ELb0EEC2ERKS3_
FN:362,_ZNSt8__detail11_AnyMatcherINSt7__cxx1112regex_traitsIcEELb1ELb1ELb1EEC2ERKS3_
FNDA:0,_ZNSt8__detail11_AnyMatcherINSt7__cxx1112regex_traitsIcEELb1ELb1ELb1EEC2ERKS3_
FN:362,_ZNSt8__detail11_AnyMatcherINSt7__cxx1112regex_traitsIcEELb1ELb1ELb0EEC2ERKS3_
FNDA:0,_ZNSt8__detail11_AnyMatcherINSt7__cxx1112regex_traitsIcEELb1ELb1ELb0EEC2ERKS3_
FN:362,_ZNSt8__detail11_AnyMatcherINSt7__cxx1112regex_traitsIcEELb1ELb0ELb1EEC2ERKS3_
FNDA:0,_ZNSt8__detail11_AnyMatcherINSt7__cxx1112regex_traitsIcEELb1ELb0ELb1EEC2ERKS3_
FN:367,_ZNKSt8__detail11_AnyMatcherINSt7__cxx1112regex_traitsIcEELb1ELb0ELb0EEclEc
FNDA:0,_ZNKSt8__detail11_AnyMatcherINSt7__cxx1112regex_traitsIcEELb1ELb0ELb0EEclEc
FN:367,_ZNKSt8__detail11_AnyMatcherINSt7__cxx1112regex_traitsIcEELb1ELb0ELb1EEclEc
FNDA:0,_ZNKSt8__detail11_AnyMatcherINSt7__cxx1112regex_traitsIcEELb1ELb0ELb1EEclEc
FN:367,_ZNKSt8__detail11_AnyMatcherINSt7__cxx1112regex_traitsIcEELb1ELb1ELb0EEclEc
FNDA:0,_ZNKSt8__detail11_AnyMatcherINSt7__cxx1112regex_traitsIcEELb1ELb1ELb0EEclEc
FN:367,_ZNKSt8__detail11_AnyMatcherINSt7__cxx1112regex_traitsIcEELb1ELb1ELb1EEclEc
FNDA:0,_ZNKSt8__detail11_AnyMatcherINSt7__cxx1112regex_traitsIcEELb1ELb1ELb1EEclEc
FN:371,_ZNKSt8__detail11_AnyMatcherINSt7__cxx1112regex_traitsIcEELb1ELb1ELb1EE8_M_applyEcSt17integral_constantIbLb1EE
FNDA:0,_ZNKSt8__detail11_AnyMatcherINSt7__cxx1112regex_traitsIcEELb1ELb1ELb1EE8_M_applyEcSt17integral_constantIbLb1EE
FN:371,_ZNKSt8__detail11_AnyMatcherINSt7__cxx1112regex_traitsIcEELb1ELb1ELb0EE8_M_applyEcSt17integral_constantIbLb1EE
FNDA:0,_ZNKSt8__detail11_AnyMatcherINSt7__cxx1112regex_traitsIcEELb1ELb1ELb0EE8_M_applyEcSt17integral_constantIbLb1EE
FN:371,_ZNKSt8__detail11_AnyMatcherINSt7__cxx1112regex_traitsIcEELb1ELb0ELb1EE8_M_applyEcSt17integral_constantIbLb1EE
FNDA:0,_ZNKSt8__detail11_AnyMatcherINSt7__cxx1112regex_traitsIcEELb1ELb0ELb1EE8_M_applyEcSt17integral_constantIbLb1EE
FN:371,_ZNKSt8__detail11_AnyMatcherINSt7__cxx1112regex_traitsIcEELb1ELb0ELb0EE8_M_applyEcSt17integral_constantIbLb1EE
FNDA:0,_ZNKSt8__detail11_AnyMatcherINSt7__cxx1112regex_traitsIcEELb1ELb0ELb0EE8_M_applyEcSt17integral_constantIbLb1EE
FN:399,_ZNSt8__detail12_CharMatcherINSt7__cxx1112regex_traitsIcEELb0ELb0EEC2EcRKS3_
FNDA:0,_ZNSt8__detail12_CharMatcherINSt7__cxx1112regex_traitsIcEELb0ELb0EEC2EcRKS3_
FN:399,_ZNSt8__detail12_CharMatcherINSt7__cxx1112regex_traitsIcEELb0ELb1EEC2EcRKS3_
FNDA:0,_ZNSt8__detail12_CharMatcherINSt7__cxx1112regex_traitsIcEELb0ELb1EEC2EcRKS3_
FN:399,_ZNSt8__detail12_CharMatcherINSt7__cxx1112regex_traitsIcEELb1ELb0EEC2EcRKS3_
FNDA:0,_ZNSt8__detail12_CharMatcherINSt7__cxx1112regex_traitsIcEELb1ELb0EEC2EcRKS3_
FN:399,_ZNSt8__detail12_CharMatcherINSt7__cxx1112regex_traitsIcEELb1ELb1EEC2EcRKS3_
FNDA:0,_ZNSt8__detail12_CharMatcherINSt7__cxx1112regex_traitsIcEELb1ELb1EEC2EcRKS3_
FN:404,_ZNKSt8__detail12_CharMatcherINSt7__cxx1112regex_traitsIcEELb0ELb1EEclEc
FNDA:0,_ZNKSt8__detail12_CharMatcherINSt7__cxx1112regex_traitsIcEELb0ELb1EEclEc
FN:404,_ZNKSt8__detail12_CharMatcherINSt7__cxx1112regex_traitsIcEELb0ELb0EEclEc
FNDA:0,_ZNKSt8__detail12_CharMatcherINSt7__cxx1112regex_traitsIcEELb0ELb0EEclEc
FN:404,_ZNKSt8__detail12_CharMatcherINSt7__cxx1112regex_traitsIcEELb1ELb0EEclEc
FNDA:0,_ZNKSt8__detail12_CharMatcherINSt7__cxx1112regex_traitsIcEELb1ELb0EEclEc
FN:404,_ZNKSt8__detail12_CharMatcherINSt7__cxx1112regex_traitsIcEELb1ELb1EEclEc
FNDA:0,_ZNKSt8__detail12_CharMatcherINSt7__cxx1112regex_traitsIcEELb1ELb1EEclEc
FN:423,_ZNSt8__detail15_BracketMatcherINSt7__cxx1112regex_traitsIcEELb1ELb0EEC2EbRKS3_
FNDA:0,_ZNSt8__detail15_BracketMatcherINSt7__cxx1112regex_traitsIcEELb1ELb0EEC2EbRKS3_
FN:423,_ZNSt8__detail15_BracketMatcherINSt7__cxx1112regex_traitsIcEELb0ELb0EEC2EbRKS3_
FNDA:1,_ZNSt8__detail15_BracketMatcherINSt7__cxx1112regex_traitsIcEELb0ELb0EEC2EbRKS3_
FN:423,_ZNSt8__detail15_BracketMatcherINSt7__cxx1112regex_traitsIcEELb0ELb1EEC2EbRKS3_
FNDA:0,_ZNSt8__detail15_BracketMatcherINSt7__cxx1112regex_traitsIcEELb0ELb1EEC2EbRKS3_
FN:423,_ZNSt8__detail15_BracketMatcherINSt7__cxx1112regex_traitsIcEELb1ELb1EEC2EbRKS3_
FNDA:0,_ZNSt8__detail15_BracketMatcherINSt7__cxx1112regex_traitsIcEELb1ELb1EEC2EbRKS3_
FN:430,_ZNKSt8__detail15_BracketMatcherINSt7__cxx1112regex_traitsIcEELb0ELb0EEclEc
FNDA:35,_ZNKSt8__detail15_BracketMatcherINSt7__cxx1112regex_traitsIcEELb0ELb0EEclEc
FN:430,_ZNKSt8__detail15_BracketMatcherINSt7__cxx1112regex_traitsIcEELb0ELb1EEclEc
FNDA:0,_ZNKSt8__detail15_BracketMatcherINSt7__cxx1112regex_traitsIcEELb0ELb1EEclEc
FN:430,_ZNKSt8__detail15_BracketMatcherINSt7__cxx1112regex_traitsIcEELb1ELb0EEclEc
FNDA:0,_ZNKSt8__detail15_BracketMatcherINSt7__cxx1112regex_traitsIcEELb1ELb0EEclEc
FN:430,_ZNKSt8__detail15_BracketMatcherINSt7__cxx1112regex_traitsIcEELb1ELb1EEclEc
FNDA:0,_ZNKSt8__detail15_BracketMatcherINSt7__cxx1112regex_traitsIcEELb1ELb1EEclEc
FN:437,_ZNSt8__detail15_BracketMatcherINSt7__cxx1112regex_traitsIcEELb1ELb0EE11_M_add_charEc
FNDA:0,_ZNSt8__detail15_BracketMatcherINSt7__cxx1112regex_traitsIcEELb1ELb0EE11_M_add_charEc
FN:437,_ZNSt8__detail15_BracketMatcherINSt7__cxx1112regex_traitsIcEELb0ELb1EE11_M_add_charEc
FNDA:0,_ZNSt8__detail15_BracketMatcherINSt7__cxx1112regex_traitsIcEELb0ELb1EE11_M_add_charEc
FN:437,_ZNSt8__detail15_BracketMatcherINSt7__cxx1112regex_traitsIcEELb0ELb0EE11_M_add_charEc
FNDA:0,_ZNSt8__detail15_BracketMatcherINSt7__cxx1112regex_traitsIcEELb0ELb0EE11_M_add_charEc
FN:437,_ZNSt8__detail15_BracketMatcherINSt7__cxx1112regex_traitsIcEELb1ELb1EE11_M_add_charEc
FNDA:0,_ZNSt8__detail15_BracketMatcherINSt7__cxx1112regex_traitsIcEELb1ELb1EE11_M_add_charEc
FN:444,_ZNSt8__detail15_BracketMatcherINSt7__cxx1112regex_traitsIcEELb0ELb0EE22_M_add_collate_elementERKNS1_12basic_stringIcSt11char_traitsIcESaIcEEE
FNDA:0,_ZNSt8__detail15_BracketMatcherINSt7__cxx1112regex_traitsIcEELb0ELb0EE22_M_add_collate_elementERKNS1_12basic_stringIcSt11char_traitsIcESaIcEEE
FN:444,_ZNSt8__detail15_BracketMatcherINSt7__cxx1112regex_traitsIcEELb1ELb1EE22_M_add_collate_elementERKNS1_12basic_stringIcSt11char_traitsIcESaIcEEE
FNDA:0,_ZNSt8__detail15_BracketMatcherINSt7__cxx1112regex_traitsIcEELb1ELb1EE22_M_add_collate_elementERKNS1_12basic_stringIcSt11char_traitsIcESaIcEEE
FN:444,_ZNSt8__detail15_BracketMatcherINSt7__cxx1112regex_traitsIcEELb1ELb0EE22_M_add_collate_elementERKNS1_12basic_stringIcSt11char_traitsIcESaIcEEE
FNDA:0,_ZNSt8__detail15_BracketMatcherINSt7__cxx1112regex_traitsIcEELb1ELb0EE22_M_add_collate_elementERKNS1_12basic_stringIcSt11char_traitsIcESaIcEEE
FN:444,_ZNSt8__detail15_BracketMatcherINSt7__cxx1112regex_traitsIcEELb0ELb1EE22_M_add_collate_elementERKNS1_12basic_stringIcSt11char_traitsIcESaIcEEE
FNDA:0,_ZNSt8__detail15_BracketMatcherINSt7__cxx1112regex_traitsIcEELb0ELb1EE22_M_add_collate_elementERKNS1_12basic_stringIcSt11char_traitsIcESaIcEEE
FN:457,_ZNSt8__detail15_BracketMatcherINSt7__cxx1112regex_traitsIcEELb1ELb1EE24_M_add_equivalence_classERKNS1_12basic_stringIcSt11char_traitsIcESaIcEEE
FNDA:0,_ZNSt8__detail15_BracketMatcherINSt7__cxx1112regex_traitsIcEELb1ELb1EE24_M_add_equivalence_classERKNS1_12basic_stringIcSt11char_traitsIcESaIcEEE
FN:457,_ZNSt8__detail15_BracketMatcherINSt7__cxx1112regex_traitsIcEELb0ELb0EE24_M_add_equivalence_classERKNS1_12basic_stringIcSt11char_traitsIcESaIcEEE
FNDA:0,_ZNSt8__detail15_BracketMatcherINSt7__cxx1112regex_traitsIcEELb0ELb0EE24_M_add_equivalence_classERKNS1_12basic_stringIcSt11char_traitsIcESaIcEEE
FN:457,_ZNSt8__detail15_BracketMatcherINSt7__cxx1112regex_traitsIcEELb1ELb0EE24_M_add_equivalence_classERKNS1_12basic_stringIcSt11char_traitsIcESaIcEEE
FNDA:0,_ZNSt8__detail15_BracketMatcherINSt7__cxx1112regex_traitsIcEELb1ELb0EE24_M_add_equivalence_classERKNS1_12basic_stringIcSt11char_traitsIcESaIcEEE
FN:457,_ZNSt8__detail15_BracketMatcherINSt7__cxx1112regex_traitsIcEELb0ELb1EE24_M_add_equivalence_classERKNS1_12basic_stringIcSt11char_traitsIcESaIcEEE
FNDA:0,_ZNSt8__detail15_BracketMatcherINSt7__cxx1112regex_traitsIcEELb0ELb1EE24_M_add_equivalence_classERKNS1_12basic_stringIcSt11char_traitsIcESaIcEEE
FN:472,_ZNSt8__detail15_BracketMatcherINSt7__cxx1112regex_traitsIcEELb1ELb0EE22_M_add_character_classERKNS1_12basic_stringIcSt11char_traitsIcESaIcEEEb
FNDA:0,_ZNSt8__detail15_BracketMatcherINSt7__cxx1112regex_traitsIcEELb1ELb0EE22_M_add_character_classERKNS1_12basic_stringIcSt11char_traitsIcESaIcEEEb
FN:472,_ZNSt8__detail15_BracketMatcherINSt7__cxx1112regex_traitsIcEELb1ELb1EE22_M_add_character_classERKNS1_12basic_stringIcSt11char_traitsIcESaIcEEEb
FNDA:0,_ZNSt8__detail15_BracketMatcherINSt7__cxx1112regex_traitsIcEELb1ELb1EE22_M_add_character_classERKNS1_12basic_stringIcSt11char_traitsIcESaIcEEEb
FN:472,_ZNSt8__detail15_BracketMatcherINSt7__cxx1112regex_traitsIcEELb0ELb1EE22_M_add_character_classERKNS1_12basic_stringIcSt11char_traitsIcESaIcEEEb
FNDA:0,_ZNSt8__detail15_BracketMatcherINSt7__cxx1112regex_traitsIcEELb0ELb1EE22_M_add_character_classERKNS1_12basic_stringIcSt11char_traitsIcESaIcEEEb
FN:472,_ZNSt8__detail15_BracketMatcherINSt7__cxx1112regex_traitsIcEELb0ELb0EE22_M_add_character_classERKNS1_12basic_stringIcSt11char_traitsIcESaIcEEEb
FNDA:0,_ZNSt8__detail15_BracketMatcherINSt7__cxx1112regex_traitsIcEELb0ELb0EE22_M_add_character_classERKNS1_12basic_stringIcSt11char_traitsIcESaIcEEEb
FN:488,_ZNSt8__detail15_BracketMatcherINSt7__cxx1112regex_traitsIcEELb1ELb1EE13_M_make_rangeEcc
FNDA:0,_ZNSt8__detail15_BracketMatcherINSt7__cxx1112regex_traitsIcEELb1ELb1EE13_M_make_rangeEcc
FN:488,_ZNSt8__detail15_BracketMatcherINSt7__cxx1112regex_traitsIcEELb1ELb0EE13_M_make_rangeEcc
FNDA:0,_ZNSt8__detail15_BracketMatcherINSt7__cxx1112regex_traitsIcEELb1ELb0EE13_M_make_rangeEcc
FN:488,_ZNSt8__detail15_BracketMatcherINSt7__cxx1112regex_traitsIcEELb0ELb0EE13_M_make_rangeEcc
FNDA:1,_ZNSt8__detail15_BracketMatcherINSt7__cxx1112regex_traitsIcEELb0ELb0EE13_M_make_rangeEcc
FN:488,_ZNSt8__detail15_BracketMatcherINSt7__cxx1112regex_traitsIcEELb0ELb1EE13_M_make_rangeEcc
FNDA:0,_ZNSt8__detail15_BracketMatcherINSt7__cxx1112regex_traitsIcEELb0ELb1EE13_M_make_rangeEcc
FN:499,_ZNSt8__detail15_BracketMatcherINSt7__cxx1112regex_traitsIcEELb1ELb1EE8_M_readyEv
FNDA:0,_ZNSt8__detail15_BracketMatcherINSt7__cxx1112regex_traitsIcEELb1ELb1EE8_M_readyEv
FN:499,_ZNSt8__detail15_BracketMatcherINSt7__cxx1112regex_traitsIcEELb0ELb0EE8_M_readyEv
FNDA:1,_ZNSt8__detail15_BracketMatcherINSt7__cxx1112regex_traitsIcEELb0ELb0EE8_M_readyEv
FN:499,_ZNSt8__detail15_BracketMatcherINSt7__cxx1112regex_traitsIcEELb0ELb1EE8_M_readyEv
FNDA:0,_ZNSt8__detail15_BracketMatcherINSt7__cxx1112regex_traitsIcEELb0ELb1EE8_M_readyEv
FN:499,_ZNSt8__detail15_BracketMatcherINSt7__cxx1112regex_traitsIcEELb1ELb0EE8_M_readyEv
FNDA:0,_ZNSt8__detail15_BracketMatcherINSt7__cxx1112regex_traitsIcEELb1ELb0EE8_M_readyEv
FN:526,_ZNKSt8__detail15_BracketMatcherINSt7__cxx1112regex_traitsIcEELb0ELb1EE8_M_applyEcSt17integral_constantIbLb1EE
FNDA:0,_ZNKSt8__detail15_BracketMatcherINSt7__cxx1112regex_traitsIcEELb0ELb1EE8_M_applyEcSt17integral_constantIbLb1EE
FN:526,_ZNKSt8__detail15_BracketMatcherINSt7__cxx1112regex_traitsIcEELb1ELb0EE8_M_applyEcSt17integral_constantIbLb1EE
FNDA:0,_ZNKSt8__detail15_BracketMatcherINSt7__cxx1112regex_traitsIcEELb1ELb0EE8_M_applyEcSt17integral_constantIbLb1EE
FN:526,_ZNKSt8__detail15_BracketMatcherINSt7__cxx1112regex_traitsIcEELb0ELb0EE8_M_applyEcSt17integral_constantIbLb1EE
FNDA:35,_ZNKSt8__detail15_BracketMatcherINSt7__cxx1112regex_traitsIcEELb0ELb0EE8_M_applyEcSt17integral_constantIbLb1EE
FN:526,_ZNKSt8__detail15_BracketMatcherINSt7__cxx1112regex_traitsIcEELb1ELb1EE8_M_applyEcSt17integral_constantIbLb1EE
FNDA:0,_ZNKSt8__detail15_BracketMatcherINSt7__cxx1112regex_traitsIcEELb1ELb1EE8_M_applyEcSt17integral_constantIbLb1EE
FN:530,_ZNSt8__detail15_BracketMatcherINSt7__cxx1112regex_traitsIcEELb0ELb1EE13_M_make_cacheESt17integral_constantIbLb1EE
FNDA:0,_ZNSt8__detail15_BracketMatcherINSt7__cxx1112regex_traitsIcEELb0ELb1EE13_M_make_cacheESt17integral_constantIbLb1EE
FN:530,_ZNSt8__detail15_BracketMatcherINSt7__cxx1112regex_traitsIcEELb1ELb1EE13_M_make_cacheESt17integral_constantIbLb1EE
FNDA:0,_ZNSt8__detail15_BracketMatcherINSt7__cxx1112regex_traitsIcEELb1ELb1EE13_M_make_cacheESt17integral_constantIbLb1EE
FN:530,_ZNSt8__detail15_BracketMatcherINSt7__cxx1112regex_traitsIcEELb1ELb0EE13_M_make_cacheESt17integral_constantIbLb1EE
FNDA:0,_ZNSt8__detail15_BracketMatcherINSt7__cxx1112regex_traitsIcEELb1ELb0EE13_M_make_cacheESt17integral_constantIbLb1EE
FN:530,_ZNSt8__detail15_BracketMatcherINSt7__cxx1112regex_traitsIcEELb0ELb0EE13_M_make_cacheESt17integral_constantIbLb1EE
FNDA:1,_ZNSt8__detail15_BracketMatcherINSt7__cxx1112regex_traitsIcEELb0ELb0EE13_M_make_cacheESt17integral_constantIbLb1EE
DA:69,1
DA:70,1
DA:140,4
DA:142,4
DA:143,4
DA:144,4
DA:176,1
DA:180,1
DA:181,1
DA:183,1
DA:207,0
DA:208,0
DA:209,0
DA:207,0
DA:208,0
DA:209,0
DA:207,0
DA:208,0
DA:209,0
DA:212,0
DA:215,0
DA:212,0
DA:215,0
DA:212,0
DA:217,0
DA:223,0
DA:225,0
DA:226,0
DA:223,0
DA:225,0
DA:226,0
DA:233,0
DA:235,0
DA:238,0
DA:241,0
DA:242,0
DA:243,0
DA:244,0
DA:245,0
DA:238,0
DA:241,0
DA:242,0
DA:243,0
DA:244,0
DA:245,0
DA:272,0
DA:273,0
DA:276,0
DA:280,0
DA:297,0
DA:303,0
DA:315,1
DA:316,1
DA:319,256
DA:320,256
DA:323,258
DA:324,258
DA:327,256
DA:328,256
DA:341,0
DA:342,0
DA:343,0
DA:341,0
DA:342,0
DA:343,0
DA:341,0
DA:342,0
DA:343,0
DA:341,0
DA:342,0
DA:343,0
DA:346,0
DA:348,0
DA:349,0
DA:346,0
DA:348,0
DA:349,0
DA:346,0
DA:348,0
DA:349,0
DA:346,0
DA:348,0
DA:349,0
DA:362,0
DA:363,0
DA:364,0
DA:362,0
DA:363,0
DA:364,0
DA:362,0
DA:363,0
DA:364,0
DA:362,0
DA:363,0
DA:364,0
DA:367,0
DA:368,0
DA:367,0
DA:368,0
DA:367,0
DA:368,0
DA:367,0
DA:368,0
DA:371,0
DA:373,0
DA:374,0
DA:375,0
DA:376,0
DA:371,0
DA:373,0
DA:374,0
DA:375,0
DA:376,0
DA:371,0
DA:373,0
DA:374,0
DA:375,0
DA:376,0
DA:371,0
DA:373,0
DA:374,0
DA:375,0
DA:376,0
DA:399,0
DA:400,0
DA:401,0
DA:399,0
DA:400,0
DA:401,0
DA:399,0
DA:400,0
DA:401,0
DA:399,0
DA:400,0
DA:401,0
DA:404,0
DA:405,0
DA:404,0
DA:405,0
DA:404,0
DA:405,0
DA:404,0
DA:405,0
DA:423,0
DA:426,0
DA:427,0
DA:423,0
DA:426,0
DA:427,0
DA:423,0
DA:426,0
DA:427,0
DA:423,1
DA:426,1
DA:427,1
DA:430,0
DA:433,0
DA:430,0
DA:433,0
DA:430,0
DA:433,0
DA:430,35
DA:433,35
DA:437,0
DA:439,0
DA:441,0
DA:437,0
DA:439,0
DA:441,0
DA:437,0
DA:439,0
DA:441,0
DA:437,0
DA:439,0
DA:441,0
DA:444,0
DA:446,0
DA:447,0
DA:448,0
DA:449,0
DA:451,0
DA:453,0
DA:444,0
DA:446,0
DA:447,0
DA:448,0
DA:449,0
DA:451,0
DA:453,0
DA:444,0
DA:446,0
DA:447,0
DA:448,0
DA:449,0
DA:451,0
DA:453,0
DA:444,0
DA:446,0
DA:447,0
DA:448,0
DA:449,0
DA:451,0
DA:453,0
DA:457,0
DA:459,0
DA:460,0
DA:461,0
DA:462,0
DA:464,0
DA:465,0
DA:466,0
DA:468,0
DA:457,0
DA:459,0
DA:460,0
DA:461,0
DA:462,0
DA:464,0
DA:465,0
DA:466,0
DA:468,0
DA:457,0
DA:459,0
DA:460,0
DA:461,0
DA:462,0
DA:464,0
DA:465,0
DA:466,0
DA:468,0
DA:457,0
DA:459,0
DA:460,0
DA:461,0
DA:462,0
DA:464,0
DA:465,0
DA:466,0
DA:468,0
DA:472,0
DA:474,0
DA:475,0
DA:477,0
DA:478,0
DA:480,0
DA:481,0
DA:483,0
DA:485,0
DA:472,0
DA:474,0
DA:475,0
DA:477,0
DA:478,0
DA:480,0
DA:481,0
DA:483,0
DA:485,0
DA:472,0
DA:474,0
DA:475,0
DA:477,0
DA:478,0
DA:480,0
DA:481,0
DA:483,0
DA:485,0
DA:472,0
DA:474,0
DA:475,0
DA:477,0
DA:478,0
DA:480,0
DA:481,0
DA:483,0
DA:485,0
DA:488,0
DA:490,0
DA:491,0
DA:493,0
DA:496,0
DA:488,0
DA:490,0
DA:491,0
DA:493,0
DA:496,0
DA:488,0
DA:490,0
DA:491,0
DA:493,0
DA:496,0
DA:488,1
DA:490,1
DA:491,0
DA:493,1
DA:496,1
DA:499,0
DA:501,0
DA:502,0
DA:503,0
DA:504,0
DA:506,0
DA:499,0
DA:501,0
DA:502,0
DA:503,0
DA:504,0
DA:506,0
DA:499,0
DA:501,0
DA:502,0
DA:503,0
DA:504,0
DA:506,0
DA:499,1
DA:501,1
DA:502,1
DA:503,1
DA:504,1
DA:506,1
DA:526,0
DA:527,0
DA:526,0
DA:527,0
DA:526,0
DA:527,0
DA:526,35
DA:527,35
DA:530,0
DA:532,0
DA:533,0
DA:534,0
DA:530,0
DA:532,0
DA:533,0
DA:534,0
DA:530,0
DA:532,0
DA:533,0
DA:534,0
DA:530,1
DA:532,257
DA:533,256
DA:534,1
end_of_record
SF:/usr/include/c++/9/bits/regex_automaton.h
FN:98,_ZNSt8__detail11_State_baseC2ENS_7_OpcodeE
FNDA:7,_ZNSt8__detail11_State_baseC2ENS_7_OpcodeE
FN:104,_ZNSt8__detail11_State_base10_M_has_altEv
FNDA:13,_ZNSt8__detail11_State_base10_M_has_altEv
FN:133,_ZNSt8__detail6_StateIcEC2ENS_7_OpcodeE
FNDA:7,_ZNSt8__detail6_StateIcEC2ENS_7_OpcodeE
FN:139,_ZNSt8__detail6_StateIcEC2ERKS1_
FNDA:17,_ZNSt8__detail6_StateIcEC2ERKS1_
FN:146,_ZNSt8__detail6_StateIcEC2EOS1_
FNDA:15,_ZNSt8__detail6_StateIcEC2EOS1_
FN:156,_ZNSt8__detail6_StateIcED2Ev
FNDA:39,_ZNSt8__detail6_StateIcED2Ev
FN:165,_ZNKSt8__detail6_StateIcE9_M_opcodeEv
FNDA:200,_ZNKSt8__detail6_StateIcE9_M_opcodeEv
FN:169,_ZNKSt8__detail6_StateIcE10_M_matchesEc
FNDA:35,_ZNKSt8__detail6_StateIcE10_M_matchesEc
FN:173,_ZNSt8__detail6_StateIcE14_M_get_matcherEv
FNDA:22,_ZNSt8__detail6_StateIcE14_M_get_matcherEv
FN:177,_ZNKSt8__detail6_StateIcE14_M_get_matcherEv
FNDA:43,_ZNKSt8__detail6_StateIcE14_M_get_matcherEv
FN:190,_ZNSt8__detail9_NFA_baseC2ENSt15regex_constants18syntax_option_typeE
FNDA:1,_ZNSt8__detail9_NFA_baseC2ENSt15regex_constants18syntax_option_typeE
FN:198,_ZNSt8__detail9_NFA_baseD2Ev
FNDA:1,_ZNSt8__detail9_NFA_baseD2Ev
FN:206,_ZNKSt8__detail9_NFA_base8_M_startEv
FNDA:18,_ZNKSt8__detail9_NFA_base8_M_startEv
FN:210,_ZNKSt8__detail9_NFA_base12_M_sub_countEv
FNDA:17,_ZNKSt8__detail9_NFA_base12_M_sub_countEv
FN:228,_ZNSt8__detail4_NFAINSt7__cxx1112regex_traitsIcEEEC2ERKSt6localeNSt15regex_constants18syntax_option_typeE
FNDA:1,_ZNSt8__detail4_NFAINSt7__cxx1112regex_traitsIcEEEC2ERKSt6localeNSt15regex_constants18syntax_option_typeE
FN:237,_ZNSt8__detail4_NFAINSt7__cxx1112regex_traitsIcEEE16_M_insert_acceptEv
FNDA:1,_ZNSt8__detail4_NFAINSt7__cxx1112regex_traitsIcEEE16_M_insert_acceptEv
FN:244,_ZNSt8__detail4_NFAINSt7__cxx1112regex_traitsIcEEE13_M_insert_altEllb
FNDA:0,_ZNSt8__detail4_NFAINSt7__cxx1112regex_traitsIcEEE13_M_insert_altEllb
FN:256,_ZNSt8__detail4_NFAINSt7__cxx1112regex_traitsIcEEE16_M_insert_repeatEllb
FNDA:1,_ZNSt8__detail4_NFAINSt7__cxx1112regex_traitsIcEEE16_M_insert_repeatEllb
FN:268,_ZNSt8__detail4_NFAINSt7__cxx1112regex_traitsIcEEE17_M_insert_matcherESt8functionIFbcEE
FNDA:1,_ZNSt8__detail4_NFAINSt7__cxx1112regex_traitsIcEEE17_M_insert_matcherESt8functionIFbcEE
FN:276,_ZNSt8__detail4_NFAINSt7__cxx1112regex_traitsIcEEE23_M_insert_subexpr_beginEv
FNDA:1,_ZNSt8__detail4_NFAINSt7__cxx1112regex_traitsIcEEE23_M_insert_subexpr_beginEv
FN:286,_ZNSt8__detail4_NFAINSt7__cxx1112regex_traitsIcEEE21_M_insert_subexpr_endEv
FNDA:1,_ZNSt8__detail4_NFAINSt7__cxx1112regex_traitsIcEEE21_M_insert_subexpr_endEv
FN:298,_ZNSt8__detail4_NFAINSt7__cxx1112regex_traitsIcEEE20_M_insert_line_beginEv
FNDA:0,_ZNSt8__detail4_NFAINSt7__cxx1112regex_traitsIcEEE20_M_insert_line_beginEv
FN:302,_ZNSt8__detail4_NFAINSt7__cxx1112regex_traitsIcEEE18_M_insert_line_endEv
FNDA:0,_ZNSt8__detail4_NFAINSt7__cxx1112regex_traitsIcEEE18_M_insert_line_endEv
FN:306,_ZNSt8__detail4_NFAINSt7__cxx1112regex_traitsIcEEE20_M_insert_word_boundEb
FNDA:0,_ZNSt8__detail4_NFAINSt7__cxx1112regex_traitsIcEEE20_M_insert_word_boundEb
FN:314,_ZNSt8__detail4_NFAINSt7__cxx1112regex_traitsIcEEE19_M_insert_lookaheadElb
FNDA:0,_ZNSt8__detail4_NFAINSt7__cxx1112regex_traitsIcEEE19_M_insert_lookaheadElb
FN:323,_ZNSt8__detail4_NFAINSt7__cxx1112regex_traitsIcEEE15_M_insert_dummyEv
FNDA:2,_ZNSt8__detail4_NFAINSt7__cxx1112regex_traitsIcEEE15_M_insert_dummyEv
FN:327,_ZNSt8__detail4_NFAINSt7__cxx1112regex_traitsIcEEE15_M_insert_stateENS_6_StateIcEE
FNDA:9,_ZNSt8__detail4_NFAINSt7__cxx1112regex_traitsIcEEE15_M_insert_stateENS_6_StateIcEE
FN:361,_ZNSt8__detail9_StateSeqINSt7__cxx1112regex_traitsIcEEEC2ERNS_4_NFAIS3_EEl
FNDA:5,_ZNSt8__detail9_StateSeqINSt7__cxx1112regex_traitsIcEEEC2ERNS_4_NFAIS3_EEl
FN:365,_ZNSt8__detail9_StateSeqINSt7__cxx1112regex_traitsIcEEEC2ERNS_4_NFAIS3_EEll
FNDA:2,_ZNSt8__detail9_StateSeqINSt7__cxx1112regex_traitsIcEEEC2ERNS_4_NFAIS3_EEll
FN:371,_ZNSt8__detail9_StateSeqINSt7__cxx1112regex_traitsIcEEE9_M_appendEl
FNDA:3,_ZNSt8__detail9_StateSeqINSt7__cxx1112regex_traitsIcEEE9_M_appendEl
FN:379,_ZNSt8__detail9_StateSeqINSt7__cxx1112regex_traitsIcEEE9_M_appendERKS4_
FNDA:5,_ZNSt8__detail9_StateSeqINSt7__cxx1112regex_traitsIcEEE9_M_appendERKS4_
DA:98,7
DA:99,7
DA:100,7
DA:104,13
DA:106,13
DA:107,13
DA:108,26
DA:133,7
DA:135,7
DA:136,1
DA:137,7
DA:139,17
DA:141,17
DA:142,8
DA:144,17
DA:146,15
DA:148,15
DA:149,6
DA:150,6
DA:151,15
DA:156,39
DA:158,39
DA:159,15
DA:160,39
DA:165,200
DA:166,200
DA:169,35
DA:170,35
DA:173,22
DA:174,22
DA:177,43
DA:180,43
DA:190,1
DA:191,1
DA:192,1
DA:193,1
DA:198,1
DA:206,18
DA:207,18
DA:210,17
DA:211,17
DA:228,1
DA:229,1
DA:230,1
DA:237,1
DA:239,1
DA:240,1
DA:244,0
DA:247,0
DA:250,0
DA:251,0
DA:252,0
DA:256,1
DA:258,1
DA:261,1
DA:262,1
DA:263,1
DA:264,2
DA:268,1
DA:270,1
DA:271,1
DA:272,2
DA:276,1
DA:278,1
DA:279,1
DA:280,1
DA:281,1
DA:282,2
DA:286,1
DA:288,1
DA:289,1
DA:290,1
DA:291,2
DA:298,0
DA:299,0
DA:302,0
DA:303,0
DA:306,0
DA:308,0
DA:309,0
DA:310,0
DA:314,0
DA:316,0
DA:317,0
DA:318,0
DA:319,0
DA:323,2
DA:324,2
DA:327,9
DA:329,9
DA:330,9
DA:331,0
DA:336,9
DA:361,5
DA:362,5
DA:363,5
DA:365,2
DA:366,2
DA:367,2
DA:371,3
DA:373,3
DA:374,3
DA:375,3
DA:379,5
DA:381,5
DA:382,5
DA:383,5
end_of_record
SF:/usr/include/armadillo_bits/glue_solve_bones.hpp
FN:92,_ZN4arma10solve_opts4optsC2Ey
FNDA:48,_ZN4arma10solve_opts4optsC2Ey
FN:121,_ZN4arma10solve_opts9opts_noneC2Ev
FNDA:4,_ZN4arma10solve_opts9opts_noneC2Ev
FN:122,_ZN4arma10solve_opts9opts_fastC2Ev
FNDA:4,_ZN4arma10solve_opts9opts_fastC2Ev
FN:123,_ZN4arma10solve_opts16opts_equilibrateC2Ev
FNDA:4,_ZN4arma10solve_opts16opts_equilibrateC2Ev
FN:124,_ZN4arma10solve_opts14opts_no_approxC2Ev
FNDA:4,_ZN4arma10solve_opts14opts_no_approxC2Ev
FN:125,_ZN4arma10solve_opts9opts_triuC2Ev
FNDA:4,_ZN4arma10solve_opts9opts_triuC2Ev
FN:126,_ZN4arma10solve_opts9opts_trilC2Ev
FNDA:4,_ZN4arma10solve_opts9opts_trilC2Ev
FN:127,_ZN4arma10solve_opts12opts_no_bandC2Ev
FNDA:4,_ZN4arma10solve_opts12opts_no_bandC2Ev
FN:128,_ZN4arma10solve_opts13opts_no_sympdC2Ev
FNDA:4,_ZN4arma10solve_opts13opts_no_sympdC2Ev
FN:129,_ZN4arma10solve_opts15opts_allow_uglyC2Ev
FNDA:4,_ZN4arma10solve_opts15opts_allow_uglyC2Ev
FN:130,_ZN4arma10solve_opts17opts_likely_sympdC2Ev
FNDA:4,_ZN4arma10solve_opts17opts_likely_sympdC2Ev
FN:131,_ZN4arma10solve_opts11opts_refineC2Ev
FNDA:4,_ZN4arma10solve_opts11opts_refineC2Ev
FN:132,_ZN4arma10solve_opts14opts_no_trimatC2Ev
FNDA:4,_ZN4arma10solve_opts14opts_no_trimatC2Ev
DA:92,48
DA:93,48
DA:94,48
DA:121,4
DA:122,4
DA:123,4
DA:124,4
DA:125,4
DA:126,4
DA:127,4
DA:128,4
DA:129,4
DA:130,4
DA:131,4
DA:132,4
end_of_record
SF:/usr/include/c++/9/iostream
end_of_record
SF:/usr/include/c++/9/type_traits
FN:62,_ZNKSt17integral_constantIbLb1EEcvbEv
FNDA:0,_ZNKSt17integral_constantIbLb1EEcvbEv
DA:62,0
end_of_record
SF:/usr/include/c++/9/bits/locale_facets.h
FN:802,_ZNKSt5ctypeIcE7toupperEc
FNDA:0,_ZNKSt5ctypeIcE7toupperEc
FN:835,_ZNKSt5ctypeIcE7tolowerEc
FNDA:0,_ZNKSt5ctypeIcE7tolowerEc
FN:852,_ZNKSt5ctypeIcE7tolowerEPcPKc
FNDA:246,_ZNKSt5ctypeIcE7tolowerEPcPKc
FN:872,_ZNKSt5ctypeIcE5widenEc
FNDA:0,_ZNKSt5ctypeIcE5widenEc
FN:931,_ZNKSt5ctypeIcE6narrowEcc
FNDA:2,_ZNKSt5ctypeIcE6narrowEcc
DA:802,0
DA:803,0
DA:835,0
DA:836,0
DA:852,246
DA:853,246
DA:872,0
DA:874,0
DA:875,0
DA:876,0
DA:877,0
DA:931,2
DA:933,2
DA:934,0
DA:935,2
DA:936,2
DA:937,2
DA:938,2
end_of_record
SF:/usr/include/c++/9/bits/stl_heap.h
FN:128,_ZSt11__push_heapIN9__gnu_cxx17__normal_iteratorIPcSt6vectorIcSaIcEEEElcNS0_5__ops14_Iter_less_valEEvT_T0_SA_T1_RT2_
FNDA:0,_ZSt11__push_heapIN9__gnu_cxx17__normal_iteratorIPcSt6vectorIcSaIcEEEElcNS0_5__ops14_Iter_less_valEEvT_T0_SA_T1_RT2_
FN:214,_ZSt13__adjust_heapIN9__gnu_cxx17__normal_iteratorIPcSt6vectorIcSaIcEEEElcNS0_5__ops15_Iter_less_iterEEvT_T0_SA_T1_T2_
FNDA:0,_ZSt13__adjust_heapIN9__gnu_cxx17__normal_iteratorIPcSt6vectorIcSaIcEEEElcNS0_5__ops15_Iter_less_iterEEvT_T0_SA_T1_T2_
FN:243,_ZSt10__pop_heapIN9__gnu_cxx17__normal_iteratorIPcSt6vectorIcSaIcEEEENS0_5__ops15_Iter_less_iterEEvT_S9_S9_RT0_
FNDA:0,_ZSt10__pop_heapIN9__gnu_cxx17__normal_iteratorIPcSt6vectorIcSaIcEEEENS0_5__ops15_Iter_less_iterEEvT_S9_S9_RT0_
FN:326,_ZSt11__make_heapIN9__gnu_cxx17__normal_iteratorIPcSt6vectorIcSaIcEEEENS0_5__ops15_Iter_less_iterEEvT_S9_RT0_
FNDA:0,_ZSt11__make_heapIN9__gnu_cxx17__normal_iteratorIPcSt6vectorIcSaIcEEEENS0_5__ops15_Iter_less_iterEEvT_S9_RT0_
FN:402,_ZSt11__sort_heapIN9__gnu_cxx17__normal_iteratorIPcSt6vectorIcSaIcEEEENS0_5__ops15_Iter_less_iterEEvT_S9_RT0_
FNDA:0,_ZSt11__sort_heapIN9__gnu_cxx17__normal_iteratorIPcSt6vectorIcSaIcEEEENS0_5__ops15_Iter_less_iterEEvT_S9_RT0_
DA:128,0
DA:132,0
DA:133,0
DA:135,0
DA:136,0
DA:137,0
DA:139,0
DA:140,0
DA:214,0
DA:217,0
DA:218,0
DA:219,0
DA:221,0
DA:222,0
DA:224,0
DA:225,0
DA:226,0
DA:228,0
DA:230,0
DA:231,0
DA:233,0
DA:236,0
DA:237,0
DA:238,0
DA:239,0
DA:243,0
DA:251,0
DA:252,0
DA:253,0
DA:254,0
DA:255,0
DA:256,0
DA:326,0
DA:334,0
DA:335,0
DA:337,0
DA:338,0
DA:339,0
DA:341,0
DA:342,0
DA:344,0
DA:345,0
DA:346,0
DA:402,0
DA:405,0
DA:407,0
DA:408,0
DA:410,0
end_of_record
SF:/usr/include/c++/9/ext/new_allocator.h
FN:80,_ZN9__gnu_cxx13new_allocatorIcEC2Ev
FNDA:0,_ZN9__gnu_cxx13new_allocatorIcEC2Ev
FN:80,_ZN9__gnu_cxx13new_allocatorISt13_Rb_tree_nodeISt4pairIKllEEEC2Ev
FNDA:2,_ZN9__gnu_cxx13new_allocatorISt13_Rb_tree_nodeISt4pairIKllEEEC2Ev
FN:80,_ZN9__gnu_cxx13new_allocatorISt23_Sp_counted_ptr_inplaceINSt8__detail4_NFAINSt7__cxx1112regex_traitsIcEEEESaIS7_ELNS_12_Lock_policyE2EEEC2Ev
FNDA:2,_ZN9__gnu_cxx13new_allocatorISt23_Sp_counted_ptr_inplaceINSt8__detail4_NFAINSt7__cxx1112regex_traitsIcEEEESaIS7_ELNS_12_Lock_policyE2EEEC2Ev
FN:80,_ZN9__gnu_cxx13new_allocatorINSt8__detail9_StateSeqINSt7__cxx1112regex_traitsIcEEEEEC2Ev
FNDA:1,_ZN9__gnu_cxx13new_allocatorINSt8__detail9_StateSeqINSt7__cxx1112regex_traitsIcEEEEEC2Ev
FN:80,_ZN9__gnu_cxx13new_allocatorINSt7__cxx1112basic_stringIcSt11char_traitsIcESaIcEEEEC2Ev
FNDA:1,_ZN9__gnu_cxx13new_allocatorINSt7__cxx1112basic_stringIcSt11char_traitsIcESaIcEEEEC2Ev
FN:80,_ZN9__gnu_cxx13new_allocatorISt4pairIccEEC2Ev
FNDA:1,_ZN9__gnu_cxx13new_allocatorISt4pairIccEEC2Ev
FN:80,_ZN9__gnu_cxx13new_allocatorINSt7__cxx1112regex_traitsIcE10_RegexMaskEEC2Ev
FNDA:1,_ZN9__gnu_cxx13new_allocatorINSt7__cxx1112regex_traitsIcE10_RegexMaskEEC2Ev
FN:80,_ZN9__gnu_cxx13new_allocatorIPNSt8__detail9_StateSeqINSt7__cxx1112regex_traitsIcEEEEEC2Ev
FNDA:2,_ZN9__gnu_cxx13new_allocatorIPNSt8__detail9_StateSeqINSt7__cxx1112regex_traitsIcEEEEEC2Ev
FN:80,_ZN9__gnu_cxx13new_allocatorISt4pairINSt7__cxx1112basic_stringIcSt11char_traitsIcESaIcEEES7_EEC2Ev
FNDA:0,_ZN9__gnu_cxx13new_allocatorISt4pairINSt7__cxx1112basic_stringIcSt11char_traitsIcESaIcEEES7_EEC2Ev
FN:80,_ZN9__gnu_cxx13new_allocatorIlEC2Ev
FNDA:2,_ZN9__gnu_cxx13new_allocatorIlEC2Ev
FN:80,_ZN9__gnu_cxx13new_allocatorIPlEC2Ev
FNDA:4,_ZN9__gnu_cxx13new_allocatorIPlEC2Ev
FN:80,_ZN9__gnu_cxx13new_allocatorISt4pairIlSt6vectorINSt7__cxx119sub_matchINS_17__normal_iteratorIPKcNS3_12basic_stringIcSt11char_traitsIcESaIcEEEEEEESaISE_EEEEC2Ev
FNDA:0,_ZN9__gnu_cxx13new_allocatorISt4pairIlSt6vectorINSt7__cxx119sub_matchINS_17__normal_iteratorIPKcNS3_12basic_stringIcSt11char_traitsIcESaIcEEEEEEESaISE_EEEEC2Ev
FN:80,_ZN9__gnu_cxx13new_allocatorINSt8__detail4_NFAINSt7__cxx1112regex_traitsIcEEEEEC2Ev
FNDA:1,_ZN9__gnu_cxx13new_allocatorINSt8__detail4_NFAINSt7__cxx1112regex_traitsIcEEEEEC2Ev
FN:80,_ZN9__gnu_cxx13new_allocatorINSt8__detail6_StateIcEEEC2Ev
FNDA:1,_ZN9__gnu_cxx13new_allocatorINSt8__detail6_StateIcEEEC2Ev
FN:80,_ZN9__gnu_cxx13new_allocatorISt4pairINS_17__normal_iteratorIPKcNSt7__cxx1112basic_stringIcSt11char_traitsIcESaIcEEEEEiEEC2Ev
FNDA:17,_ZN9__gnu_cxx13new_allocatorISt4pairINS_17__normal_iteratorIPKcNSt7__cxx1112basic_stringIcSt11char_traitsIcESaIcEEEEEiEEC2Ev
FN:80,_ZN9__gnu_cxx13new_allocatorImEC2Ev
FNDA:1,_ZN9__gnu_cxx13new_allocatorImEC2Ev
FN:80,_ZN9__gnu_cxx13new_allocatorINSt7__cxx119sub_matchINS_17__normal_iteratorIPKcNS1_12basic_stringIcSt11char_traitsIcESaIcEEEEEEEEC2Ev
FNDA:41,_ZN9__gnu_cxx13new_allocatorINSt7__cxx119sub_matchINS_17__normal_iteratorIPKcNS1_12basic_stringIcSt11char_traitsIcESaIcEEEEEEEEC2Ev
FN:83,_ZN9__gnu_cxx13new_allocatorISt4pairINSt7__cxx1112basic_stringIcSt11char_traitsIcESaIcEEES7_EEC2ERKS9_
FNDA:0,_ZN9__gnu_cxx13new_allocatorISt4pairINSt7__cxx1112basic_stringIcSt11char_traitsIcESaIcEEES7_EEC2ERKS9_
FN:83,_ZN9__gnu_cxx13new_allocatorIcEC2ERKS1_
FNDA:0,_ZN9__gnu_cxx13new_allocatorIcEC2ERKS1_
FN:83,_ZN9__gnu_cxx13new_allocatorINSt8__detail4_NFAINSt7__cxx1112regex_traitsIcEEEEEC2ERKS7_
FNDA:3,_ZN9__gnu_cxx13new_allocatorINSt8__detail4_NFAINSt7__cxx1112regex_traitsIcEEEEEC2ERKS7_
FN:83,_ZN9__gnu_cxx13new_allocatorINSt7__cxx1112regex_traitsIcE10_RegexMaskEEC2ERKS5_
FNDA:18,_ZN9__gnu_cxx13new_allocatorINSt7__cxx1112regex_traitsIcE10_RegexMaskEEC2ERKS5_
FN:83,_ZN9__gnu_cxx13new_allocatorINSt7__cxx119sub_matchINS_17__normal_iteratorIPKcNS1_12basic_stringIcSt11char_traitsIcESaIcEEEEEEEEC2ERKSD_
FNDA:48,_ZN9__gnu_cxx13new_allocatorINSt7__cxx119sub_matchINS_17__normal_iteratorIPKcNS1_12basic_stringIcSt11char_traitsIcESaIcEEEEEEEEC2ERKSD_
FN:83,_ZN9__gnu_cxx13new_allocatorISt4pairIccEEC2ERKS3_
FNDA:18,_ZN9__gnu_cxx13new_allocatorISt4pairIccEEC2ERKS3_
FN:83,_ZN9__gnu_cxx13new_allocatorISt4pairIlSt6vectorINSt7__cxx119sub_matchINS_17__normal_iteratorIPKcNS3_12basic_stringIcSt11char_traitsIcESaIcEEEEEEESaISE_EEEEC2ERKSI_
FNDA:0,_ZN9__gnu_cxx13new_allocatorISt4pairIlSt6vectorINSt7__cxx119sub_matchINS_17__normal_iteratorIPKcNS3_12basic_stringIcSt11char_traitsIcESaIcEEEEEEESaISE_EEEEC2ERKSI_
FN:83,_ZN9__gnu_cxx13new_allocatorINSt7__cxx1112basic_stringIcSt11char_traitsIcESaIcEEEEC2ERKS7_
FNDA:18,_ZN9__gnu_cxx13new_allocatorINSt7__cxx1112basic_stringIcSt11char_traitsIcESaIcEEEEC2ERKS7_
FN:83,_ZN9__gnu_cxx13new_allocatorISt4pairINS_17__normal_iteratorIPKcNSt7__cxx1112basic_stringIcSt11char_traitsIcESaIcEEEEEiEEC2ERKSD_
FNDA:34,_ZN9__gnu_cxx13new_allocatorISt4pairINS_17__normal_iteratorIPKcNSt7__cxx1112basic_stringIcSt11char_traitsIcESaIcEEEEEiEEC2ERKSD_
FN:89,_ZN9__gnu_cxx13new_allocatorINSt7__cxx119sub_matchINS_17__normal_iteratorIPKcNS1_12basic_stringIcSt11char_traitsIcESaIcEEEEEEEED2Ev
FNDA:89,_ZN9__gnu_cxx13new_allocatorINSt7__cxx119sub_matchINS_17__normal_iteratorIPKcNS1_12basic_stringIcSt11char_traitsIcESaIcEEEEEEEED2Ev
FN:89,_ZN9__gnu_cxx13new_allocatorIPNSt8__detail9_StateSeqINSt7__cxx1112regex_traitsIcEEEEED2Ev
FNDA:2,_ZN9__gnu_cxx13new_allocatorIPNSt8__detail9_StateSeqINSt7__cxx1112regex_traitsIcEEEEED2Ev
FN:89,_ZN9__gnu_cxx13new_allocatorIPlED2Ev
FNDA:4,_ZN9__gnu_cxx13new_allocatorIPlED2Ev
FN:89,_ZN9__gnu_cxx13new_allocatorIlED2Ev
FNDA:2,_ZN9__gnu_cxx13new_allocatorIlED2Ev
FN:89,_ZN9__gnu_cxx13new_allocatorIcED2Ev
FNDA:0,_ZN9__gnu_cxx13new_allocatorIcED2Ev
FN:89,_ZN9__gnu_cxx13new_allocatorISt4pairIccEED2Ev
FNDA:19,_ZN9__gnu_cxx13new_allocatorISt4pairIccEED2Ev
FN:89,_ZN9__gnu_cxx13new_allocatorINSt7__cxx1112basic_stringIcSt11char_traitsIcESaIcEEEED2Ev
FNDA:19,_ZN9__gnu_cxx13new_allocatorINSt7__cxx1112basic_stringIcSt11char_traitsIcESaIcEEEED2Ev
FN:89,_ZN9__gnu_cxx13new_allocatorImED2Ev
FNDA:1,_ZN9__gnu_cxx13new_allocatorImED2Ev
FN:89,_ZN9__gnu_cxx13new_allocatorISt23_Sp_counted_ptr_inplaceINSt8__detail4_NFAINSt7__cxx1112regex_traitsIcEEEESaIS7_ELNS_12_Lock_policyE2EEED2Ev
FNDA:2,_ZN9__gnu_cxx13new_allocatorISt23_Sp_counted_ptr_inplaceINSt8__detail4_NFAINSt7__cxx1112regex_traitsIcEEEESaIS7_ELNS_12_Lock_policyE2EEED2Ev
FN:89,_ZN9__gnu_cxx13new_allocatorINSt8__detail6_StateIcEEED2Ev
FNDA:1,_ZN9__gnu_cxx13new_allocatorINSt8__detail6_StateIcEEED2Ev
FN:89,_ZN9__gnu_cxx13new_allocatorINSt7__cxx1112regex_traitsIcE10_RegexMaskEED2Ev
FNDA:19,_ZN9__gnu_cxx13new_allocatorINSt7__cxx1112regex_traitsIcE10_RegexMaskEED2Ev
FN:89,_ZN9__gnu_cxx13new_allocatorINSt8__detail9_StateSeqINSt7__cxx1112regex_traitsIcEEEEED2Ev
FNDA:1,_ZN9__gnu_cxx13new_allocatorINSt8__detail9_StateSeqINSt7__cxx1112regex_traitsIcEEEEED2Ev
FN:89,_ZN9__gnu_cxx13new_allocatorINSt8__detail4_NFAINSt7__cxx1112regex_traitsIcEEEEED2Ev
FNDA:4,_ZN9__gnu_cxx13new_allocatorINSt8__detail4_NFAINSt7__cxx1112regex_traitsIcEEEEED2Ev
FN:89,_ZN9__gnu_cxx13new_allocatorISt4pairINSt7__cxx1112basic_stringIcSt11char_traitsIcESaIcEEES7_EED2Ev
FNDA:0,_ZN9__gnu_cxx13new_allocatorISt4pairINSt7__cxx1112basic_stringIcSt11char_traitsIcESaIcEEES7_EED2Ev
FN:89,_ZN9__gnu_cxx13new_allocatorISt4pairIlSt6vectorINSt7__cxx119sub_matchINS_17__normal_iteratorIPKcNS3_12basic_stringIcSt11char_traitsIcESaIcEEEEEEESaISE_EEEED2Ev
FNDA:0,_ZN9__gnu_cxx13new_allocatorISt4pairIlSt6vectorINSt7__cxx119sub_matchINS_17__normal_iteratorIPKcNS3_12basic_stringIcSt11char_traitsIcESaIcEEEEEEESaISE_EEEED2Ev
FN:89,_ZN9__gnu_cxx13new_allocatorISt13_Rb_tree_nodeISt4pairIKllEEED2Ev
FNDA:2,_ZN9__gnu_cxx13new_allocatorISt13_Rb_tree_nodeISt4pairIKllEEED2Ev
FN:89,_ZN9__gnu_cxx13new_allocatorISt4pairINS_17__normal_iteratorIPKcNSt7__cxx1112basic_stringIcSt11char_traitsIcESaIcEEEEEiEED2Ev
FNDA:51,_ZN9__gnu_cxx13new_allocatorISt4pairINS_17__normal_iteratorIPKcNSt7__cxx1112basic_stringIcSt11char_traitsIcESaIcEEEEEiEED2Ev
FN:102,_ZN9__gnu_cxx13new_allocatorINSt8__detail6_StateIcEEE8allocateEmPKv
FNDA:5,_ZN9__gnu_cxx13new_allocatorINSt8__detail6_StateIcEEE8allocateEmPKv
FN:102,_ZN9__gnu_cxx13new_allocatorINSt8__detail9_StateSeqINSt7__cxx1112regex_traitsIcEEEEE8allocateEmPKv
FNDA:1,_ZN9__gnu_cxx13new_allocatorINSt8__detail9_StateSeqINSt7__cxx1112regex_traitsIcEEEEE8allocateEmPKv
FN:102,_ZN9__gnu_cxx13new_allocatorIPNSt8__detail9_StateSeqINSt7__cxx1112regex_traitsIcEEEEE8allocateEmPKv
FNDA:1,_ZN9__gnu_cxx13new_allocatorIPNSt8__detail9_StateSeqINSt7__cxx1112regex_traitsIcEEEEE8allocateEmPKv
FN:102,_ZN9__gnu_cxx13new_allocatorISt4pairIlSt6vectorINSt7__cxx119sub_matchINS_17__normal_iteratorIPKcNS3_12basic_stringIcSt11char_traitsIcESaIcEEEEEEESaISE_EEEE8allocateEmPKv
FNDA:0,_ZN9__gnu_cxx13new_allocatorISt4pairIlSt6vectorINSt7__cxx119sub_matchINS_17__normal_iteratorIPKcNS3_12basic_stringIcSt11char_traitsIcESaIcEEEEEEESaISE_EEEE8allocateEmPKv
FN:102,_ZN9__gnu_cxx13new_allocatorISt23_Sp_counted_ptr_inplaceINSt8__detail4_NFAINSt7__cxx1112regex_traitsIcEEEESaIS7_ELNS_12_Lock_policyE2EEE8allocateEmPKv
FNDA:1,_ZN9__gnu_cxx13new_allocatorISt23_Sp_counted_ptr_inplaceINSt8__detail4_NFAINSt7__cxx1112regex_traitsIcEEEESaIS7_ELNS_12_Lock_policyE2EEE8allocateEmPKv
FN:102,_ZN9__gnu_cxx13new_allocatorISt4pairIccEE8allocateEmPKv
FNDA:9,_ZN9__gnu_cxx13new_allocatorISt4pairIccEE8allocateEmPKv
FN:102,_ZN9__gnu_cxx13new_allocatorINSt7__cxx1112basic_stringIcSt11char_traitsIcESaIcEEEE8allocateEmPKv
FNDA:0,_ZN9__gnu_cxx13new_allocatorINSt7__cxx1112basic_stringIcSt11char_traitsIcESaIcEEEE8allocateEmPKv
FN:102,_ZN9__gnu_cxx13new_allocatorIcE8allocateEmPKv
FNDA:246,_ZN9__gnu_cxx13new_allocatorIcE8allocateEmPKv
FN:102,_ZN9__gnu_cxx13new_allocatorINSt7__cxx119sub_matchINS_17__normal_iteratorIPKcNS1_12basic_stringIcSt11char_traitsIcESaIcEEEEEEEE8allocateEmPKv
FNDA:34,_ZN9__gnu_cxx13new_allocatorINSt7__cxx119sub_matchINS_17__normal_iteratorIPKcNS1_12basic_stringIcSt11char_traitsIcESaIcEEEEEEEE8allocateEmPKv
FN:102,_ZN9__gnu_cxx13new_allocatorIPlE8allocateEmPKv
FNDA:2,_ZN9__gnu_cxx13new_allocatorIPlE8allocateEmPKv
FN:102,_ZN9__gnu_cxx13new_allocatorISt13_Rb_tree_nodeISt4pairIKllEEE8allocateEmPKv
FNDA:2,_ZN9__gnu_cxx13new_allocatorISt13_Rb_tree_nodeISt4pairIKllEEE8allocateEmPKv
FN:102,_ZN9__gnu_cxx13new_allocatorINSt7__cxx1112regex_traitsIcE10_RegexMaskEE8allocateEmPKv
FNDA:0,_ZN9__gnu_cxx13new_allocatorINSt7__cxx1112regex_traitsIcE10_RegexMaskEE8allocateEmPKv
FN:102,_ZN9__gnu_cxx13new_allocatorIlE8allocateEmPKv
FNDA:2,_ZN9__gnu_cxx13new_allocatorIlE8allocateEmPKv
FN:102,_ZN9__gnu_cxx13new_allocatorImE8allocateEmPKv
FNDA:1,_ZN9__gnu_cxx13new_allocatorImE8allocateEmPKv
FN:102,_ZN9__gnu_cxx13new_allocatorISt4pairINS_17__normal_iteratorIPKcNSt7__cxx1112basic_stringIcSt11char_traitsIcESaIcEEEEEiEE8allocateEmPKv
FNDA:17,_ZN9__gnu_cxx13new_allocatorISt4pairINS_17__normal_iteratorIPKcNSt7__cxx1112basic_stringIcSt11char_traitsIcESaIcEEEEEiEE8allocateEmPKv
FN:102,_ZN9__gnu_cxx13new_allocatorISt4pairINSt7__cxx1112basic_stringIcSt11char_traitsIcESaIcEEES7_EE8allocateEmPKv
FNDA:0,_ZN9__gnu_cxx13new_allocatorISt4pairINSt7__cxx1112basic_stringIcSt11char_traitsIcESaIcEEES7_EE8allocateEmPKv
FN:119,_ZN9__gnu_cxx13new_allocatorISt4pairINS_17__normal_iteratorIPKcNSt7__cxx1112basic_stringIcSt11char_traitsIcESaIcEEEEEiEE10deallocateEPSC_m
FNDA:17,_ZN9__gnu_cxx13new_allocatorISt4pairINS_17__normal_iteratorIPKcNSt7__cxx1112basic_stringIcSt11char_traitsIcESaIcEEEEEiEE10deallocateEPSC_m
FN:119,_ZN9__gnu_cxx13new_allocatorISt4pairIlSt6vectorINSt7__cxx119sub_matchINS_17__normal_iteratorIPKcNS3_12basic_stringIcSt11char_traitsIcESaIcEEEEEEESaISE_EEEE10deallocateEPSH_m
FNDA:0,_ZN9__gnu_cxx13new_allocatorISt4pairIlSt6vectorINSt7__cxx119sub_matchINS_17__normal_iteratorIPKcNS3_12basic_stringIcSt11char_traitsIcESaIcEEEEEEESaISE_EEEE10deallocateEPSH_m
FN:119,_ZN9__gnu_cxx13new_allocatorINSt8__detail6_StateIcEEE10deallocateEPS3_m
FNDA:5,_ZN9__gnu_cxx13new_allocatorINSt8__detail6_StateIcEEE10deallocateEPS3_m
FN:119,_ZN9__gnu_cxx13new_allocatorIPNSt8__detail9_StateSeqINSt7__cxx1112regex_traitsIcEEEEE10deallocateEPS7_m
FNDA:1,_ZN9__gnu_cxx13new_allocatorIPNSt8__detail9_StateSeqINSt7__cxx1112regex_traitsIcEEEEE10deallocateEPS7_m
FN:119,_ZN9__gnu_cxx13new_allocatorImE10deallocateEPmm
FNDA:1,_ZN9__gnu_cxx13new_allocatorImE10deallocateEPmm
FN:119,_ZN9__gnu_cxx13new_allocatorINSt8__detail9_StateSeqINSt7__cxx1112regex_traitsIcEEEEE10deallocateEPS6_m
FNDA:1,_ZN9__gnu_cxx13new_allocatorINSt8__detail9_StateSeqINSt7__cxx1112regex_traitsIcEEEEE10deallocateEPS6_m
FN:119,_ZN9__gnu_cxx13new_allocatorINSt7__cxx119sub_matchINS_17__normal_iteratorIPKcNS1_12basic_stringIcSt11char_traitsIcESaIcEEEEEEEE10deallocateEPSC_m
FNDA:34,_ZN9__gnu_cxx13new_allocatorINSt7__cxx119sub_matchINS_17__normal_iteratorIPKcNS1_12basic_stringIcSt11char_traitsIcESaIcEEEEEEEE10deallocateEPSC_m
FN:119,_ZN9__gnu_cxx13new_allocatorIcE10deallocateEPcm
FNDA:246,_ZN9__gnu_cxx13new_allocatorIcE10deallocateEPcm
FN:119,_ZN9__gnu_cxx13new_allocatorISt23_Sp_counted_ptr_inplaceINSt8__detail4_NFAINSt7__cxx1112regex_traitsIcEEEESaIS7_ELNS_12_Lock_policyE2EEE10deallocateEPSA_m
FNDA:1,_ZN9__gnu_cxx13new_allocatorISt23_Sp_counted_ptr_inplaceINSt8__detail4_NFAINSt7__cxx1112regex_traitsIcEEEESaIS7_ELNS_12_Lock_policyE2EEE10deallocateEPSA_m
FN:119,_ZN9__gnu_cxx13new_allocatorIlE10deallocateEPlm
FNDA:2,_ZN9__gnu_cxx13new_allocatorIlE10deallocateEPlm
FN:119,_ZN9__gnu_cxx13new_allocatorISt13_Rb_tree_nodeISt4pairIKllEEE10deallocateEPS5_m
FNDA:2,_ZN9__gnu_cxx13new_allocatorISt13_Rb_tree_nodeISt4pairIKllEEE10deallocateEPS5_m
FN:119,_ZN9__gnu_cxx13new_allocatorIPlE10deallocateEPS1_m
FNDA:2,_ZN9__gnu_cxx13new_allocatorIPlE10deallocateEPS1_m
FN:119,_ZN9__gnu_cxx13new_allocatorISt4pairINSt7__cxx1112basic_stringIcSt11char_traitsIcESaIcEEES7_EE10deallocateEPS8_m
FNDA:0,_ZN9__gnu_cxx13new_allocatorISt4pairINSt7__cxx1112basic_stringIcSt11char_traitsIcESaIcEEES7_EE10deallocateEPS8_m
FN:119,_ZN9__gnu_cxx13new_allocatorINSt7__cxx1112regex_traitsIcE10_RegexMaskEE10deallocateEPS4_m
FNDA:0,_ZN9__gnu_cxx13new_allocatorINSt7__cxx1112regex_traitsIcE10_RegexMaskEE10deallocateEPS4_m
FN:119,_ZN9__gnu_cxx13new_allocatorISt4pairIccEE10deallocateEPS2_m
FNDA:9,_ZN9__gnu_cxx13new_allocatorISt4pairIccEE10deallocateEPS2_m
FN:119,_ZN9__gnu_cxx13new_allocatorINSt7__cxx1112basic_stringIcSt11char_traitsIcESaIcEEEE10deallocateEPS6_m
FNDA:0,_ZN9__gnu_cxx13new_allocatorINSt7__cxx1112basic_stringIcSt11char_traitsIcESaIcEEEE10deallocateEPS6_m
FN:132,_ZNK9__gnu_cxx13new_allocatorINSt8__detail9_StateSeqINSt7__cxx1112regex_traitsIcEEEEE8max_sizeEv
FNDA:1,_ZNK9__gnu_cxx13new_allocatorINSt8__detail9_StateSeqINSt7__cxx1112regex_traitsIcEEEEE8max_sizeEv
FN:132,_ZNK9__gnu_cxx13new_allocatorINSt7__cxx119sub_matchINS_17__normal_iteratorIPKcNS1_12basic_stringIcSt11char_traitsIcESaIcEEEEEEEE8max_sizeEv
FNDA:54,_ZNK9__gnu_cxx13new_allocatorINSt7__cxx119sub_matchINS_17__normal_iteratorIPKcNS1_12basic_stringIcSt11char_traitsIcESaIcEEEEEEEE8max_sizeEv
FN:132,_ZNK9__gnu_cxx13new_allocatorISt4pairINS_17__normal_iteratorIPKcNSt7__cxx1112basic_stringIcSt11char_traitsIcESaIcEEEEEiEE8max_sizeEv
FNDA:34,_ZNK9__gnu_cxx13new_allocatorISt4pairINS_17__normal_iteratorIPKcNSt7__cxx1112basic_stringIcSt11char_traitsIcESaIcEEEEEiEE8max_sizeEv
FN:132,_ZNK9__gnu_cxx13new_allocatorIlE8max_sizeEv
FNDA:2,_ZNK9__gnu_cxx13new_allocatorIlE8max_sizeEv
FN:132,_ZNK9__gnu_cxx13new_allocatorINSt7__cxx1112regex_traitsIcE10_RegexMaskEE8max_sizeEv
FNDA:0,_ZNK9__gnu_cxx13new_allocatorINSt7__cxx1112regex_traitsIcE10_RegexMaskEE8max_sizeEv
FN:132,_ZNK9__gnu_cxx13new_allocatorINSt8__detail6_StateIcEEE8max_sizeEv
FNDA:15,_ZNK9__gnu_cxx13new_allocatorINSt8__detail6_StateIcEEE8max_sizeEv
FN:132,_ZNK9__gnu_cxx13new_allocatorIcE8max_sizeEv
FNDA:492,_ZNK9__gnu_cxx13new_allocatorIcE8max_sizeEv
FN:132,_ZNK9__gnu_cxx13new_allocatorIPNSt8__detail9_StateSeqINSt7__cxx1112regex_traitsIcEEEEE8max_sizeEv
FNDA:1,_ZNK9__gnu_cxx13new_allocatorIPNSt8__detail9_StateSeqINSt7__cxx1112regex_traitsIcEEEEE8max_sizeEv
FN:132,_ZNK9__gnu_cxx13new_allocatorISt13_Rb_tree_nodeISt4pairIKllEEE8max_sizeEv
FNDA:2,_ZNK9__gnu_cxx13new_allocatorISt13_Rb_tree_nodeISt4pairIKllEEE8max_sizeEv
FN:132,_ZNK9__gnu_cxx13new_allocatorISt23_Sp_counted_ptr_inplaceINSt8__detail4_NFAINSt7__cxx1112regex_traitsIcEEEESaIS7_ELNS_12_Lock_policyE2EEE8max_sizeEv
FNDA:1,_ZNK9__gnu_cxx13new_allocatorISt23_Sp_counted_ptr_inplaceINSt8__detail4_NFAINSt7__cxx1112regex_traitsIcEEEESaIS7_ELNS_12_Lock_policyE2EEE8max_sizeEv
FN:132,_ZNK9__gnu_cxx13new_allocatorISt4pairIlSt6vectorINSt7__cxx119sub_matchINS_17__normal_iteratorIPKcNS3_12basic_stringIcSt11char_traitsIcESaIcEEEEEEESaISE_EEEE8max_sizeEv
FNDA:0,_ZNK9__gnu_cxx13new_allocatorISt4pairIlSt6vectorINSt7__cxx119sub_matchINS_17__normal_iteratorIPKcNS3_12basic_stringIcSt11char_traitsIcESaIcEEEEEEESaISE_EEEE8max_sizeEv
FN:132,_ZNK9__gnu_cxx13new_allocatorIPlE8max_sizeEv
FNDA:2,_ZNK9__gnu_cxx13new_allocatorIPlE8max_sizeEv
FN:132,_ZNK9__gnu_cxx13new_allocatorINSt7__cxx1112basic_stringIcSt11char_traitsIcESaIcEEEE8max_sizeEv
FNDA:0,_ZNK9__gnu_cxx13new_allocatorINSt7__cxx1112basic_stringIcSt11char_traitsIcESaIcEEEE8max_sizeEv
FN:132,_ZNK9__gnu_cxx13new_allocatorImE8max_sizeEv
FNDA:3,_ZNK9__gnu_cxx13new_allocatorImE8max_sizeEv
FN:132,_ZNK9__gnu_cxx13new_allocatorISt4pairIccEE8max_sizeEv
FNDA:11,_ZNK9__gnu_cxx13new_allocatorISt4pairIccEE8max_sizeEv
FN:132,_ZNK9__gnu_cxx13new_allocatorISt4pairINSt7__cxx1112basic_stringIcSt11char_traitsIcESaIcEEES7_EE8max_sizeEv
FNDA:0,_ZNK9__gnu_cxx13new_allocatorISt4pairINSt7__cxx1112basic_stringIcSt11char_traitsIcESaIcEEES7_EE8max_sizeEv
FN:144,_ZN9__gnu_cxx13new_allocatorIcE9constructIcJcEEEvPT_DpOT0_
FNDA:0,_ZN9__gnu_cxx13new_allocatorIcE9constructIcJcEEEvPT_DpOT0_
FN:144,_ZN9__gnu_cxx13new_allocatorISt4pairIccEE9constructIS2_JS2_EEEvPT_DpOT0_
FNDA:1,_ZN9__gnu_cxx13new_allocatorISt4pairIccEE9constructIS2_JS2_EEEvPT_DpOT0_
FN:144,_ZN9__gnu_cxx13new_allocatorINSt7__cxx1112basic_stringIcSt11char_traitsIcESaIcEEEE9constructIS6_JS6_EEEvPT_DpOT0_
FNDA:0,_ZN9__gnu_cxx13new_allocatorINSt7__cxx1112basic_stringIcSt11char_traitsIcESaIcEEEE9constructIS6_JS6_EEEvPT_DpOT0_
FN:144,_ZN9__gnu_cxx13new_allocatorISt13_Rb_tree_nodeISt4pairIKllEEE9constructIS4_JRKSt21piecewise_construct_tSt5tupleIJRS3_EESB_IJEEEEEvPT_DpOT0_
FNDA:2,_ZN9__gnu_cxx13new_allocatorISt13_Rb_tree_nodeISt4pairIKllEEE9constructIS4_JRKSt21piecewise_construct_tSt5tupleIJRS3_EESB_IJEEEEEvPT_DpOT0_
FN:144,_ZN9__gnu_cxx13new_allocatorINSt7__cxx1112regex_traitsIcE10_RegexMaskEE9constructIS4_JS4_EEEvPT_DpOT0_
FNDA:0,_ZN9__gnu_cxx13new_allocatorINSt7__cxx1112regex_traitsIcE10_RegexMaskEE9constructIS4_JS4_EEEvPT_DpOT0_
FN:144,_ZN9__gnu_cxx13new_allocatorISt4pairIlSt6vectorINSt7__cxx119sub_matchINS_17__normal_iteratorIPKcNS3_12basic_stringIcSt11char_traitsIcESaIcEEEEEEESaISE_EEEE9constructISH_JSH_EEEvPT_DpOT0_
FNDA:0,_ZN9__gnu_cxx13new_allocatorISt4pairIlSt6vectorINSt7__cxx119sub_matchINS_17__normal_iteratorIPKcNS3_12basic_stringIcSt11char_traitsIcESaIcEEEEEEESaISE_EEEE9constructISH_JSH_EEEvPT_DpOT0_
FN:144,_ZN9__gnu_cxx13new_allocatorISt4pairINSt7__cxx1112basic_stringIcSt11char_traitsIcESaIcEEES7_EE9constructIS8_JS8_EEEvPT_DpOT0_
FNDA:0,_ZN9__gnu_cxx13new_allocatorISt4pairINSt7__cxx1112basic_stringIcSt11char_traitsIcESaIcEEES7_EE9constructIS8_JS8_EEEvPT_DpOT0_
FN:144,_ZN9__gnu_cxx13new_allocatorINSt8__detail4_NFAINSt7__cxx1112regex_traitsIcEEEEE9constructIS6_JRKSt6localeRNSt15regex_constants18syntax_option_typeEEEEvPT_DpOT0_
FNDA:1,_ZN9__gnu_cxx13new_allocatorINSt8__detail4_NFAINSt7__cxx1112regex_traitsIcEEEEE9constructIS6_JRKSt6localeRNSt15regex_constants18syntax_option_typeEEEEvPT_DpOT0_
FN:144,_ZN9__gnu_cxx13new_allocatorIlE9constructIlJRKlEEEvPT_DpOT0_
FNDA:2,_ZN9__gnu_cxx13new_allocatorIlE9constructIlJRKlEEEvPT_DpOT0_
FN:144,_ZN9__gnu_cxx13new_allocatorImE9constructImJRKmEEEvPT_DpOT0_
FNDA:1,_ZN9__gnu_cxx13new_allocatorImE9constructImJRKmEEEvPT_DpOT0_
FN:144,_ZN9__gnu_cxx13new_allocatorINSt7__cxx1112regex_traitsIcE10_RegexMaskEE9constructIS4_JRKS4_EEEvPT_DpOT0_
FNDA:0,_ZN9__gnu_cxx13new_allocatorINSt7__cxx1112regex_traitsIcE10_RegexMaskEE9constructIS4_JRKS4_EEEvPT_DpOT0_
FN:144,_ZN9__gnu_cxx13new_allocatorISt4pairIlSt6vectorINSt7__cxx119sub_matchINS_17__normal_iteratorIPKcNS3_12basic_stringIcSt11char_traitsIcESaIcEEEEEEESaISE_EEEE9constructISH_JRlRKSG_EEEvPT_DpOT0_
FNDA:0,_ZN9__gnu_cxx13new_allocatorISt4pairIlSt6vectorINSt7__cxx119sub_matchINS_17__normal_iteratorIPKcNS3_12basic_stringIcSt11char_traitsIcESaIcEEEEEEESaISE_EEEE9constructISH_JRlRKSG_EEEvPT_DpOT0_
FN:144,_ZN9__gnu_cxx13new_allocatorINSt7__cxx119sub_matchINS_17__normal_iteratorIPKcNS1_12basic_stringIcSt11char_traitsIcESaIcEEEEEEEE9constructISC_JSC_EEEvPT_DpOT0_
FNDA:0,_ZN9__gnu_cxx13new_allocatorINSt7__cxx119sub_matchINS_17__normal_iteratorIPKcNS1_12basic_stringIcSt11char_traitsIcESaIcEEEEEEEE9constructISC_JSC_EEEvPT_DpOT0_
FN:144,_ZN9__gnu_cxx13new_allocatorINSt8__detail6_StateIcEEE9constructIS3_JS3_EEEvPT_DpOT0_
FNDA:9,_ZN9__gnu_cxx13new_allocatorINSt8__detail6_StateIcEEE9constructIS3_JS3_EEEvPT_DpOT0_
FN:144,_ZN9__gnu_cxx13new_allocatorINSt8__detail9_StateSeqINSt7__cxx1112regex_traitsIcEEEEE9constructIS6_JRKS6_EEEvPT_DpOT0_
FNDA:2,_ZN9__gnu_cxx13new_allocatorINSt8__detail9_StateSeqINSt7__cxx1112regex_traitsIcEEEEE9constructIS6_JRKS6_EEEvPT_DpOT0_
FN:144,_ZN9__gnu_cxx13new_allocatorINSt7__cxx1112basic_stringIcSt11char_traitsIcESaIcEEEE9constructIS6_JRKS6_EEEvPT_DpOT0_
FNDA:0,_ZN9__gnu_cxx13new_allocatorINSt7__cxx1112basic_stringIcSt11char_traitsIcESaIcEEEE9constructIS6_JRKS6_EEEvPT_DpOT0_
FN:144,_ZN9__gnu_cxx13new_allocatorINSt8__detail9_StateSeqINSt7__cxx1112regex_traitsIcEEEEE9constructIS6_JS6_EEEvPT_DpOT0_
FNDA:2,_ZN9__gnu_cxx13new_allocatorINSt8__detail9_StateSeqINSt7__cxx1112regex_traitsIcEEEEE9constructIS6_JS6_EEEvPT_DpOT0_
FN:150,_ZN9__gnu_cxx13new_allocatorIcE7destroyIcEEvPT_
FNDA:0,_ZN9__gnu_cxx13new_allocatorIcE7destroyIcEEvPT_
FN:150,_ZN9__gnu_cxx13new_allocatorINSt8__detail4_NFAINSt7__cxx1112regex_traitsIcEEEEE7destroyIS6_EEvPT_
FNDA:1,_ZN9__gnu_cxx13new_allocatorINSt8__detail4_NFAINSt7__cxx1112regex_traitsIcEEEEE7destroyIS6_EEvPT_
FN:150,_ZN9__gnu_cxx13new_allocatorIlE7destroyIlEEvPT_
FNDA:2,_ZN9__gnu_cxx13new_allocatorIlE7destroyIlEEvPT_
FN:150,_ZN9__gnu_cxx13new_allocatorINSt8__detail6_StateIcEEE7destroyIS3_EEvPT_
FNDA:0,_ZN9__gnu_cxx13new_allocatorINSt8__detail6_StateIcEEE7destroyIS3_EEvPT_
FN:150,_ZN9__gnu_cxx13new_allocatorISt4pairINSt7__cxx1112basic_stringIcSt11char_traitsIcESaIcEEES7_EE7destroyIS8_EEvPT_
FNDA:0,_ZN9__gnu_cxx13new_allocatorISt4pairINSt7__cxx1112basic_stringIcSt11char_traitsIcESaIcEEES7_EE7destroyIS8_EEvPT_
FN:150,_ZN9__gnu_cxx13new_allocatorISt4pairIccEE7destroyIS2_EEvPT_
FNDA:0,_ZN9__gnu_cxx13new_allocatorISt4pairIccEE7destroyIS2_EEvPT_
FN:150,_ZN9__gnu_cxx13new_allocatorINSt7__cxx119sub_matchINS_17__normal_iteratorIPKcNS1_12basic_stringIcSt11char_traitsIcESaIcEEEEEEEE7destroyISC_EEvPT_
FNDA:0,_ZN9__gnu_cxx13new_allocatorINSt7__cxx119sub_matchINS_17__normal_iteratorIPKcNS1_12basic_stringIcSt11char_traitsIcESaIcEEEEEEEE7destroyISC_EEvPT_
FN:150,_ZN9__gnu_cxx13new_allocatorISt4pairIlSt6vectorINSt7__cxx119sub_matchINS_17__normal_iteratorIPKcNS3_12basic_stringIcSt11char_traitsIcESaIcEEEEEEESaISE_EEEE7destroyISH_EEvPT_
FNDA:0,_ZN9__gnu_cxx13new_allocatorISt4pairIlSt6vectorINSt7__cxx119sub_matchINS_17__normal_iteratorIPKcNS3_12basic_stringIcSt11char_traitsIcESaIcEEEEEEESaISE_EEEE7destroyISH_EEvPT_
FN:150,_ZN9__gnu_cxx13new_allocatorINSt7__cxx1112basic_stringIcSt11char_traitsIcESaIcEEEE7destroyIS6_EEvPT_
FNDA:0,_ZN9__gnu_cxx13new_allocatorINSt7__cxx1112basic_stringIcSt11char_traitsIcESaIcEEEE7destroyIS6_EEvPT_
FN:150,_ZN9__gnu_cxx13new_allocatorINSt8__detail9_StateSeqINSt7__cxx1112regex_traitsIcEEEEE7destroyIS6_EEvPT_
FNDA:4,_ZN9__gnu_cxx13new_allocatorINSt8__detail9_StateSeqINSt7__cxx1112regex_traitsIcEEEEE7destroyIS6_EEvPT_
FN:150,_ZN9__gnu_cxx13new_allocatorImE7destroyImEEvPT_
FNDA:1,_ZN9__gnu_cxx13new_allocatorImE7destroyImEEvPT_
FN:150,_ZN9__gnu_cxx13new_allocatorINSt7__cxx1112regex_traitsIcE10_RegexMaskEE7destroyIS4_EEvPT_
FNDA:0,_ZN9__gnu_cxx13new_allocatorINSt7__cxx1112regex_traitsIcE10_RegexMaskEE7destroyIS4_EEvPT_
FN:150,_ZN9__gnu_cxx13new_allocatorISt13_Rb_tree_nodeISt4pairIKllEEE7destroyIS4_EEvPT_
FNDA:2,_ZN9__gnu_cxx13new_allocatorISt13_Rb_tree_nodeISt4pairIKllEEE7destroyIS4_EEvPT_
DA:80,2
DA:80,0
DA:80,1
DA:80,41
DA:80,17
DA:80,1
DA:80,0
DA:80,2
DA:80,1
DA:80,1
DA:80,2
DA:80,1
DA:80,1
DA:80,1
DA:80,0
DA:80,2
DA:80,4
DA:83,0
DA:83,18
DA:83,18
DA:83,18
DA:83,3
DA:83,0
DA:83,34
DA:83,48
DA:83,0
DA:89,2
DA:89,0
DA:89,1
DA:89,89
DA:89,51
DA:89,0
DA:89,4
DA:89,1
DA:89,2
DA:89,1
DA:89,19
DA:89,19
DA:89,19
DA:89,0
DA:89,2
DA:89,2
DA:89,4
DA:102,0
DA:104,0
DA:105,0
DA:114,0
DA:102,9
DA:104,9
DA:105,0
DA:114,9
DA:102,0
DA:104,0
DA:105,0
DA:114,0
DA:102,2
DA:104,2
DA:105,0
DA:114,2
DA:102,2
DA:104,2
DA:105,0
DA:114,2
DA:102,0
DA:104,0
DA:105,0
DA:114,0
DA:102,2
DA:104,2
DA:105,0
DA:114,2
DA:102,5
DA:104,5
DA:105,0
DA:114,5
DA:102,1
DA:104,1
DA:105,0
DA:114,1
DA:102,1
DA:104,1
DA:105,0
DA:114,1
DA:102,0
DA:104,0
DA:105,0
DA:114,0
DA:102,1
DA:104,1
DA:105,0
DA:114,1
DA:102,1
DA:104,1
DA:105,0
DA:114,1
DA:102,17
DA:104,17
DA:105,0
DA:114,17
DA:102,34
DA:104,34
DA:105,0
DA:114,34
DA:102,246
DA:104,246
DA:105,0
DA:114,246
DA:119,2
DA:128,2
DA:129,2
DA:119,2
DA:128,2
DA:129,2
DA:119,2
DA:128,2
DA:129,2
DA:119,0
DA:128,0
DA:129,0
DA:119,0
DA:128,0
DA:129,0
DA:119,9
DA:128,9
DA:129,9
DA:119,0
DA:128,0
DA:129,0
DA:119,5
DA:128,5
DA:129,5
DA:119,1
DA:128,1
DA:129,1
DA:119,1
DA:128,1
DA:129,1
DA:119,1
DA:128,1
DA:129,1
DA:119,0
DA:128,0
DA:129,0
DA:119,17
DA:128,17
DA:129,17
DA:119,34
DA:128,34
DA:129,34
DA:119,246
DA:128,246
DA:129,246
DA:119,1
DA:128,1
DA:129,1
DA:132,0
DA:135,0
DA:132,11
DA:135,11
DA:132,0
DA:135,0
DA:132,2
DA:135,2
DA:132,2
DA:135,2
DA:132,0
DA:135,0
DA:132,2
DA:135,2
DA:132,15
DA:135,15
DA:132,1
DA:135,1
DA:132,1
DA:135,1
DA:132,0
DA:135,0
DA:132,1
DA:135,1
DA:132,3
DA:135,3
DA:132,34
DA:135,34
DA:132,54
DA:135,54
DA:132,492
DA:135,492
DA:144,0
DA:146,0
DA:144,1
DA:146,1
DA:144,0
DA:146,0
DA:144,9
DA:146,9
DA:144,2
DA:146,2
DA:144,2
DA:146,2
DA:144,1
DA:146,1
DA:144,2
DA:146,2
DA:144,0
DA:146,0
DA:144,0
DA:146,0
DA:144,0
DA:146,0
DA:144,0
DA:146,0
DA:144,2
DA:146,2
DA:144,0
DA:146,0
DA:144,1
DA:146,1
DA:144,0
DA:146,0
DA:144,0
DA:146,0
DA:150,1
DA:152,1
DA:150,0
DA:152,0
DA:150,0
DA:152,0
DA:150,0
DA:152,0
DA:150,0
DA:152,0
DA:150,2
DA:152,2
DA:150,0
DA:152,0
DA:150,0
DA:152,0
DA:150,2
DA:152,2
DA:150,0
DA:152,0
DA:150,0
DA:152,0
DA:150,4
DA:152,4
DA:150,1
DA:152,1
end_of_record
SF:/usr/include/c++/9/bits/stl_algo.h
FN:78,_ZSt22__move_median_to_firstIN9__gnu_cxx17__normal_iteratorIPcSt6vectorIcSaIcEEEENS0_5__ops15_Iter_less_iterEEvT_S9_S9_S9_T0_
FNDA:0,_ZSt22__move_median_to_firstIN9__gnu_cxx17__normal_iteratorIPcSt6vectorIcSaIcEEEENS0_5__ops15_Iter_less_iterEEvT_S9_S9_S9_T0_
FN:112,_ZSt9__find_ifIN9__gnu_cxx17__normal_iteratorIPKNSt7__cxx1112basic_stringIcSt11char_traitsIcESaIcEEESt6vectorIS7_SaIS7_EEEENS0_5__ops16_Iter_equals_valIS8_EEET_SH_SH_T0_St26random_access_iterator_tag
FNDA:246,_ZSt9__find_ifIN9__gnu_cxx17__normal_iteratorIPKNSt7__cxx1112basic_stringIcSt11char_traitsIcESaIcEEESt6vectorIS7_SaIS7_EEEENS0_5__ops16_Iter_equals_valIS8_EEET_SH_SH_T0_St26random_access_iterator_tag
FN:159,_ZSt9__find_ifIN9__gnu_cxx17__normal_iteratorIPKNSt7__cxx1112basic_stringIcSt11char_traitsIcESaIcEEESt6vectorIS7_SaIS7_EEEENS0_5__ops16_Iter_equals_valIS8_EEET_SH_SH_T0_
FNDA:246,_ZSt9__find_ifIN9__gnu_cxx17__normal_iteratorIPKNSt7__cxx1112basic_stringIcSt11char_traitsIcESaIcEEESt6vectorIS7_SaIS7_EEEENS0_5__ops16_Iter_equals_valIS8_EEET_SH_SH_T0_
FN:951,_ZSt15__adjacent_findIN9__gnu_cxx17__normal_iteratorIPcSt6vectorIcSaIcEEEENS0_5__ops19_Iter_equal_to_iterEET_S9_S9_T0_
FNDA:1,_ZSt15__adjacent_findIN9__gnu_cxx17__normal_iteratorIPcSt6vectorIcSaIcEEEENS0_5__ops19_Iter_equal_to_iterEET_S9_S9_T0_
FN:968,_ZSt8__uniqueIN9__gnu_cxx17__normal_iteratorIPcSt6vectorIcSaIcEEEENS0_5__ops19_Iter_equal_to_iterEET_S9_S9_T0_
FNDA:1,_ZSt8__uniqueIN9__gnu_cxx17__normal_iteratorIPcSt6vectorIcSaIcEEEENS0_5__ops19_Iter_equal_to_iterEET_S9_S9_T0_
FN:1001,_ZSt6uniqueIN9__gnu_cxx17__normal_iteratorIPcSt6vectorIcSaIcEEEEET_S7_S7_
FNDA:1,_ZSt6uniqueIN9__gnu_cxx17__normal_iteratorIPcSt6vectorIcSaIcEEEEET_S7_S7_
FN:1673,_ZSt13__heap_selectIN9__gnu_cxx17__normal_iteratorIPcSt6vectorIcSaIcEEEENS0_5__ops15_Iter_less_iterEEvT_S9_S9_T0_
FNDA:0,_ZSt13__heap_selectIN9__gnu_cxx17__normal_iteratorIPcSt6vectorIcSaIcEEEENS0_5__ops15_Iter_less_iterEEvT_S9_S9_T0_
FN:1826,_ZSt25__unguarded_linear_insertIN9__gnu_cxx17__normal_iteratorIPcSt6vectorIcSaIcEEEENS0_5__ops14_Val_less_iterEEvT_T0_
FNDA:0,_ZSt25__unguarded_linear_insertIN9__gnu_cxx17__normal_iteratorIPcSt6vectorIcSaIcEEEENS0_5__ops14_Val_less_iterEEvT_T0_
FN:1845,_ZSt16__insertion_sortIN9__gnu_cxx17__normal_iteratorIPcSt6vectorIcSaIcEEEENS0_5__ops15_Iter_less_iterEEvT_S9_T0_
FNDA:0,_ZSt16__insertion_sortIN9__gnu_cxx17__normal_iteratorIPcSt6vectorIcSaIcEEEENS0_5__ops15_Iter_less_iterEEvT_S9_T0_
FN:1868,_ZSt26__unguarded_insertion_sortIN9__gnu_cxx17__normal_iteratorIPcSt6vectorIcSaIcEEEENS0_5__ops15_Iter_less_iterEEvT_S9_T0_
FNDA:0,_ZSt26__unguarded_insertion_sortIN9__gnu_cxx17__normal_iteratorIPcSt6vectorIcSaIcEEEENS0_5__ops15_Iter_less_iterEEvT_S9_T0_
FN:1885,_ZSt22__final_insertion_sortIN9__gnu_cxx17__normal_iteratorIPcSt6vectorIcSaIcEEEENS0_5__ops15_Iter_less_iterEEvT_S9_T0_
FNDA:0,_ZSt22__final_insertion_sortIN9__gnu_cxx17__normal_iteratorIPcSt6vectorIcSaIcEEEENS0_5__ops15_Iter_less_iterEEvT_S9_T0_
FN:1901,_ZSt21__unguarded_partitionIN9__gnu_cxx17__normal_iteratorIPcSt6vectorIcSaIcEEEENS0_5__ops15_Iter_less_iterEET_S9_S9_S9_T0_
FNDA:0,_ZSt21__unguarded_partitionIN9__gnu_cxx17__normal_iteratorIPcSt6vectorIcSaIcEEEENS0_5__ops15_Iter_less_iterEET_S9_S9_S9_T0_
FN:1922,_ZSt27__unguarded_partition_pivotIN9__gnu_cxx17__normal_iteratorIPcSt6vectorIcSaIcEEEENS0_5__ops15_Iter_less_iterEET_S9_S9_T0_
FNDA:0,_ZSt27__unguarded_partition_pivotIN9__gnu_cxx17__normal_iteratorIPcSt6vectorIcSaIcEEEENS0_5__ops15_Iter_less_iterEET_S9_S9_T0_
FN:1933,_ZSt14__partial_sortIN9__gnu_cxx17__normal_iteratorIPcSt6vectorIcSaIcEEEENS0_5__ops15_Iter_less_iterEEvT_S9_S9_T0_
FNDA:0,_ZSt14__partial_sortIN9__gnu_cxx17__normal_iteratorIPcSt6vectorIcSaIcEEEENS0_5__ops15_Iter_less_iterEEvT_S9_S9_T0_
FN:1945,_ZSt16__introsort_loopIN9__gnu_cxx17__normal_iteratorIPcSt6vectorIcSaIcEEEElNS0_5__ops15_Iter_less_iterEEvT_S9_T0_T1_
FNDA:0,_ZSt16__introsort_loopIN9__gnu_cxx17__normal_iteratorIPcSt6vectorIcSaIcEEEElNS0_5__ops15_Iter_less_iterEEvT_S9_T0_T1_
FN:1968,_ZSt6__sortIN9__gnu_cxx17__normal_iteratorIPcSt6vectorIcSaIcEEEENS0_5__ops15_Iter_less_iterEEvT_S9_T0_
FNDA:1,_ZSt6__sortIN9__gnu_cxx17__normal_iteratorIPcSt6vectorIcSaIcEEEENS0_5__ops15_Iter_less_iterEEvT_S9_T0_
FN:2252,_ZSt13binary_searchIN9__gnu_cxx17__normal_iteratorIPKcSt6vectorIcSaIcEEEEcEbT_S8_RKT0_
FNDA:256,_ZSt13binary_searchIN9__gnu_cxx17__normal_iteratorIPKcSt6vectorIcSaIcEEEEcEbT_S8_RKT0_
FN:3936,_ZSt4findIN9__gnu_cxx17__normal_iteratorIPKNSt7__cxx1112basic_stringIcSt11char_traitsIcESaIcEEESt6vectorIS7_SaIS7_EEEES7_ET_SE_SE_RKT0_
FNDA:246,_ZSt4findIN9__gnu_cxx17__normal_iteratorIPKNSt7__cxx1112basic_stringIcSt11char_traitsIcESaIcEEESt6vectorIS7_SaIS7_EEEES7_ET_SE_SE_RKT0_
FN:4863,_ZSt4sortIN9__gnu_cxx17__normal_iteratorIPcSt6vectorIcSaIcEEEEEvT_S7_
FNDA:1,_ZSt4sortIN9__gnu_cxx17__normal_iteratorIPcSt6vectorIcSaIcEEEEEvT_S7_
DA:78,0
DA:81,0
DA:83,0
DA:84,0
DA:85,0
DA:86,0
DA:88,0
DA:90,0
DA:91,0
DA:92,0
DA:93,0
DA:95,0
DA:96,0
DA:112,246
DA:116,246
DA:118,246
DA:120,0
DA:121,0
DA:122,0
DA:124,0
DA:125,0
DA:126,0
DA:128,0
DA:129,0
DA:130,0
DA:132,0
DA:133,0
DA:134,0
DA:137,246
DA:139,0
DA:140,0
DA:141,0
DA:142,0
DA:143,0
DA:144,0
DA:145,0
DA:146,0
DA:147,0
DA:148,0
DA:149,0
DA:150,0
DA:151,246
DA:153,246
DA:159,246
DA:161,246
DA:162,492
DA:951,1
DA:954,1
DA:955,1
DA:956,0
DA:957,0
DA:959,0
DA:960,0
DA:961,0
DA:963,0
DA:968,1
DA:972,1
DA:973,1
DA:974,1
DA:977,0
DA:978,0
DA:979,0
DA:980,0
DA:981,0
DA:982,0
DA:1001,1
DA:1010,1
DA:1011,2
DA:1673,0
DA:1677,0
DA:1678,0
DA:1679,0
DA:1680,0
DA:1681,0
DA:1826,0
DA:1830,0
DA:1831,0
DA:1832,0
DA:1833,0
DA:1835,0
DA:1836,0
DA:1837,0
DA:1839,0
DA:1840,0
DA:1845,0
DA:1848,0
DA:1850,0
DA:1852,0
DA:1855,0
DA:1856,0
DA:1857,0
DA:1860,0
DA:1861,0
DA:1868,0
DA:1871,0
DA:1872,0
DA:1873,0
DA:1874,0
DA:1885,0
DA:1888,0
DA:1890,0
DA:1891,0
DA:1895,0
DA:1896,0
DA:1901,0
DA:1907,0
DA:1908,0
DA:1909,0
DA:1910,0
DA:1911,0
DA:1912,0
DA:1913,0
DA:1914,0
DA:1915,0
DA:1922,0
DA:1925,0
DA:1926,0
DA:1928,0
DA:1933,0
DA:1938,0
DA:1939,0
DA:1940,0
DA:1945,0
DA:1949,0
DA:1951,0
DA:1953,0
DA:1954,0
DA:1956,0
DA:1958,0
DA:1959,0
DA:1960,0
DA:1968,1
DA:1971,1
DA:1973,0
DA:1974,0
DA:1976,0
DA:1978,1
DA:2252,256
DA:2263,256
DA:2264,256
DA:2265,256
DA:3936,246
DA:3944,246
DA:3945,246
DA:4863,1
DA:4873,1
DA:4874,1
end_of_record
SF:/usr/include/c++/9/ext/atomicity.h
FN:48,_ZN9__gnu_cxxL18__exchange_and_addEPVii
FNDA:0,_ZN9__gnu_cxxL18__exchange_and_addEPVii
FN:65,_ZN9__gnu_cxxL25__exchange_and_add_singleEPii
FNDA:2,_ZN9__gnu_cxxL25__exchange_and_add_singleEPii
FN:78,_ZN9__gnu_cxxL27__exchange_and_add_dispatchEPii
FNDA:2,_ZN9__gnu_cxxL27__exchange_and_add_dispatchEPii
DA:48,0
DA:49,0
DA:65,2
DA:67,2
DA:68,2
DA:69,2
DA:78,2
DA:81,2
DA:82,0
DA:84,2
end_of_record
SF:/usr/include/c++/9/bits/regex_executor.tcc
FN:39,_ZNSt8__detail9_ExecutorIN9__gnu_cxx17__normal_iteratorIPKcNSt7__cxx1112basic_stringIcSt11char_traitsIcESaIcEEEEESaINS5_9sub_matchISB_EEENS5_12regex_traitsIcEELb0EE9_M_searchEv
FNDA:0,_ZNSt8__detail9_ExecutorIN9__gnu_cxx17__normal_iteratorIPKcNSt7__cxx1112basic_stringIcSt11char_traitsIcESaIcEEEEESaINS5_9sub_matchISB_EEENS5_12regex_traitsIcEELb0EE9_M_searchEv
FN:39,_ZNSt8__detail9_ExecutorIN9__gnu_cxx17__normal_iteratorIPKcNSt7__cxx1112basic_stringIcSt11char_traitsIcESaIcEEEEESaINS5_9sub_matchISB_EEENS5_12regex_traitsIcEELb1EE9_M_searchEv
FNDA:17,_ZNSt8__detail9_ExecutorIN9__gnu_cxx17__normal_iteratorIPKcNSt7__cxx1112basic_stringIcSt11char_traitsIcESaIcEEEEESaINS5_9sub_matchISB_EEENS5_12regex_traitsIcEELb1EE9_M_searchEv
FN:81,_ZNSt8__detail9_ExecutorIN9__gnu_cxx17__normal_iteratorIPKcNSt7__cxx1112basic_stringIcSt11char_traitsIcESaIcEEEEESaINS5_9sub_matchISB_EEENS5_12regex_traitsIcEELb1EE16_M_main_dispatchENSH_11_Match_modeESt17integral_constantIbLb1EE
FNDA:31,_ZNSt8__detail9_ExecutorIN9__gnu_cxx17__normal_iteratorIPKcNSt7__cxx1112basic_stringIcSt11char_traitsIcESaIcEEEEESaINS5_9sub_matchISB_EEENS5_12regex_traitsIcEELb1EE16_M_main_dispatchENSH_11_Match_modeESt17integral_constantIbLb1EE
FN:115,_ZNSt8__detail9_ExecutorIN9__gnu_cxx17__normal_iteratorIPKcNSt7__cxx1112basic_stringIcSt11char_traitsIcESaIcEEEEESaINS5_9sub_matchISB_EEENS5_12regex_traitsIcEELb0EE16_M_main_dispatchENSH_11_Match_modeESt17integral_constantIbLb0EE
FNDA:0,_ZNSt8__detail9_ExecutorIN9__gnu_cxx17__normal_iteratorIPKcNSt7__cxx1112basic_stringIcSt11char_traitsIcESaIcEEEEESaINS5_9sub_matchISB_EEENS5_12regex_traitsIcEELb0EE16_M_main_dispatchENSH_11_Match_modeESt17integral_constantIbLb0EE
FN:147,_ZNSt8__detail9_ExecutorIN9__gnu_cxx17__normal_iteratorIPKcNSt7__cxx1112basic_stringIcSt11char_traitsIcESaIcEEEEESaINS5_9sub_matchISB_EEENS5_12regex_traitsIcEELb0EE12_M_lookaheadEl
FNDA:0,_ZNSt8__detail9_ExecutorIN9__gnu_cxx17__normal_iteratorIPKcNSt7__cxx1112basic_stringIcSt11char_traitsIcESaIcEEEEESaINS5_9sub_matchISB_EEENS5_12regex_traitsIcEELb0EE12_M_lookaheadEl
FN:147,_ZNSt8__detail9_ExecutorIN9__gnu_cxx17__normal_iteratorIPKcNSt7__cxx1112basic_stringIcSt11char_traitsIcESaIcEEEEESaINS5_9sub_matchISB_EEENS5_12regex_traitsIcEELb1EE12_M_lookaheadEl
FNDA:0,_ZNSt8__detail9_ExecutorIN9__gnu_cxx17__normal_iteratorIPKcNSt7__cxx1112basic_stringIcSt11char_traitsIcESaIcEEEEESaINS5_9sub_matchISB_EEENS5_12regex_traitsIcEELb1EE12_M_lookaheadEl
FN:174,_ZNSt8__detail9_ExecutorIN9__gnu_cxx17__normal_iteratorIPKcNSt7__cxx1112basic_stringIcSt11char_traitsIcESaIcEEEEESaINS5_9sub_matchISB_EEENS5_12regex_traitsIcEELb1EE16_M_rep_once_moreENSH_11_Match_modeEl
FNDA:13,_ZNSt8__detail9_ExecutorIN9__gnu_cxx17__normal_iteratorIPKcNSt7__cxx1112basic_stringIcSt11char_traitsIcESaIcEEEEESaINS5_9sub_matchISB_EEENS5_12regex_traitsIcEELb1EE16_M_rep_once_moreENSH_11_Match_modeEl
FN:174,_ZNSt8__detail9_ExecutorIN9__gnu_cxx17__normal_iteratorIPKcNSt7__cxx1112basic_stringIcSt11char_traitsIcESaIcEEEEESaINS5_9sub_matchISB_EEENS5_12regex_traitsIcEELb0EE16_M_rep_once_moreENSH_11_Match_modeEl
FNDA:0,_ZNSt8__detail9_ExecutorIN9__gnu_cxx17__normal_iteratorIPKcNSt7__cxx1112basic_stringIcSt11char_traitsIcESaIcEEEEESaINS5_9sub_matchISB_EEENS5_12regex_traitsIcEELb0EE16_M_rep_once_moreENSH_11_Match_modeEl
FN:204,_ZNSt8__detail9_ExecutorIN9__gnu_cxx17__normal_iteratorIPKcNSt7__cxx1112basic_stringIcSt11char_traitsIcESaIcEEEEESaINS5_9sub_matchISB_EEENS5_12regex_traitsIcEELb0EE16_M_handle_repeatENSH_11_Match_modeEl
FNDA:0,_ZNSt8__detail9_ExecutorIN9__gnu_cxx17__normal_iteratorIPKcNSt7__cxx1112basic_stringIcSt11char_traitsIcESaIcEEEEESaINS5_9sub_matchISB_EEENS5_12regex_traitsIcEELb0EE16_M_handle_repeatENSH_11_Match_modeEl
FN:204,_ZNSt8__detail9_ExecutorIN9__gnu_cxx17__normal_iteratorIPKcNSt7__cxx1112basic_stringIcSt11char_traitsIcESaIcEEEEESaINS5_9sub_matchISB_EEENS5_12regex_traitsIcEELb1EE16_M_handle_repeatENSH_11_Match_modeEl
FNDA:13,_ZNSt8__detail9_ExecutorIN9__gnu_cxx17__normal_iteratorIPKcNSt7__cxx1112basic_stringIcSt11char_traitsIcESaIcEEEEESaINS5_9sub_matchISB_EEENS5_12regex_traitsIcEELb1EE16_M_handle_repeatENSH_11_Match_modeEl
FN:246,_ZNSt8__detail9_ExecutorIN9__gnu_cxx17__normal_iteratorIPKcNSt7__cxx1112basic_stringIcSt11char_traitsIcESaIcEEEEESaINS5_9sub_matchISB_EEENS5_12regex_traitsIcEELb1EE23_M_handle_subexpr_beginENSH_11_Match_modeEl
FNDA:31,_ZNSt8__detail9_ExecutorIN9__gnu_cxx17__normal_iteratorIPKcNSt7__cxx1112basic_stringIcSt11char_traitsIcESaIcEEEEESaINS5_9sub_matchISB_EEENS5_12regex_traitsIcEELb1EE23_M_handle_subexpr_beginENSH_11_Match_modeEl
FN:246,_ZNSt8__detail9_ExecutorIN9__gnu_cxx17__normal_iteratorIPKcNSt7__cxx1112basic_stringIcSt11char_traitsIcESaIcEEEEESaINS5_9sub_matchISB_EEENS5_12regex_traitsIcEELb0EE23_M_handle_subexpr_beginENSH_11_Match_modeEl
FNDA:0,_ZNSt8__detail9_ExecutorIN9__gnu_cxx17__normal_iteratorIPKcNSt7__cxx1112basic_stringIcSt11char_traitsIcESaIcEEEEESaINS5_9sub_matchISB_EEENS5_12regex_traitsIcEELb0EE23_M_handle_subexpr_beginENSH_11_Match_modeEl
FN:260,_ZNSt8__detail9_ExecutorIN9__gnu_cxx17__normal_iteratorIPKcNSt7__cxx1112basic_stringIcSt11char_traitsIcESaIcEEEEESaINS5_9sub_matchISB_EEENS5_12regex_traitsIcEELb0EE21_M_handle_subexpr_endENSH_11_Match_modeEl
FNDA:0,_ZNSt8__detail9_ExecutorIN9__gnu_cxx17__normal_iteratorIPKcNSt7__cxx1112basic_stringIcSt11char_traitsIcESaIcEEEEESaINS5_9sub_matchISB_EEENS5_12regex_traitsIcEELb0EE21_M_handle_subexpr_endENSH_11_Match_modeEl
FN:260,_ZNSt8__detail9_ExecutorIN9__gnu_cxx17__normal_iteratorIPKcNSt7__cxx1112basic_stringIcSt11char_traitsIcESaIcEEEEESaINS5_9sub_matchISB_EEENS5_12regex_traitsIcEELb1EE21_M_handle_subexpr_endENSH_11_Match_modeEl
FNDA:12,_ZNSt8__detail9_ExecutorIN9__gnu_cxx17__normal_iteratorIPKcNSt7__cxx1112basic_stringIcSt11char_traitsIcESaIcEEEEESaINS5_9sub_matchISB_EEENS5_12regex_traitsIcEELb1EE21_M_handle_subexpr_endENSH_11_Match_modeEl
FN:275,_ZNSt8__detail9_ExecutorIN9__gnu_cxx17__normal_iteratorIPKcNSt7__cxx1112basic_stringIcSt11char_traitsIcESaIcEEEEESaINS5_9sub_matchISB_EEENS5_12regex_traitsIcEELb1EE30_M_handle_line_begin_assertionENSH_11_Match_modeEl
FNDA:0,_ZNSt8__detail9_ExecutorIN9__gnu_cxx17__normal_iteratorIPKcNSt7__cxx1112basic_stringIcSt11char_traitsIcESaIcEEEEESaINS5_9sub_matchISB_EEENS5_12regex_traitsIcEELb1EE30_M_handle_line_begin_assertionENSH_11_Match_modeEl
FN:275,_ZNSt8__detail9_ExecutorIN9__gnu_cxx17__normal_iteratorIPKcNSt7__cxx1112basic_stringIcSt11char_traitsIcESaIcEEEEESaINS5_9sub_matchISB_EEENS5_12regex_traitsIcEELb0EE30_M_handle_line_begin_assertionENSH_11_Match_modeEl
FNDA:0,_ZNSt8__detail9_ExecutorIN9__gnu_cxx17__normal_iteratorIPKcNSt7__cxx1112basic_stringIcSt11char_traitsIcESaIcEEEEESaINS5_9sub_matchISB_EEENS5_12regex_traitsIcEELb0EE30_M_handle_line_begin_assertionENSH_11_Match_modeEl
FN:285,_ZNSt8__detail9_ExecutorIN9__gnu_cxx17__normal_iteratorIPKcNSt7__cxx1112basic_stringIcSt11char_traitsIcESaIcEEEEESaINS5_9sub_matchISB_EEENS5_12regex_traitsIcEELb1EE28_M_handle_line_end_assertionENSH_11_Match_modeEl
FNDA:0,_ZNSt8__detail9_ExecutorIN9__gnu_cxx17__normal_iteratorIPKcNSt7__cxx1112basic_stringIcSt11char_traitsIcESaIcEEEEESaINS5_9sub_matchISB_EEENS5_12regex_traitsIcEELb1EE28_M_handle_line_end_assertionENSH_11_Match_modeEl
FN:285,_ZNSt8__detail9_ExecutorIN9__gnu_cxx17__normal_iteratorIPKcNSt7__cxx1112basic_stringIcSt11char_traitsIcESaIcEEEEESaINS5_9sub_matchISB_EEENS5_12regex_traitsIcEELb0EE28_M_handle_line_end_assertionENSH_11_Match_modeEl
FNDA:0,_ZNSt8__detail9_ExecutorIN9__gnu_cxx17__normal_iteratorIPKcNSt7__cxx1112basic_stringIcSt11char_traitsIcESaIcEEEEESaINS5_9sub_matchISB_EEENS5_12regex_traitsIcEELb0EE28_M_handle_line_end_assertionENSH_11_Match_modeEl
FN:295,_ZNSt8__detail9_ExecutorIN9__gnu_cxx17__normal_iteratorIPKcNSt7__cxx1112basic_stringIcSt11char_traitsIcESaIcEEEEESaINS5_9sub_matchISB_EEENS5_12regex_traitsIcEELb1EE23_M_handle_word_boundaryENSH_11_Match_modeEl
FNDA:0,_ZNSt8__detail9_ExecutorIN9__gnu_cxx17__normal_iteratorIPKcNSt7__cxx1112basic_stringIcSt11char_traitsIcESaIcEEEEESaINS5_9sub_matchISB_EEENS5_12regex_traitsIcEELb1EE23_M_handle_word_boundaryENSH_11_Match_modeEl
FN:295,_ZNSt8__detail9_ExecutorIN9__gnu_cxx17__normal_iteratorIPKcNSt7__cxx1112basic_stringIcSt11char_traitsIcESaIcEEEEESaINS5_9sub_matchISB_EEENS5_12regex_traitsIcEELb0EE23_M_handle_word_boundaryENSH_11_Match_modeEl
FNDA:0,_ZNSt8__detail9_ExecutorIN9__gnu_cxx17__normal_iteratorIPKcNSt7__cxx1112basic_stringIcSt11char_traitsIcESaIcEEEEESaINS5_9sub_matchISB_EEENS5_12regex_traitsIcEELb0EE23_M_handle_word_boundaryENSH_11_Match_modeEl
FN:307,_ZNSt8__detail9_ExecutorIN9__gnu_cxx17__normal_iteratorIPKcNSt7__cxx1112basic_stringIcSt11char_traitsIcESaIcEEEEESaINS5_9sub_matchISB_EEENS5_12regex_traitsIcEELb1EE27_M_handle_subexpr_lookaheadENSH_11_Match_modeEl
FNDA:0,_ZNSt8__detail9_ExecutorIN9__gnu_cxx17__normal_iteratorIPKcNSt7__cxx1112basic_stringIcSt11char_traitsIcESaIcEEEEESaINS5_9sub_matchISB_EEENS5_12regex_traitsIcEELb1EE27_M_handle_subexpr_lookaheadENSH_11_Match_modeEl
FN:307,_ZNSt8__detail9_ExecutorIN9__gnu_cxx17__normal_iteratorIPKcNSt7__cxx1112basic_stringIcSt11char_traitsIcESaIcEEEEESaINS5_9sub_matchISB_EEENS5_12regex_traitsIcEELb0EE27_M_handle_subexpr_lookaheadENSH_11_Match_modeEl
FNDA:0,_ZNSt8__detail9_ExecutorIN9__gnu_cxx17__normal_iteratorIPKcNSt7__cxx1112basic_stringIcSt11char_traitsIcESaIcEEEEESaINS5_9sub_matchISB_EEENS5_12regex_traitsIcEELb0EE27_M_handle_subexpr_lookaheadENSH_11_Match_modeEl
FN:317,_ZNSt8__detail9_ExecutorIN9__gnu_cxx17__normal_iteratorIPKcNSt7__cxx1112basic_stringIcSt11char_traitsIcESaIcEEEEESaINS5_9sub_matchISB_EEENS5_12regex_traitsIcEELb0EE15_M_handle_matchENSH_11_Match_modeEl
FNDA:0,_ZNSt8__detail9_ExecutorIN9__gnu_cxx17__normal_iteratorIPKcNSt7__cxx1112basic_stringIcSt11char_traitsIcESaIcEEEEESaINS5_9sub_matchISB_EEENS5_12regex_traitsIcEELb0EE15_M_handle_matchENSH_11_Match_modeEl
FN:317,_ZNSt8__detail9_ExecutorIN9__gnu_cxx17__normal_iteratorIPKcNSt7__cxx1112basic_stringIcSt11char_traitsIcESaIcEEEEESaINS5_9sub_matchISB_EEENS5_12regex_traitsIcEELb1EE15_M_handle_matchENSH_11_Match_modeEl
FNDA:44,_ZNSt8__detail9_ExecutorIN9__gnu_cxx17__normal_iteratorIPKcNSt7__cxx1112basic_stringIcSt11char_traitsIcESaIcEEEEESaINS5_9sub_matchISB_EEENS5_12regex_traitsIcEELb1EE15_M_handle_matchENSH_11_Match_modeEl
FN:360,_ZNSt8__detail16_Backref_matcherIN9__gnu_cxx17__normal_iteratorIPKcNSt7__cxx1112basic_stringIcSt11char_traitsIcESaIcEEEEENS5_12regex_traitsIcEEEC2EbRKSD_
FNDA:0,_ZNSt8__detail16_Backref_matcherIN9__gnu_cxx17__normal_iteratorIPKcNSt7__cxx1112basic_stringIcSt11char_traitsIcESaIcEEEEENS5_12regex_traitsIcEEEC2EbRKSD_
FN:364,_ZNSt8__detail16_Backref_matcherIN9__gnu_cxx17__normal_iteratorIPKcNSt7__cxx1112basic_stringIcSt11char_traitsIcESaIcEEEEENS5_12regex_traitsIcEEE8_M_applyESB_SB_SB_SB_
FNDA:0,_ZNSt8__detail16_Backref_matcherIN9__gnu_cxx17__normal_iteratorIPKcNSt7__cxx1112basic_stringIcSt11char_traitsIcESaIcEEEEENS5_12regex_traitsIcEEE8_M_applyESB_SB_SB_SB_
FN:375,_ZZNSt8__detail16_Backref_matcherIN9__gnu_cxx17__normal_iteratorIPKcNSt7__cxx1112basic_stringIcSt11char_traitsIcESaIcEEEEENS5_12regex_traitsIcEEE8_M_applyESB_SB_SB_SB_ENKUlccE_clEcc
FNDA:0,_ZZNSt8__detail16_Backref_matcherIN9__gnu_cxx17__normal_iteratorIPKcNSt7__cxx1112basic_stringIcSt11char_traitsIcESaIcEEEEENS5_12regex_traitsIcEEE8_M_applyESB_SB_SB_SB_ENKUlccE_clEcc
FN:392,_ZNSt8__detail9_ExecutorIN9__gnu_cxx17__normal_iteratorIPKcNSt7__cxx1112basic_stringIcSt11char_traitsIcESaIcEEEEESaINS5_9sub_matchISB_EEENS5_12regex_traitsIcEELb0EE17_M_handle_backrefENSH_11_Match_modeEl
FNDA:0,_ZNSt8__detail9_ExecutorIN9__gnu_cxx17__normal_iteratorIPKcNSt7__cxx1112basic_stringIcSt11char_traitsIcESaIcEEEEESaINS5_9sub_matchISB_EEENS5_12regex_traitsIcEELb0EE17_M_handle_backrefENSH_11_Match_modeEl
FN:392,_ZNSt8__detail9_ExecutorIN9__gnu_cxx17__normal_iteratorIPKcNSt7__cxx1112basic_stringIcSt11char_traitsIcESaIcEEEEESaINS5_9sub_matchISB_EEENS5_12regex_traitsIcEELb1EE17_M_handle_backrefENSH_11_Match_modeEl
FNDA:0,_ZNSt8__detail9_ExecutorIN9__gnu_cxx17__normal_iteratorIPKcNSt7__cxx1112basic_stringIcSt11char_traitsIcESaIcEEEEESaINS5_9sub_matchISB_EEENS5_12regex_traitsIcEELb1EE17_M_handle_backrefENSH_11_Match_modeEl
FN:425,_ZNSt8__detail9_ExecutorIN9__gnu_cxx17__normal_iteratorIPKcNSt7__cxx1112basic_stringIcSt11char_traitsIcESaIcEEEEESaINS5_9sub_matchISB_EEENS5_12regex_traitsIcEELb0EE16_M_handle_acceptENSH_11_Match_modeEl
FNDA:0,_ZNSt8__detail9_ExecutorIN9__gnu_cxx17__normal_iteratorIPKcNSt7__cxx1112basic_stringIcSt11char_traitsIcESaIcEEEEESaINS5_9sub_matchISB_EEENS5_12regex_traitsIcEELb0EE16_M_handle_acceptENSH_11_Match_modeEl
FN:425,_ZNSt8__detail9_ExecutorIN9__gnu_cxx17__normal_iteratorIPKcNSt7__cxx1112basic_stringIcSt11char_traitsIcESaIcEEEEESaINS5_9sub_matchISB_EEENS5_12regex_traitsIcEELb1EE16_M_handle_acceptENSH_11_Match_modeEl
FNDA:12,_ZNSt8__detail9_ExecutorIN9__gnu_cxx17__normal_iteratorIPKcNSt7__cxx1112basic_stringIcSt11char_traitsIcESaIcEEEEESaINS5_9sub_matchISB_EEENS5_12regex_traitsIcEELb1EE16_M_handle_acceptENSH_11_Match_modeEl
FN:479,_ZNSt8__detail9_ExecutorIN9__gnu_cxx17__normal_iteratorIPKcNSt7__cxx1112basic_stringIcSt11char_traitsIcESaIcEEEEESaINS5_9sub_matchISB_EEENS5_12regex_traitsIcEELb0EE21_M_handle_alternativeENSH_11_Match_modeEl
FNDA:0,_ZNSt8__detail9_ExecutorIN9__gnu_cxx17__normal_iteratorIPKcNSt7__cxx1112basic_stringIcSt11char_traitsIcESaIcEEEEESaINS5_9sub_matchISB_EEENS5_12regex_traitsIcEELb0EE21_M_handle_alternativeENSH_11_Match_modeEl
FN:479,_ZNSt8__detail9_ExecutorIN9__gnu_cxx17__normal_iteratorIPKcNSt7__cxx1112basic_stringIcSt11char_traitsIcESaIcEEEEESaINS5_9sub_matchISB_EEENS5_12regex_traitsIcEELb1EE21_M_handle_alternativeENSH_11_Match_modeEl
FNDA:0,_ZNSt8__detail9_ExecutorIN9__gnu_cxx17__normal_iteratorIPKcNSt7__cxx1112basic_stringIcSt11char_traitsIcESaIcEEEEESaINS5_9sub_matchISB_EEENS5_12regex_traitsIcEELb1EE21_M_handle_alternativeENSH_11_Match_modeEl
FN:506,_ZNSt8__detail9_ExecutorIN9__gnu_cxx17__normal_iteratorIPKcNSt7__cxx1112basic_stringIcSt11char_traitsIcESaIcEEEEESaINS5_9sub_matchISB_EEENS5_12regex_traitsIcEELb1EE6_M_dfsENSH_11_Match_modeEl
FNDA:112,_ZNSt8__detail9_ExecutorIN9__gnu_cxx17__normal_iteratorIPKcNSt7__cxx1112basic_stringIcSt11char_traitsIcESaIcEEEEESaINS5_9sub_matchISB_EEENS5_12regex_traitsIcEELb1EE6_M_dfsENSH_11_Match_modeEl
FN:506,_ZNSt8__detail9_ExecutorIN9__gnu_cxx17__normal_iteratorIPKcNSt7__cxx1112basic_stringIcSt11char_traitsIcESaIcEEEEESaINS5_9sub_matchISB_EEENS5_12regex_traitsIcEELb0EE6_M_dfsENSH_11_Match_modeEl
FNDA:0,_ZNSt8__detail9_ExecutorIN9__gnu_cxx17__normal_iteratorIPKcNSt7__cxx1112basic_stringIcSt11char_traitsIcESaIcEEEEESaINS5_9sub_matchISB_EEENS5_12regex_traitsIcEELb0EE6_M_dfsENSH_11_Match_modeEl
FN:544,_ZNKSt8__detail9_ExecutorIN9__gnu_cxx17__normal_iteratorIPKcNSt7__cxx1112basic_stringIcSt11char_traitsIcESaIcEEEEESaINS5_9sub_matchISB_EEENS5_12regex_traitsIcEELb0EE16_M_word_boundaryEv
FNDA:0,_ZNKSt8__detail9_ExecutorIN9__gnu_cxx17__normal_iteratorIPKcNSt7__cxx1112basic_stringIcSt11char_traitsIcESaIcEEEEESaINS5_9sub_matchISB_EEENS5_12regex_traitsIcEELb0EE16_M_word_boundaryEv
FN:544,_ZNKSt8__detail9_ExecutorIN9__gnu_cxx17__normal_iteratorIPKcNSt7__cxx1112basic_stringIcSt11char_traitsIcESaIcEEEEESaINS5_9sub_matchISB_EEENS5_12regex_traitsIcEELb1EE16_M_word_boundaryEv
FNDA:0,_ZNKSt8__detail9_ExecutorIN9__gnu_cxx17__normal_iteratorIPKcNSt7__cxx1112basic_stringIcSt11char_traitsIcESaIcEEEEESaINS5_9sub_matchISB_EEENS5_12regex_traitsIcEELb1EE16_M_word_boundaryEv
DA:39,17
DA:42,17
DA:43,4
DA:44,13
DA:45,0
DA:46,13
DA:47,19
DA:49,14
DA:50,14
DA:51,8
DA:53,5
DA:39,0
DA:42,0
DA:43,0
DA:44,0
DA:45,0
DA:46,0
DA:47,0
DA:49,0
DA:50,0
DA:51,0
DA:53,0
DA:81,31
DA:84,31
DA:85,31
DA:86,31
DA:87,31
DA:88,31
DA:115,0
DA:118,0
DA:119,0
DA:120,0
DA:122,0
DA:123,0
DA:124,0
DA:125,0
DA:126,0
DA:127,0
DA:129,0
DA:130,0
DA:132,0
DA:133,0
DA:134,0
DA:135,0
DA:136,0
DA:138,0
DA:139,0
DA:140,0
DA:141,0
DA:147,0
DA:153,0
DA:154,0
DA:155,0
DA:156,0
DA:158,0
DA:159,0
DA:160,0
DA:161,0
DA:163,0
DA:147,0
DA:153,0
DA:154,0
DA:155,0
DA:156,0
DA:158,0
DA:159,0
DA:160,0
DA:161,0
DA:163,0
DA:174,13
DA:177,13
DA:178,13
DA:179,13
DA:181,13
DA:182,13
DA:183,13
DA:184,13
DA:185,13
DA:189,0
DA:191,0
DA:192,0
DA:193,0
DA:196,13
DA:174,0
DA:177,0
DA:178,0
DA:179,0
DA:181,0
DA:182,0
DA:183,0
DA:184,0
DA:185,0
DA:189,0
DA:191,0
DA:192,0
DA:193,0
DA:196,0
DA:204,13
DA:207,13
DA:210,13
DA:212,13
DA:214,13
DA:215,12
DA:222,0
DA:223,0
DA:224,0
DA:242,13
DA:204,0
DA:207,0
DA:210,0
DA:212,0
DA:215,0
DA:231,0
DA:233,0
DA:237,0
DA:238,0
DA:242,0
DA:246,31
DA:249,31
DA:251,31
DA:252,31
DA:253,31
DA:254,31
DA:255,31
DA:256,31
DA:246,0
DA:249,0
DA:251,0
DA:252,0
DA:253,0
DA:254,0
DA:255,0
DA:256,0
DA:260,12
DA:263,12
DA:265,12
DA:266,12
DA:267,12
DA:268,12
DA:269,12
DA:270,12
DA:271,12
DA:260,0
DA:263,0
DA:265,0
DA:266,0
DA:267,0
DA:268,0
DA:269,0
DA:270,0
DA:271,0
DA:275,0
DA:278,0
DA:279,0
DA:280,0
DA:281,0
DA:275,0
DA:278,0
DA:279,0
DA:280,0
DA:281,0
DA:285,0
DA:288,0
DA:289,0
DA:290,0
DA:291,0
DA:285,0
DA:288,0
DA:289,0
DA:290,0
DA:291,0
DA:295,0
DA:298,0
DA:299,0
DA:300,0
DA:301,0
DA:295,0
DA:298,0
DA:299,0
DA:300,0
DA:301,0
DA:307,0
DA:310,0
DA:311,0
DA:312,0
DA:313,0
DA:307,0
DA:310,0
DA:311,0
DA:312,0
DA:313,0
DA:317,44
DA:320,44
DA:322,44
DA:323,9
DA:326,35
DA:328,13
DA:329,13
DA:330,13
DA:317,0
DA:320,0
DA:322,0
DA:323,0
DA:334,0
DA:335,0
DA:360,0
DA:361,0
DA:364,0
DA:368,0
DA:369,0
DA:370,0
DA:372,0
DA:373,0
DA:375,0
DA:378,0
DA:379,0
DA:392,0
DA:397,0
DA:398,0
DA:399,0
DA:400,0
DA:401,0
DA:402,0
DA:403,0
DA:404,0
DA:405,0
DA:406,0
DA:407,0
DA:408,0
DA:411,0
DA:413,0
DA:414,0
DA:415,0
DA:416,0
DA:419,0
DA:392,0
DA:397,0
DA:398,0
DA:399,0
DA:400,0
DA:401,0
DA:402,0
DA:403,0
DA:404,0
DA:405,0
DA:406,0
DA:407,0
DA:408,0
DA:411,0
DA:413,0
DA:414,0
DA:415,0
DA:416,0
DA:419,0
DA:425,12
DA:431,12
DA:432,0
DA:434,12
DA:435,12
DA:436,12
DA:437,0
DA:438,12
DA:440,12
DA:441,12
DA:452,0
DA:453,0
DA:454,0
DA:455,0
DA:457,0
DA:458,0
DA:425,0
DA:465,0
DA:466,0
DA:467,0
DA:468,0
DA:469,0
DA:471,0
DA:472,0
DA:479,0
DA:482,0
DA:484,0
DA:487,0
DA:489,0
DA:490,0
DA:496,0
DA:497,0
DA:498,0
DA:499,0
DA:500,0
DA:502,0
DA:479,0
DA:482,0
DA:484,0
DA:487,0
DA:489,0
DA:490,0
DA:496,0
DA:497,0
DA:498,0
DA:499,0
DA:500,0
DA:502,0
DA:506,112
DA:509,112
DA:510,0
DA:512,112
DA:514,13
DA:515,13
DA:516,31
DA:517,31
DA:518,12
DA:519,12
DA:520,0
DA:521,0
DA:522,0
DA:523,0
DA:524,0
DA:525,0
DA:526,0
DA:527,0
DA:528,44
DA:529,44
DA:530,0
DA:531,0
DA:532,12
DA:533,12
DA:534,0
DA:535,0
DA:506,0
DA:509,0
DA:510,0
DA:512,0
DA:514,0
DA:515,0
DA:516,0
DA:517,0
DA:518,0
DA:519,0
DA:520,0
DA:521,0
DA:522,0
DA:523,0
DA:524,0
DA:525,0
DA:526,0
DA:527,0
DA:528,0
DA:529,0
DA:530,0
DA:531,0
DA:532,0
DA:533,0
DA:534,0
DA:535,0
DA:544,0
DA:547,0
DA:548,0
DA:549,0
DA:550,0
DA:552,0
DA:553,0
DA:554,0
DA:556,0
DA:557,0
DA:558,0
DA:560,0
DA:561,0
DA:563,0
DA:544,0
DA:547,0
DA:548,0
DA:549,0
DA:550,0
DA:552,0
DA:553,0
DA:554,0
DA:556,0
DA:557,0
DA:558,0
DA:560,0
DA:561,0
DA:563,0
end_of_record
SF:/usr/include/c++/9/tuple
FN:76,_ZNSt10_Head_baseILm1ESt14default_deleteIA_bELb1EEC2Ev
FNDA:0,_ZNSt10_Head_baseILm1ESt14default_deleteIA_bELb1EEC2Ev
FN:113,_ZNSt10_Head_baseILm1ESt14default_deleteIA_bELb1EE7_M_headERS3_
FNDA:0,_ZNSt10_Head_baseILm1ESt14default_deleteIA_bELb1EE7_M_headERS3_
FN:122,_ZNSt10_Head_baseILm0EPbLb0EEC2Ev
FNDA:0,_ZNSt10_Head_baseILm0EPbLb0EEC2Ev
FN:125,_ZNSt10_Head_baseILm0ERKlLb0EEC2ES1_
FNDA:4,_ZNSt10_Head_baseILm0ERKlLb0EEC2ES1_
FN:160,_ZNSt10_Head_baseILm0ERKlLb0EE7_M_headERS2_
FNDA:4,_ZNSt10_Head_baseILm0ERKlLb0EE7_M_headERS2_
FN:160,_ZNSt10_Head_baseILm0EPbLb0EE7_M_headERS1_
FNDA:0,_ZNSt10_Head_baseILm0EPbLb0EE7_M_headERS1_
FN:163,_ZNSt10_Head_baseILm0EPbLb0EE7_M_headERKS1_
FNDA:0,_ZNSt10_Head_baseILm0EPbLb0EE7_M_headERKS1_
FN:195,_ZNSt11_Tuple_implILm0EJPbSt14default_deleteIA_bEEE7_M_headERS4_
FNDA:0,_ZNSt11_Tuple_implILm0EJPbSt14default_deleteIA_bEEE7_M_headERS4_
FN:198,_ZNSt11_Tuple_implILm0EJPbSt14default_deleteIA_bEEE7_M_headERKS4_
FNDA:0,_ZNSt11_Tuple_implILm0EJPbSt14default_deleteIA_bEEE7_M_headERKS4_
FN:206,_ZNSt11_Tuple_implILm0EJPbSt14default_deleteIA_bEEEC2Ev
FNDA:0,_ZNSt11_Tuple_implILm0EJPbSt14default_deleteIA_bEEEC2Ev
FN:334,_ZNSt11_Tuple_implILm0EJRKlEE7_M_headERS2_
FNDA:4,_ZNSt11_Tuple_implILm0EJRKlEE7_M_headERS2_
FN:334,_ZNSt11_Tuple_implILm1EJSt14default_deleteIA_bEEE7_M_headERS3_
FNDA:0,_ZNSt11_Tuple_implILm1EJSt14default_deleteIA_bEEE7_M_headERS3_
FN:339,_ZNSt11_Tuple_implILm1EJSt14default_deleteIA_bEEEC2Ev
FNDA:0,_ZNSt11_Tuple_implILm1EJSt14default_deleteIA_bEEEC2Ev
FN:343,_ZNSt11_Tuple_implILm0EJRKlEEC2ES1_
FNDA:2,_ZNSt11_Tuple_implILm0EJRKlEEC2ES1_
FN:358,_ZNSt11_Tuple_implILm0EJRKlEEC2EOS2_
FNDA:2,_ZNSt11_Tuple_implILm0EJRKlEEC2EOS2_
FN:588,_ZNSt5tupleIJRKlEEC2IvLb1EEES1_
FNDA:2,_ZNSt5tupleIJRKlEEC2IvLb1EEES1_
FN:642,_ZNSt5tupleIJRKlEEC2EOS2_
FNDA:2,_ZNSt5tupleIJRKlEEC2EOS2_
FN:918,_ZNSt5tupleIJPbSt14default_deleteIA_bEEEC2IS0_S3_Lb1EEEv
FNDA:0,_ZNSt5tupleIJPbSt14default_deleteIA_bEEEC2IS0_S3_Lb1EEEv
FN:1309,_ZSt12__get_helperILm0EPbJSt14default_deleteIA_bEEERT0_RSt11_Tuple_implIXT_EJS4_DpT1_EE
FNDA:0,_ZSt12__get_helperILm0EPbJSt14default_deleteIA_bEEERT0_RSt11_Tuple_implIXT_EJS4_DpT1_EE
FN:1309,_ZSt12__get_helperILm1ESt14default_deleteIA_bEJEERT0_RSt11_Tuple_implIXT_EJS3_DpT1_EE
FNDA:0,_ZSt12__get_helperILm1ESt14default_deleteIA_bEJEERT0_RSt11_Tuple_implIXT_EJS3_DpT1_EE
FN:1309,_ZSt12__get_helperILm0ERKlJEERT0_RSt11_Tuple_implIXT_EJS2_DpT1_EE
FNDA:2,_ZSt12__get_helperILm0ERKlJEERT0_RSt11_Tuple_implIXT_EJS2_DpT1_EE
FN:1314,_ZSt12__get_helperILm0EPbJSt14default_deleteIA_bEEERKT0_RKSt11_Tuple_implIXT_EJS4_DpT1_EE
FNDA:0,_ZSt12__get_helperILm0EPbJSt14default_deleteIA_bEEERKT0_RKSt11_Tuple_implIXT_EJS4_DpT1_EE
FN:1320,_ZSt3getILm0EJPbSt14default_deleteIA_bEEERNSt13tuple_elementIXT_ESt5tupleIJDpT0_EEE4typeERS8_
FNDA:0,_ZSt3getILm0EJPbSt14default_deleteIA_bEEERNSt13tuple_elementIXT_ESt5tupleIJDpT0_EEE4typeERS8_
FN:1320,_ZSt3getILm1EJPbSt14default_deleteIA_bEEERNSt13tuple_elementIXT_ESt5tupleIJDpT0_EEE4typeERS8_
FNDA:0,_ZSt3getILm1EJPbSt14default_deleteIA_bEEERNSt13tuple_elementIXT_ESt5tupleIJDpT0_EEE4typeERS8_
FN:1320,_ZSt3getILm0EJRKlEERNSt13tuple_elementIXT_ESt5tupleIJDpT0_EEE4typeERS6_
FNDA:2,_ZSt3getILm0EJRKlEERNSt13tuple_elementIXT_ESt5tupleIJDpT0_EEE4typeERS6_
FN:1326,_ZSt3getILm0EJPbSt14default_deleteIA_bEEERKNSt13tuple_elementIXT_ESt5tupleIJDpT0_EEE4typeERKS8_
FNDA:0,_ZSt3getILm0EJPbSt14default_deleteIA_bEEERKNSt13tuple_elementIXT_ESt5tupleIJDpT0_EEE4typeERKS8_
FN:1658,_ZNSt4pairIKllEC2IJRS0_EJEEESt21piecewise_construct_tSt5tupleIJDpT_EES5_IJDpT0_EE
FNDA:2,_ZNSt4pairIKllEC2IJRS0_EJEEESt21piecewise_construct_tSt5tupleIJDpT_EES5_IJDpT0_EE
FN:1670,_ZNSt4pairIKllEC2IJRS0_EJLm0EEJEJEEERSt5tupleIJDpT_EERS4_IJDpT1_EESt12_Index_tupleIJXspT0_EEESD_IJXspT2_EEE
FNDA:2,_ZNSt4pairIKllEC2IJRS0_EJLm0EEJEJEEERSt5tupleIJDpT_EERS4_IJDpT1_EESt12_Index_tupleIJXspT0_EEESD_IJXspT2_EEE
DA:76,0
DA:77,0
DA:113,0
DA:122,0
DA:123,0
DA:125,4
DA:126,4
DA:160,4
DA:160,0
DA:163,0
DA:195,0
DA:198,0
DA:206,0
DA:207,0
DA:334,4
DA:334,0
DA:339,0
DA:340,0
DA:343,2
DA:344,2
DA:358,2
DA:360,2
DA:588,2
DA:589,2
DA:642,2
DA:918,0
DA:919,0
DA:1309,2
DA:1310,2
DA:1309,0
DA:1310,0
DA:1309,0
DA:1310,0
DA:1314,0
DA:1315,0
DA:1320,2
DA:1321,2
DA:1320,0
DA:1321,0
DA:1320,0
DA:1321,0
DA:1326,0
DA:1327,0
DA:1658,2
DA:1663,2
DA:1664,2
DA:1670,2
DA:1673,2
DA:1674,2
DA:1675,2
end_of_record
SF:/usr/include/c++/9/bits/regex_constants.h
FN:183,_ZNSt15regex_constantsanENS_18syntax_option_typeES0_
FNDA:40,_ZNSt15regex_constantsanENS_18syntax_option_typeES0_
FN:190,_ZNSt15regex_constantsorENS_18syntax_option_typeES0_
FNDA:6,_ZNSt15regex_constantsorENS_18syntax_option_typeES0_
FN:374,_ZNSt15regex_constantsanENS_15match_flag_typeES0_
FNDA:54,_ZNSt15regex_constantsanENS_15match_flag_typeES0_
FN:381,_ZNSt15regex_constantsorENS_15match_flag_typeES0_
FNDA:25,_ZNSt15regex_constantsorENS_15match_flag_typeES0_
FN:395,_ZNSt15regex_constantscoENS_15match_flag_typeE
FNDA:24,_ZNSt15regex_constantscoENS_15match_flag_typeE
FN:403,_ZNSt15regex_constantsoRERNS_15match_flag_typeES0_
FNDA:25,_ZNSt15regex_constantsoRERNS_15match_flag_typeES0_
DA:183,40
DA:186,40
DA:190,6
DA:193,6
DA:374,54
DA:377,54
DA:381,25
DA:384,25
DA:395,24
DA:396,24
DA:403,25
DA:404,25
end_of_record
SF:/usr/include/c++/9/bits/ios_base.h
FN:83,_ZStanSt13_Ios_FmtflagsS_
FNDA:0,_ZStanSt13_Ios_FmtflagsS_
FN:87,_ZStorSt13_Ios_FmtflagsS_
FNDA:0,_ZStorSt13_Ios_FmtflagsS_
FN:95,_ZStcoSt13_Ios_Fmtflags
FNDA:0,_ZStcoSt13_Ios_Fmtflags
FN:99,_ZStoRRSt13_Ios_FmtflagsS_
FNDA:0,_ZStoRRSt13_Ios_FmtflagsS_
FN:103,_ZStaNRSt13_Ios_FmtflagsS_
FNDA:0,_ZStaNRSt13_Ios_FmtflagsS_
FN:675,_ZNSt8ios_base4setfESt13_Ios_FmtflagsS0_
FNDA:0,_ZNSt8ios_base4setfESt13_Ios_FmtflagsS0_
FN:1036,_ZSt3hexRSt8ios_base
FNDA:0,_ZSt3hexRSt8ios_base
FN:1044,_ZSt3octRSt8ios_base
FNDA:0,_ZSt3octRSt8ios_base
DA:83,0
DA:84,0
DA:87,0
DA:88,0
DA:95,0
DA:96,0
DA:99,0
DA:100,0
DA:103,0
DA:104,0
DA:675,0
DA:677,0
DA:678,0
DA:679,0
DA:680,0
DA:1036,0
DA:1038,0
DA:1039,0
DA:1044,0
DA:1046,0
DA:1047,0
end_of_record
SF:/usr/include/c++/9/bits/exception.h
FN:63,_ZNSt9exceptionC2Ev
FNDA:0,_ZNSt9exceptionC2Ev
DA:63,0
end_of_record
SF:/usr/include/c++/9/bits/stl_function.h
FN:385,_ZNKSt4lessIlEclERKlS2_
FNDA:8,_ZNKSt4lessIlEclERKlS2_
FN:1155,_ZNKSt10_Select1stISt4pairIKllEEclERKS2_
FNDA:6,_ZNKSt10_Select1stISt4pairIKllEEclERKS2_
DA:385,8
DA:386,8
DA:1155,6
DA:1156,6
end_of_record
SF:/usr/include/c++/9/bits/stl_deque.h
FN:93,_ZSt16__deque_buf_sizem
FNDA:18,_ZSt16__deque_buf_sizem
FN:130,_ZNSt15_Deque_iteratorIlRlPlE14_S_buffer_sizeEv
FNDA:4,_ZNSt15_Deque_iteratorIlRlPlE14_S_buffer_sizeEv
FN:130,_ZNSt15_Deque_iteratorINSt8__detail9_StateSeqINSt7__cxx1112regex_traitsIcEEEERS5_PS5_E14_S_buffer_sizeEv
FNDA:2,_ZNSt15_Deque_iteratorINSt8__detail9_StateSeqINSt7__cxx1112regex_traitsIcEEEERS5_PS5_E14_S_buffer_sizeEv
FN:150,_ZNSt15_Deque_iteratorINSt8__detail9_StateSeqINSt7__cxx1112regex_traitsIcEEEERS5_PS5_EC2Ev
FNDA:2,_ZNSt15_Deque_iteratorINSt8__detail9_StateSeqINSt7__cxx1112regex_traitsIcEEEERS5_PS5_EC2Ev
FN:150,_ZNSt15_Deque_iteratorIlRlPlEC2Ev
FNDA:4,_ZNSt15_Deque_iteratorIlRlPlEC2Ev
FN:167,_ZNSt15_Deque_iteratorINSt8__detail9_StateSeqINSt7__cxx1112regex_traitsIcEEEERS5_PS5_EC2ERKS8_
FNDA:6,_ZNSt15_Deque_iteratorINSt8__detail9_StateSeqINSt7__cxx1112regex_traitsIcEEEERS5_PS5_EC2ERKS8_
FN:167,_ZNSt15_Deque_iteratorIlRlPlEC2ERKS2_
FNDA:6,_ZNSt15_Deque_iteratorIlRlPlEC2ERKS2_
FN:179,_ZNKSt15_Deque_iteratorINSt8__detail9_StateSeqINSt7__cxx1112regex_traitsIcEEEERS5_PS5_EdeEv
FNDA:4,_ZNKSt15_Deque_iteratorINSt8__detail9_StateSeqINSt7__cxx1112regex_traitsIcEEEERS5_PS5_EdeEv
FN:179,_ZNKSt15_Deque_iteratorIlRlPlEdeEv
FNDA:2,_ZNKSt15_Deque_iteratorIlRlPlEdeEv
FN:207,_ZNSt15_Deque_iteratorINSt8__detail9_StateSeqINSt7__cxx1112regex_traitsIcEEEERS5_PS5_EmmEv
FNDA:4,_ZNSt15_Deque_iteratorINSt8__detail9_StateSeqINSt7__cxx1112regex_traitsIcEEEERS5_PS5_EmmEv
FN:207,_ZNSt15_Deque_iteratorIlRlPlEmmEv
FNDA:2,_ZNSt15_Deque_iteratorIlRlPlEmmEv
FN:273,_ZNSt15_Deque_iteratorINSt8__detail9_StateSeqINSt7__cxx1112regex_traitsIcEEEERS5_PS5_E11_M_set_nodeEPS7_
FNDA:2,_ZNSt15_Deque_iteratorINSt8__detail9_StateSeqINSt7__cxx1112regex_traitsIcEEEERS5_PS5_E11_M_set_nodeEPS7_
FN:273,_ZNSt15_Deque_iteratorIlRlPlE11_M_set_nodeEPS1_
FNDA:4,_ZNSt15_Deque_iteratorIlRlPlE11_M_set_nodeEPS1_
FN:286,_ZSteqIlRlPlEbRKSt15_Deque_iteratorIT_T0_T1_ES8_
FNDA:4,_ZSteqIlRlPlEbRKSt15_Deque_iteratorIT_T0_T1_ES8_
FN:286,_ZSteqINSt8__detail9_StateSeqINSt7__cxx1112regex_traitsIcEEEERS5_PS5_EbRKSt15_Deque_iteratorIT_T0_T1_ESE_
FNDA:1,_ZSteqINSt8__detail9_StateSeqINSt7__cxx1112regex_traitsIcEEEERS5_PS5_EbRKSt15_Deque_iteratorIT_T0_T1_ESE_
FN:370,_ZStmiIlRlPlENSt15_Deque_iteratorIT_T0_T1_E15difference_typeERKS6_S9_
FNDA:0,_ZStmiIlRlPlENSt15_Deque_iteratorIT_T0_T1_E15difference_typeERKS6_S9_
FN:370,_ZStmiINSt8__detail9_StateSeqINSt7__cxx1112regex_traitsIcEEEERS5_PS5_ENSt15_Deque_iteratorIT_T0_T1_E15difference_typeERKSC_SF_
FNDA:0,_ZStmiINSt8__detail9_StateSeqINSt7__cxx1112regex_traitsIcEEEERS5_PS5_ENSt15_Deque_iteratorIT_T0_T1_E15difference_typeERKSC_SF_
FN:508,_ZNSt11_Deque_baseINSt8__detail9_StateSeqINSt7__cxx1112regex_traitsIcEEEESaIS5_EEC2Ev
FNDA:1,_ZNSt11_Deque_baseINSt8__detail9_StateSeqINSt7__cxx1112regex_traitsIcEEEESaIS5_EEC2Ev
FN:508,_ZNSt11_Deque_baseIlSaIlEEC2Ev
FNDA:2,_ZNSt11_Deque_baseIlSaIlEEC2Ev
FN:575,_ZNSt11_Deque_baseINSt8__detail9_StateSeqINSt7__cxx1112regex_traitsIcEEEESaIS5_EE11_Deque_implC2Ev
FNDA:1,_ZNSt11_Deque_baseINSt8__detail9_StateSeqINSt7__cxx1112regex_traitsIcEEEESaIS5_EE11_Deque_implC2Ev
FN:575,_ZNSt11_Deque_baseIlSaIlEE11_Deque_implC2Ev
FNDA:2,_ZNSt11_Deque_baseIlSaIlEE11_Deque_implC2Ev
FN:605,_ZNSt11_Deque_baseINSt8__detail9_StateSeqINSt7__cxx1112regex_traitsIcEEEESaIS5_EE19_M_get_Tp_allocatorEv
FNDA:1,_ZNSt11_Deque_baseINSt8__detail9_StateSeqINSt7__cxx1112regex_traitsIcEEEESaIS5_EE19_M_get_Tp_allocatorEv
FN:605,_ZNSt11_Deque_baseIlSaIlEE19_M_get_Tp_allocatorEv
FNDA:2,_ZNSt11_Deque_baseIlSaIlEE19_M_get_Tp_allocatorEv
FN:609,_ZNKSt11_Deque_baseIlSaIlEE19_M_get_Tp_allocatorEv
FNDA:4,_ZNKSt11_Deque_baseIlSaIlEE19_M_get_Tp_allocatorEv
FN:609,_ZNKSt11_Deque_baseINSt8__detail9_StateSeqINSt7__cxx1112regex_traitsIcEEEESaIS5_EE19_M_get_Tp_allocatorEv
FNDA:2,_ZNKSt11_Deque_baseINSt8__detail9_StateSeqINSt7__cxx1112regex_traitsIcEEEESaIS5_EE19_M_get_Tp_allocatorEv
FN:613,_ZNKSt11_Deque_baseINSt8__detail9_StateSeqINSt7__cxx1112regex_traitsIcEEEESaIS5_EE20_M_get_map_allocatorEv
FNDA:2,_ZNKSt11_Deque_baseINSt8__detail9_StateSeqINSt7__cxx1112regex_traitsIcEEEESaIS5_EE20_M_get_map_allocatorEv
FN:613,_ZNKSt11_Deque_baseIlSaIlEE20_M_get_map_allocatorEv
FNDA:4,_ZNKSt11_Deque_baseIlSaIlEE20_M_get_map_allocatorEv
FN:617,_ZNSt11_Deque_baseIlSaIlEE16_M_allocate_nodeEv
FNDA:2,_ZNSt11_Deque_baseIlSaIlEE16_M_allocate_nodeEv
FN:617,_ZNSt11_Deque_baseINSt8__detail9_StateSeqINSt7__cxx1112regex_traitsIcEEEESaIS5_EE16_M_allocate_nodeEv
FNDA:1,_ZNSt11_Deque_baseINSt8__detail9_StateSeqINSt7__cxx1112regex_traitsIcEEEESaIS5_EE16_M_allocate_nodeEv
FN:624,_ZNSt11_Deque_baseINSt8__detail9_StateSeqINSt7__cxx1112regex_traitsIcEEEESaIS5_EE18_M_deallocate_nodeEPS5_
FNDA:1,_ZNSt11_Deque_baseINSt8__detail9_StateSeqINSt7__cxx1112regex_traitsIcEEEESaIS5_EE18_M_deallocate_nodeEPS5_
FN:624,_ZNSt11_Deque_baseIlSaIlEE18_M_deallocate_nodeEPl
FNDA:2,_ZNSt11_Deque_baseIlSaIlEE18_M_deallocate_nodeEPl
FN:631,_ZNSt11_Deque_baseIlSaIlEE15_M_allocate_mapEm
FNDA:2,_ZNSt11_Deque_baseIlSaIlEE15_M_allocate_mapEm
FN:631,_ZNSt11_Deque_baseINSt8__detail9_StateSeqINSt7__cxx1112regex_traitsIcEEEESaIS5_EE15_M_allocate_mapEm
FNDA:1,_ZNSt11_Deque_baseINSt8__detail9_StateSeqINSt7__cxx1112regex_traitsIcEEEESaIS5_EE15_M_allocate_mapEm
FN:638,_ZNSt11_Deque_baseIlSaIlEE17_M_deallocate_mapEPPlm
FNDA:2,_ZNSt11_Deque_baseIlSaIlEE17_M_deallocate_mapEPPlm
FN:638,_ZNSt11_Deque_baseINSt8__detail9_StateSeqINSt7__cxx1112regex_traitsIcEEEESaIS5_EE17_M_deallocate_mapEPPS5_m
FNDA:1,_ZNSt11_Deque_baseINSt8__detail9_StateSeqINSt7__cxx1112regex_traitsIcEEEESaIS5_EE17_M_deallocate_mapEPPS5_m
FN:678,_ZNSt11_Deque_baseIlSaIlEED2Ev
FNDA:2,_ZNSt11_Deque_baseIlSaIlEED2Ev
FN:678,_ZNSt11_Deque_baseINSt8__detail9_StateSeqINSt7__cxx1112regex_traitsIcEEEESaIS5_EED2Ev
FNDA:1,_ZNSt11_Deque_baseINSt8__detail9_StateSeqINSt7__cxx1112regex_traitsIcEEEESaIS5_EED2Ev
FN:699,_ZNSt11_Deque_baseIlSaIlEE17_M_initialize_mapEm
FNDA:2,_ZNSt11_Deque_baseIlSaIlEE17_M_initialize_mapEm
FN:699,_ZNSt11_Deque_baseINSt8__detail9_StateSeqINSt7__cxx1112regex_traitsIcEEEESaIS5_EE17_M_initialize_mapEm
FNDA:1,_ZNSt11_Deque_baseINSt8__detail9_StateSeqINSt7__cxx1112regex_traitsIcEEEESaIS5_EE17_M_initialize_mapEm
FN:738,_ZNSt11_Deque_baseINSt8__detail9_StateSeqINSt7__cxx1112regex_traitsIcEEEESaIS5_EE15_M_create_nodesEPPS5_S9_
FNDA:1,_ZNSt11_Deque_baseINSt8__detail9_StateSeqINSt7__cxx1112regex_traitsIcEEEESaIS5_EE15_M_create_nodesEPPS5_S9_
FN:738,_ZNSt11_Deque_baseIlSaIlEE15_M_create_nodesEPPlS3_
FNDA:2,_ZNSt11_Deque_baseIlSaIlEE15_M_create_nodesEPPlS3_
FN:756,_ZNSt11_Deque_baseIlSaIlEE16_M_destroy_nodesEPPlS3_
FNDA:2,_ZNSt11_Deque_baseIlSaIlEE16_M_destroy_nodesEPPlS3_
FN:756,_ZNSt11_Deque_baseINSt8__detail9_StateSeqINSt7__cxx1112regex_traitsIcEEEESaIS5_EE16_M_destroy_nodesEPPS5_S9_
FNDA:1,_ZNSt11_Deque_baseINSt8__detail9_StateSeqINSt7__cxx1112regex_traitsIcEEEESaIS5_EE16_M_destroy_nodesEPPS5_S9_
FN:915,_ZNSt5dequeIlSaIlEEC2Ev
FNDA:2,_ZNSt5dequeIlSaIlEEC2Ev
FN:915,_ZNSt5dequeINSt8__detail9_StateSeqINSt7__cxx1112regex_traitsIcEEEESaIS5_EEC2Ev
FNDA:1,_ZNSt5dequeINSt8__detail9_StateSeqINSt7__cxx1112regex_traitsIcEEEESaIS5_EEC2Ev
FN:1071,_ZNSt5dequeINSt8__detail9_StateSeqINSt7__cxx1112regex_traitsIcEEEESaIS5_EED2Ev
FNDA:1,_ZNSt5dequeINSt8__detail9_StateSeqINSt7__cxx1112regex_traitsIcEEEESaIS5_EED2Ev
FN:1071,_ZNSt5dequeIlSaIlEED2Ev
FNDA:2,_ZNSt5dequeIlSaIlEED2Ev
FN:1193,_ZNSt5dequeIlSaIlEE5beginEv
FNDA:2,_ZNSt5dequeIlSaIlEE5beginEv
FN:1193,_ZNSt5dequeINSt8__detail9_StateSeqINSt7__cxx1112regex_traitsIcEEEESaIS5_EE5beginEv
FNDA:1,_ZNSt5dequeINSt8__detail9_StateSeqINSt7__cxx1112regex_traitsIcEEEESaIS5_EE5beginEv
FN:1210,_ZNSt5dequeINSt8__detail9_StateSeqINSt7__cxx1112regex_traitsIcEEEESaIS5_EE3endEv
FNDA:5,_ZNSt5dequeINSt8__detail9_StateSeqINSt7__cxx1112regex_traitsIcEEEESaIS5_EE3endEv
FN:1210,_ZNSt5dequeIlSaIlEE3endEv
FNDA:4,_ZNSt5dequeIlSaIlEE3endEv
FN:1298,_ZNKSt5dequeIlSaIlEE4sizeEv
FNDA:0,_ZNKSt5dequeIlSaIlEE4sizeEv
FN:1298,_ZNKSt5dequeINSt8__detail9_StateSeqINSt7__cxx1112regex_traitsIcEEEESaIS5_EE4sizeEv
FNDA:0,_ZNKSt5dequeINSt8__detail9_StateSeqINSt7__cxx1112regex_traitsIcEEEESaIS5_EE4sizeEv
FN:1303,_ZNKSt5dequeIlSaIlEE8max_sizeEv
FNDA:0,_ZNKSt5dequeIlSaIlEE8max_sizeEv
FN:1303,_ZNKSt5dequeINSt8__detail9_StateSeqINSt7__cxx1112regex_traitsIcEEEESaIS5_EE8max_sizeEv
FNDA:0,_ZNKSt5dequeINSt8__detail9_StateSeqINSt7__cxx1112regex_traitsIcEEEESaIS5_EE8max_sizeEv
FN:1384,_ZNKSt5dequeINSt8__detail9_StateSeqINSt7__cxx1112regex_traitsIcEEEESaIS5_EE5emptyEv
FNDA:1,_ZNKSt5dequeINSt8__detail9_StateSeqINSt7__cxx1112regex_traitsIcEEEESaIS5_EE5emptyEv
FN:1384,_ZNKSt5dequeIlSaIlEE5emptyEv
FNDA:4,_ZNKSt5dequeIlSaIlEE5emptyEv
FN:1500,_ZNSt5dequeINSt8__detail9_StateSeqINSt7__cxx1112regex_traitsIcEEEESaIS5_EE4backEv
FNDA:4,_ZNSt5dequeINSt8__detail9_StateSeqINSt7__cxx1112regex_traitsIcEEEESaIS5_EE4backEv
FN:1500,_ZNSt5dequeIlSaIlEE4backEv
FNDA:2,_ZNSt5dequeIlSaIlEE4backEv
FN:1569,_ZNSt5dequeIlSaIlEE9push_backERKl
FNDA:2,_ZNSt5dequeIlSaIlEE9push_backERKl
FN:1569,_ZNSt5dequeINSt8__detail9_StateSeqINSt7__cxx1112regex_traitsIcEEEESaIS5_EE9push_backERKS5_
FNDA:2,_ZNSt5dequeINSt8__detail9_StateSeqINSt7__cxx1112regex_traitsIcEEEESaIS5_EE9push_backERKS5_
FN:1584,_ZNSt5dequeINSt8__detail9_StateSeqINSt7__cxx1112regex_traitsIcEEEESaIS5_EE9push_backEOS5_
FNDA:2,_ZNSt5dequeINSt8__detail9_StateSeqINSt7__cxx1112regex_traitsIcEEEESaIS5_EE9push_backEOS5_
FN:1628,_ZNSt5dequeIlSaIlEE8pop_backEv
FNDA:2,_ZNSt5dequeIlSaIlEE8pop_backEv
FN:1628,_ZNSt5dequeINSt8__detail9_StateSeqINSt7__cxx1112regex_traitsIcEEEESaIS5_EE8pop_backEv
FNDA:4,_ZNSt5dequeINSt8__detail9_StateSeqINSt7__cxx1112regex_traitsIcEEEESaIS5_EE8pop_backEv
FN:1896,_ZNSt5dequeINSt8__detail9_StateSeqINSt7__cxx1112regex_traitsIcEEEESaIS5_EE11_S_max_sizeERKS6_
FNDA:0,_ZNSt5dequeINSt8__detail9_StateSeqINSt7__cxx1112regex_traitsIcEEEESaIS5_EE11_S_max_sizeERKS6_
FN:1896,_ZNSt5dequeIlSaIlEE11_S_max_sizeERKS0_
FNDA:0,_ZNSt5dequeIlSaIlEE11_S_max_sizeERKS0_
FN:2113,_ZNSt5dequeINSt8__detail9_StateSeqINSt7__cxx1112regex_traitsIcEEEESaIS5_EE15_M_destroy_dataESt15_Deque_iteratorIS5_RS5_PS5_ESB_RKS6_
FNDA:1,_ZNSt5dequeINSt8__detail9_StateSeqINSt7__cxx1112regex_traitsIcEEEESaIS5_EE15_M_destroy_dataESt15_Deque_iteratorIS5_RS5_PS5_ESB_RKS6_
FN:2113,_ZNSt5dequeIlSaIlEE15_M_destroy_dataESt15_Deque_iteratorIlRlPlES5_RKS0_
FNDA:2,_ZNSt5dequeIlSaIlEE15_M_destroy_dataESt15_Deque_iteratorIlRlPlES5_RKS0_
FN:2194,_ZNSt5dequeINSt8__detail9_StateSeqINSt7__cxx1112regex_traitsIcEEEESaIS5_EE22_M_reserve_map_at_backEm
FNDA:0,_ZNSt5dequeINSt8__detail9_StateSeqINSt7__cxx1112regex_traitsIcEEEESaIS5_EE22_M_reserve_map_at_backEm
FN:2194,_ZNSt5dequeIlSaIlEE22_M_reserve_map_at_backEm
FNDA:0,_ZNSt5dequeIlSaIlEE22_M_reserve_map_at_backEm
DA:93,18
DA:95,18
DA:130,4
DA:131,4
DA:130,2
DA:131,2
DA:150,4
DA:151,4
DA:150,2
DA:151,2
DA:167,6
DA:168,6
DA:169,6
DA:167,6
DA:168,6
DA:169,6
DA:179,2
DA:180,2
DA:179,4
DA:180,4
DA:207,2
DA:209,2
DA:211,0
DA:212,0
DA:214,2
DA:215,2
DA:207,4
DA:209,4
DA:211,0
DA:212,0
DA:214,4
DA:215,4
DA:273,4
DA:275,4
DA:276,4
DA:277,4
DA:278,4
DA:273,2
DA:275,2
DA:276,2
DA:277,2
DA:278,2
DA:286,4
DA:288,4
DA:286,1
DA:288,1
DA:370,0
DA:374,0
DA:375,0
DA:376,0
DA:370,0
DA:374,0
DA:375,0
DA:376,0
DA:508,2
DA:509,2
DA:510,2
DA:508,1
DA:509,1
DA:510,1
DA:575,2
DA:577,2
DA:578,2
DA:575,1
DA:577,1
DA:578,1
DA:605,2
DA:606,2
DA:605,1
DA:606,1
DA:609,4
DA:610,4
DA:609,2
DA:610,2
DA:613,4
DA:614,4
DA:613,2
DA:614,2
DA:617,2
DA:620,2
DA:617,1
DA:620,1
DA:624,2
DA:627,2
DA:628,2
DA:624,1
DA:627,1
DA:628,1
DA:631,2
DA:633,4
DA:634,4
DA:631,1
DA:633,2
DA:634,2
DA:638,2
DA:640,4
DA:641,2
DA:642,2
DA:638,1
DA:640,2
DA:641,1
DA:642,1
DA:678,2
DA:681,2
DA:683,2
DA:684,2
DA:685,2
DA:687,2
DA:678,1
DA:681,1
DA:683,1
DA:684,1
DA:685,1
DA:687,1
DA:699,2
DA:702,2
DA:705,4
DA:706,2
DA:707,2
DA:714,2
DA:715,2
DA:716,2
DA:719,2
DA:720,0
DA:722,0
DA:723,0
DA:724,0
DA:725,0
DA:728,2
DA:729,2
DA:730,2
DA:731,4
DA:732,2
DA:733,2
DA:734,2
DA:699,1
DA:702,1
DA:705,2
DA:706,1
DA:707,1
DA:714,1
DA:715,1
DA:716,1
DA:719,1
DA:720,0
DA:722,0
DA:723,0
DA:724,0
DA:725,0
DA:728,1
DA:729,1
DA:730,1
DA:731,2
DA:732,1
DA:733,1
DA:734,1
DA:738,2
DA:744,4
DA:745,2
DA:747,0
DA:749,0
DA:750,0
DA:752,2
DA:738,1
DA:744,2
DA:745,1
DA:747,0
DA:749,0
DA:750,0
DA:752,1
DA:756,2
DA:760,4
DA:761,2
DA:762,2
DA:756,1
DA:760,2
DA:761,1
DA:762,1
DA:915,2
DA:915,1
DA:1071,2
DA:1072,2
DA:1071,1
DA:1072,1
DA:1193,2
DA:1194,2
DA:1193,1
DA:1194,1
DA:1210,4
DA:1211,4
DA:1210,5
DA:1211,5
DA:1298,0
DA:1299,0
DA:1298,0
DA:1299,0
DA:1303,0
DA:1304,0
DA:1303,0
DA:1304,0
DA:1384,4
DA:1385,4
DA:1384,1
DA:1385,1
DA:1500,2
DA:1503,2
DA:1504,2
DA:1505,2
DA:1500,4
DA:1503,4
DA:1504,4
DA:1505,4
DA:1569,2
DA:1571,2
DA:1572,2
DA:1574,2
DA:1576,2
DA:1579,0
DA:1580,2
DA:1569,2
DA:1571,2
DA:1572,2
DA:1574,2
DA:1576,2
DA:1579,0
DA:1580,2
DA:1584,2
DA:1585,2
DA:1628,2
DA:1631,2
DA:1632,2
DA:1634,2
DA:1635,2
DA:1639,0
DA:1640,2
DA:1628,4
DA:1631,4
DA:1632,4
DA:1634,4
DA:1635,4
DA:1639,0
DA:1640,4
DA:1896,0
DA:1898,0
DA:1899,0
DA:1900,0
DA:1896,0
DA:1898,0
DA:1899,0
DA:1900,0
DA:2113,2
DA:2118,2
DA:2113,1
DA:2118,1
DA:2194,0
DA:2196,0
DA:2197,0
DA:2198,0
DA:2199,0
DA:2194,0
DA:2196,0
DA:2197,0
DA:2198,0
DA:2199,0
end_of_record
SF:/usr/include/c++/9/bits/regex_scanner.h
FN:91,_ZNSt8__detail12_ScannerBaseC2ENSt15regex_constants18syntax_option_typeE
FNDA:1,_ZNSt8__detail12_ScannerBaseC2ENSt15regex_constants18syntax_option_typeE
FN:115,_ZNSt8__detail12_ScannerBase14_M_find_escapeEc
FNDA:0,_ZNSt8__detail12_ScannerBase14_M_find_escapeEc
FN:125,_ZNKSt8__detail12_ScannerBase10_M_is_ecmaEv
FNDA:4,_ZNKSt8__detail12_ScannerBase10_M_is_ecmaEv
FN:129,_ZNKSt8__detail12_ScannerBase11_M_is_basicEv
FNDA:1,_ZNKSt8__detail12_ScannerBase11_M_is_basicEv
FN:145,_ZNKSt8__detail12_ScannerBase9_M_is_awkEv
FNDA:0,_ZNKSt8__detail12_ScannerBase9_M_is_awkEv
FN:226,_ZNKSt8__detail8_ScannerIcE12_M_get_tokenEv
FNDA:62,_ZNKSt8__detail8_ScannerIcE12_M_get_tokenEv
FN:230,_ZNKSt8__detail8_ScannerIcE12_M_get_valueB5cxx11Ev
FNDA:10,_ZNKSt8__detail8_ScannerIcE12_M_get_valueB5cxx11Ev
DA:91,1
DA:92,1
DA:94,1
DA:95,1
DA:97,1
DA:98,1
DA:99,0
DA:100,0
DA:101,0
DA:102,0
DA:103,0
DA:104,0
DA:105,0
DA:106,0
DA:107,0
DA:108,0
DA:110,2
DA:111,1
DA:115,0
DA:117,0
DA:118,0
DA:119,0
DA:120,0
DA:121,0
DA:125,4
DA:126,4
DA:129,1
DA:130,1
DA:145,0
DA:146,0
DA:226,62
DA:227,62
DA:230,10
DA:231,10
end_of_record
SF:/usr/include/c++/9/bits/stl_iterator.h
FN:799,_ZN9__gnu_cxx17__normal_iteratorIPKcNSt7__cxx1112basic_stringIcSt11char_traitsIcESaIcEEEEC2Ev
FNDA:318,_ZN9__gnu_cxx17__normal_iteratorIPKcNSt7__cxx1112basic_stringIcSt11char_traitsIcESaIcEEEEC2Ev
FN:803,_ZN9__gnu_cxx17__normal_iteratorIPSt4pairINSt7__cxx1112basic_stringIcSt11char_traitsIcESaIcEEES7_ESt6vectorIS8_SaIS8_EEEC2ERKS9_
FNDA:0,_ZN9__gnu_cxx17__normal_iteratorIPSt4pairINSt7__cxx1112basic_stringIcSt11char_traitsIcESaIcEEES7_ESt6vectorIS8_SaIS8_EEEC2ERKS9_
FN:803,_ZN9__gnu_cxx17__normal_iteratorIPSt4pairIlSt6vectorINSt7__cxx119sub_matchINS0_IPKcNS3_12basic_stringIcSt11char_traitsIcESaIcEEEEEEESaISD_EEES2_ISG_SaISG_EEEC2ERKSH_
FNDA:0,_ZN9__gnu_cxx17__normal_iteratorIPSt4pairIlSt6vectorINSt7__cxx119sub_matchINS0_IPKcNS3_12basic_stringIcSt11char_traitsIcESaIcEEEEEEESaISD_EEES2_ISG_SaISG_EEEC2ERKSH_
FN:803,_ZN9__gnu_cxx17__normal_iteratorIPNSt8__detail6_StateIcEESt6vectorIS3_SaIS3_EEEC2ERKS4_
FNDA:12,_ZN9__gnu_cxx17__normal_iteratorIPNSt8__detail6_StateIcEESt6vectorIS3_SaIS3_EEEC2ERKS4_
FN:803,_ZN9__gnu_cxx17__normal_iteratorIPmSt6vectorImSaImEEEC2ERKS1_
FNDA:4,_ZN9__gnu_cxx17__normal_iteratorIPmSt6vectorImSaImEEEC2ERKS1_
FN:803,_ZN9__gnu_cxx17__normal_iteratorIPKSt4pairIlSt6vectorINSt7__cxx119sub_matchINS0_IPKcNS3_12basic_stringIcSt11char_traitsIcESaIcEEEEEEESaISD_EEES2_ISG_SaISG_EEEC2ERKSI_
FNDA:0,_ZN9__gnu_cxx17__normal_iteratorIPKSt4pairIlSt6vectorINSt7__cxx119sub_matchINS0_IPKcNS3_12basic_stringIcSt11char_traitsIcESaIcEEEEEEESaISD_EEES2_ISG_SaISG_EEEC2ERKSI_
FN:803,_ZN9__gnu_cxx17__normal_iteratorIPcSt6vectorIcSaIcEEEC2ERKS1_
FNDA:8,_ZN9__gnu_cxx17__normal_iteratorIPcSt6vectorIcSaIcEEEC2ERKS1_
FN:803,_ZN9__gnu_cxx17__normal_iteratorIPNSt7__cxx1112regex_traitsIcE10_RegexMaskESt6vectorIS4_SaIS4_EEEC2ERKS5_
FNDA:0,_ZN9__gnu_cxx17__normal_iteratorIPNSt7__cxx1112regex_traitsIcE10_RegexMaskESt6vectorIS4_SaIS4_EEEC2ERKS5_
FN:803,_ZN9__gnu_cxx17__normal_iteratorIPKcSt6vectorIcSaIcEEEC2ERKS2_
FNDA:529,_ZN9__gnu_cxx17__normal_iteratorIPKcSt6vectorIcSaIcEEEC2ERKS2_
FN:803,_ZN9__gnu_cxx17__normal_iteratorIPKSt4pairIccESt6vectorIS2_SaIS2_EEEC2ERKS4_
FNDA:528,_ZN9__gnu_cxx17__normal_iteratorIPKSt4pairIccESt6vectorIS2_SaIS2_EEEC2ERKS4_
FN:803,_ZN9__gnu_cxx17__normal_iteratorIPKNSt7__cxx1112basic_stringIcSt11char_traitsIcESaIcEEESt6vectorIS6_SaIS6_EEEC2ERKS8_
FNDA:754,_ZN9__gnu_cxx17__normal_iteratorIPKNSt7__cxx1112basic_stringIcSt11char_traitsIcESaIcEEESt6vectorIS6_SaIS6_EEEC2ERKS8_
FN:803,_ZN9__gnu_cxx17__normal_iteratorIPNSt7__cxx119sub_matchINS0_IPKcNS1_12basic_stringIcSt11char_traitsIcESaIcEEEEEEESt6vectorISB_SaISB_EEEC2ERKSC_
FNDA:149,_ZN9__gnu_cxx17__normal_iteratorIPNSt7__cxx119sub_matchINS0_IPKcNS1_12basic_stringIcSt11char_traitsIcESaIcEEEEEEESt6vectorISB_SaISB_EEEC2ERKSC_
FN:803,_ZN9__gnu_cxx17__normal_iteratorIPKNSt7__cxx1112regex_traitsIcE10_RegexMaskESt6vectorIS4_SaIS4_EEEC2ERKS6_
FNDA:508,_ZN9__gnu_cxx17__normal_iteratorIPKNSt7__cxx1112regex_traitsIcE10_RegexMaskESt6vectorIS4_SaIS4_EEEC2ERKS6_
FN:803,_ZN9__gnu_cxx17__normal_iteratorIPKSt4pairINSt7__cxx1112basic_stringIcSt11char_traitsIcESaIcEEES7_ESt6vectorIS8_SaIS8_EEEC2ERKSA_
FNDA:0,_ZN9__gnu_cxx17__normal_iteratorIPKSt4pairINSt7__cxx1112basic_stringIcSt11char_traitsIcESaIcEEES7_ESt6vectorIS8_SaIS8_EEEC2ERKSA_
FN:803,_ZN9__gnu_cxx17__normal_iteratorIPKNSt7__cxx119sub_matchINS0_IPKcNS1_12basic_stringIcSt11char_traitsIcESaIcEEEEEEESt6vectorISB_SaISB_EEEC2ERKSD_
FNDA:256,_ZN9__gnu_cxx17__normal_iteratorIPKNSt7__cxx119sub_matchINS0_IPKcNS1_12basic_stringIcSt11char_traitsIcESaIcEEEEEEESt6vectorISB_SaISB_EEEC2ERKSD_
FN:803,_ZN9__gnu_cxx17__normal_iteratorIPSt4pairIccESt6vectorIS2_SaIS2_EEEC2ERKS3_
FNDA:2,_ZN9__gnu_cxx17__normal_iteratorIPSt4pairIccESt6vectorIS2_SaIS2_EEEC2ERKS3_
FN:803,_ZN9__gnu_cxx17__normal_iteratorIPNSt7__cxx1112basic_stringIcSt11char_traitsIcESaIcEEESt6vectorIS6_SaIS6_EEEC2ERKS7_
FNDA:0,_ZN9__gnu_cxx17__normal_iteratorIPNSt7__cxx1112basic_stringIcSt11char_traitsIcESaIcEEESt6vectorIS6_SaIS6_EEEC2ERKS7_
FN:808,_ZN9__gnu_cxx17__normal_iteratorIPKcSt6vectorIcSaIcEEEC2IPcEERKNS0_IT_NS_11__enable_ifIXsrSt10__are_sameIS9_S8_E7__valueES5_E6__typeEEE
FNDA:2,_ZN9__gnu_cxx17__normal_iteratorIPKcSt6vectorIcSaIcEEEC2IPcEERKNS0_IT_NS_11__enable_ifIXsrSt10__are_sameIS9_S8_E7__valueES5_E6__typeEEE
FN:808,_ZN9__gnu_cxx17__normal_iteratorIPKcNSt7__cxx1112basic_stringIcSt11char_traitsIcESaIcEEEEC2IPcEERKNS0_IT_NS_11__enable_ifIXsrSt10__are_sameISC_SB_E7__valueES8_E6__typeEEE
FNDA:10,_ZN9__gnu_cxx17__normal_iteratorIPKcNSt7__cxx1112basic_stringIcSt11char_traitsIcESaIcEEEEC2IPcEERKNS0_IT_NS_11__enable_ifIXsrSt10__are_sameISC_SB_E7__valueES8_E6__typeEEE
FN:816,_ZNK9__gnu_cxx17__normal_iteratorIPKNSt7__cxx1112regex_traitsIcE10_RegexMaskESt6vectorIS4_SaIS4_EEEdeEv
FNDA:0,_ZNK9__gnu_cxx17__normal_iteratorIPKNSt7__cxx1112regex_traitsIcE10_RegexMaskESt6vectorIS4_SaIS4_EEEdeEv
FN:816,_ZNK9__gnu_cxx17__normal_iteratorIPNSt7__cxx119sub_matchINS0_IPKcNS1_12basic_stringIcSt11char_traitsIcESaIcEEEEEEESt6vectorISB_SaISB_EEEdeEv
FNDA:131,_ZNK9__gnu_cxx17__normal_iteratorIPNSt7__cxx119sub_matchINS0_IPKcNS1_12basic_stringIcSt11char_traitsIcESaIcEEEEEEESt6vectorISB_SaISB_EEEdeEv
FN:816,_ZNK9__gnu_cxx17__normal_iteratorIPKNSt7__cxx119sub_matchINS0_IPKcNS1_12basic_stringIcSt11char_traitsIcESaIcEEEEEEESt6vectorISB_SaISB_EEEdeEv
FNDA:116,_ZNK9__gnu_cxx17__normal_iteratorIPKNSt7__cxx119sub_matchINS0_IPKcNS1_12basic_stringIcSt11char_traitsIcESaIcEEEEEEESt6vectorISB_SaISB_EEEdeEv
FN:816,_ZNK9__gnu_cxx17__normal_iteratorIPKcNSt7__cxx1112basic_stringIcSt11char_traitsIcESaIcEEEEdeEv
FNDA:35,_ZNK9__gnu_cxx17__normal_iteratorIPKcNSt7__cxx1112basic_stringIcSt11char_traitsIcESaIcEEEEdeEv
FN:816,_ZNK9__gnu_cxx17__normal_iteratorIPKcSt6vectorIcSaIcEEEdeEv
FNDA:0,_ZNK9__gnu_cxx17__normal_iteratorIPKcSt6vectorIcSaIcEEEdeEv
FN:816,_ZNK9__gnu_cxx17__normal_iteratorIPKSt4pairINSt7__cxx1112basic_stringIcSt11char_traitsIcESaIcEEES7_ESt6vectorIS8_SaIS8_EEEdeEv
FNDA:0,_ZNK9__gnu_cxx17__normal_iteratorIPKSt4pairINSt7__cxx1112basic_stringIcSt11char_traitsIcESaIcEEES7_ESt6vectorIS8_SaIS8_EEEdeEv
FN:816,_ZNK9__gnu_cxx17__normal_iteratorIPmSt6vectorImSaImEEEdeEv
FNDA:1,_ZNK9__gnu_cxx17__normal_iteratorIPmSt6vectorImSaImEEEdeEv
FN:816,_ZNK9__gnu_cxx17__normal_iteratorIPKNSt7__cxx1112basic_stringIcSt11char_traitsIcESaIcEEESt6vectorIS6_SaIS6_EEEdeEv
FNDA:0,_ZNK9__gnu_cxx17__normal_iteratorIPKNSt7__cxx1112basic_stringIcSt11char_traitsIcESaIcEEESt6vectorIS6_SaIS6_EEEdeEv
FN:816,_ZNK9__gnu_cxx17__normal_iteratorIPKSt4pairIccESt6vectorIS2_SaIS2_EEEdeEv
FNDA:264,_ZNK9__gnu_cxx17__normal_iteratorIPKSt4pairIccESt6vectorIS2_SaIS2_EEEdeEv
FN:816,_ZNK9__gnu_cxx17__normal_iteratorIPcSt6vectorIcSaIcEEEdeEv
FNDA:0,_ZNK9__gnu_cxx17__normal_iteratorIPcSt6vectorIcSaIcEEEdeEv
FN:816,_ZNK9__gnu_cxx17__normal_iteratorIPNSt8__detail6_StateIcEESt6vectorIS3_SaIS3_EEEdeEv
FNDA:9,_ZNK9__gnu_cxx17__normal_iteratorIPNSt8__detail6_StateIcEESt6vectorIS3_SaIS3_EEEdeEv
FN:816,_ZNK9__gnu_cxx17__normal_iteratorIPSt4pairIlSt6vectorINSt7__cxx119sub_matchINS0_IPKcNS3_12basic_stringIcSt11char_traitsIcESaIcEEEEEEESaISD_EEES2_ISG_SaISG_EEEdeEv
FNDA:0,_ZNK9__gnu_cxx17__normal_iteratorIPSt4pairIlSt6vectorINSt7__cxx119sub_matchINS0_IPKcNS3_12basic_stringIcSt11char_traitsIcESaIcEEEEEEESaISD_EEES2_ISG_SaISG_EEEdeEv
FN:824,_ZN9__gnu_cxx17__normal_iteratorIPNSt8__detail6_StateIcEESt6vectorIS3_SaIS3_EEEppEv
FNDA:9,_ZN9__gnu_cxx17__normal_iteratorIPNSt8__detail6_StateIcEESt6vectorIS3_SaIS3_EEEppEv
FN:824,_ZN9__gnu_cxx17__normal_iteratorIPKNSt7__cxx1112regex_traitsIcE10_RegexMaskESt6vectorIS4_SaIS4_EEEppEv
FNDA:0,_ZN9__gnu_cxx17__normal_iteratorIPKNSt7__cxx1112regex_traitsIcE10_RegexMaskESt6vectorIS4_SaIS4_EEEppEv
FN:824,_ZN9__gnu_cxx17__normal_iteratorIPKSt4pairINSt7__cxx1112basic_stringIcSt11char_traitsIcESaIcEEES7_ESt6vectorIS8_SaIS8_EEEppEv
FNDA:0,_ZN9__gnu_cxx17__normal_iteratorIPKSt4pairINSt7__cxx1112basic_stringIcSt11char_traitsIcESaIcEEES7_ESt6vectorIS8_SaIS8_EEEppEv
FN:824,_ZN9__gnu_cxx17__normal_iteratorIPcSt6vectorIcSaIcEEEppEv
FNDA:0,_ZN9__gnu_cxx17__normal_iteratorIPcSt6vectorIcSaIcEEEppEv
FN:824,_ZN9__gnu_cxx17__normal_iteratorIPSt4pairIlSt6vectorINSt7__cxx119sub_matchINS0_IPKcNS3_12basic_stringIcSt11char_traitsIcESaIcEEEEEEESaISD_EEES2_ISG_SaISG_EEEppEv
FNDA:0,_ZN9__gnu_cxx17__normal_iteratorIPSt4pairIlSt6vectorINSt7__cxx119sub_matchINS0_IPKcNS3_12basic_stringIcSt11char_traitsIcESaIcEEEEEEESaISD_EEES2_ISG_SaISG_EEEppEv
FN:824,_ZN9__gnu_cxx17__normal_iteratorIPKSt4pairIccESt6vectorIS2_SaIS2_EEEppEv
FNDA:254,_ZN9__gnu_cxx17__normal_iteratorIPKSt4pairIccESt6vectorIS2_SaIS2_EEEppEv
FN:824,_ZN9__gnu_cxx17__normal_iteratorIPKNSt7__cxx119sub_matchINS0_IPKcNS1_12basic_stringIcSt11char_traitsIcESaIcEEEEEEESt6vectorISB_SaISB_EEEppEv
FNDA:116,_ZN9__gnu_cxx17__normal_iteratorIPKNSt7__cxx119sub_matchINS0_IPKcNS1_12basic_stringIcSt11char_traitsIcESaIcEEEEEEESt6vectorISB_SaISB_EEEppEv
FN:824,_ZN9__gnu_cxx17__normal_iteratorIPmSt6vectorImSaImEEEppEv
FNDA:0,_ZN9__gnu_cxx17__normal_iteratorIPmSt6vectorImSaImEEEppEv
FN:824,_ZN9__gnu_cxx17__normal_iteratorIPNSt7__cxx119sub_matchINS0_IPKcNS1_12basic_stringIcSt11char_traitsIcESaIcEEEEEEESt6vectorISB_SaISB_EEEppEv
FNDA:131,_ZN9__gnu_cxx17__normal_iteratorIPNSt7__cxx119sub_matchINS0_IPKcNS1_12basic_stringIcSt11char_traitsIcESaIcEEEEEEESt6vectorISB_SaISB_EEEppEv
FN:824,_ZN9__gnu_cxx17__normal_iteratorIPKcNSt7__cxx1112basic_stringIcSt11char_traitsIcESaIcEEEEppEv
FNDA:27,_ZN9__gnu_cxx17__normal_iteratorIPKcNSt7__cxx1112basic_stringIcSt11char_traitsIcESaIcEEEEppEv
FN:824,_ZN9__gnu_cxx17__normal_iteratorIPKcSt6vectorIcSaIcEEEppEv
FNDA:0,_ZN9__gnu_cxx17__normal_iteratorIPKcSt6vectorIcSaIcEEEppEv
FN:824,_ZN9__gnu_cxx17__normal_iteratorIPKNSt7__cxx1112basic_stringIcSt11char_traitsIcESaIcEEESt6vectorIS6_SaIS6_EEEppEv
FNDA:0,_ZN9__gnu_cxx17__normal_iteratorIPKNSt7__cxx1112basic_stringIcSt11char_traitsIcESaIcEEESt6vectorIS6_SaIS6_EEEppEv
FN:836,_ZN9__gnu_cxx17__normal_iteratorIPcSt6vectorIcSaIcEEEmmEv
FNDA:0,_ZN9__gnu_cxx17__normal_iteratorIPcSt6vectorIcSaIcEEEmmEv
FN:836,_ZN9__gnu_cxx17__normal_iteratorIPKcNSt7__cxx1112basic_stringIcSt11char_traitsIcESaIcEEEEmmEv
FNDA:13,_ZN9__gnu_cxx17__normal_iteratorIPKcNSt7__cxx1112basic_stringIcSt11char_traitsIcESaIcEEEEmmEv
FN:852,_ZN9__gnu_cxx17__normal_iteratorIPKcSt6vectorIcSaIcEEEpLEl
FNDA:0,_ZN9__gnu_cxx17__normal_iteratorIPKcSt6vectorIcSaIcEEEpLEl
FN:852,_ZN9__gnu_cxx17__normal_iteratorIPKcNSt7__cxx1112basic_stringIcSt11char_traitsIcESaIcEEEEpLEl
FNDA:0,_ZN9__gnu_cxx17__normal_iteratorIPKcNSt7__cxx1112basic_stringIcSt11char_traitsIcESaIcEEEEpLEl
FN:856,_ZNK9__gnu_cxx17__normal_iteratorIPcSt6vectorIcSaIcEEEplEl
FNDA:2,_ZNK9__gnu_cxx17__normal_iteratorIPcSt6vectorIcSaIcEEEplEl
FN:856,_ZNK9__gnu_cxx17__normal_iteratorIPNSt7__cxx119sub_matchINS0_IPKcNS1_12basic_stringIcSt11char_traitsIcESaIcEEEEEEESt6vectorISB_SaISB_EEEplEl
FNDA:27,_ZNK9__gnu_cxx17__normal_iteratorIPNSt7__cxx119sub_matchINS0_IPKcNS1_12basic_stringIcSt11char_traitsIcESaIcEEEEEEESt6vectorISB_SaISB_EEEplEl
FN:864,_ZNK9__gnu_cxx17__normal_iteratorIPcSt6vectorIcSaIcEEEmiEl
FNDA:0,_ZNK9__gnu_cxx17__normal_iteratorIPcSt6vectorIcSaIcEEEmiEl
FN:864,_ZNK9__gnu_cxx17__normal_iteratorIPmSt6vectorImSaImEEEmiEl
FNDA:1,_ZNK9__gnu_cxx17__normal_iteratorIPmSt6vectorImSaImEEEmiEl
FN:868,_ZNK9__gnu_cxx17__normal_iteratorIPKcSt6vectorIcSaIcEEE4baseEv
FNDA:1044,_ZNK9__gnu_cxx17__normal_iteratorIPKcSt6vectorIcSaIcEEE4baseEv
FN:868,_ZNK9__gnu_cxx17__normal_iteratorIPNSt7__cxx119sub_matchINS0_IPKcNS1_12basic_stringIcSt11char_traitsIcESaIcEEEEEEESt6vectorISB_SaISB_EEE4baseEv
FNDA:384,_ZNK9__gnu_cxx17__normal_iteratorIPNSt7__cxx119sub_matchINS0_IPKcNS1_12basic_stringIcSt11char_traitsIcESaIcEEEEEEESt6vectorISB_SaISB_EEE4baseEv
FN:868,_ZNK9__gnu_cxx17__normal_iteratorIPKNSt7__cxx119sub_matchINS0_IPKcNS1_12basic_stringIcSt11char_traitsIcESaIcEEEEEEESt6vectorISB_SaISB_EEE4baseEv
FNDA:488,_ZNK9__gnu_cxx17__normal_iteratorIPKNSt7__cxx119sub_matchINS0_IPKcNS1_12basic_stringIcSt11char_traitsIcESaIcEEEEEEESt6vectorISB_SaISB_EEE4baseEv
FN:868,_ZNK9__gnu_cxx17__normal_iteratorIPcSt6vectorIcSaIcEEE4baseEv
FNDA:10,_ZNK9__gnu_cxx17__normal_iteratorIPcSt6vectorIcSaIcEEE4baseEv
FN:868,_ZNK9__gnu_cxx17__normal_iteratorIPKcNSt7__cxx1112basic_stringIcSt11char_traitsIcESaIcEEEE4baseEv
FNDA:264,_ZNK9__gnu_cxx17__normal_iteratorIPKcNSt7__cxx1112basic_stringIcSt11char_traitsIcESaIcEEEE4baseEv
FN:868,_ZNK9__gnu_cxx17__normal_iteratorIPNSt7__cxx1112regex_traitsIcE10_RegexMaskESt6vectorIS4_SaIS4_EEE4baseEv
FNDA:0,_ZNK9__gnu_cxx17__normal_iteratorIPNSt7__cxx1112regex_traitsIcE10_RegexMaskESt6vectorIS4_SaIS4_EEE4baseEv
FN:868,_ZNK9__gnu_cxx17__normal_iteratorIPSt4pairINSt7__cxx1112basic_stringIcSt11char_traitsIcESaIcEEES7_ESt6vectorIS8_SaIS8_EEE4baseEv
FNDA:0,_ZNK9__gnu_cxx17__normal_iteratorIPSt4pairINSt7__cxx1112basic_stringIcSt11char_traitsIcESaIcEEES7_ESt6vectorIS8_SaIS8_EEE4baseEv
FN:868,_ZNK9__gnu_cxx17__normal_iteratorIPNSt8__detail6_StateIcEESt6vectorIS3_SaIS3_EEE4baseEv
FNDA:40,_ZNK9__gnu_cxx17__normal_iteratorIPNSt8__detail6_StateIcEESt6vectorIS3_SaIS3_EEE4baseEv
FN:868,_ZNK9__gnu_cxx17__normal_iteratorIPKSt4pairIccESt6vectorIS2_SaIS2_EEE4baseEv
FNDA:1036,_ZNK9__gnu_cxx17__normal_iteratorIPKSt4pairIccESt6vectorIS2_SaIS2_EEE4baseEv
FN:868,_ZNK9__gnu_cxx17__normal_iteratorIPKNSt7__cxx1112basic_stringIcSt11char_traitsIcESaIcEEESt6vectorIS6_SaIS6_EEE4baseEv
FNDA:1492,_ZNK9__gnu_cxx17__normal_iteratorIPKNSt7__cxx1112basic_stringIcSt11char_traitsIcESaIcEEESt6vectorIS6_SaIS6_EEE4baseEv
FN:868,_ZNK9__gnu_cxx17__normal_iteratorIPSt4pairIccESt6vectorIS2_SaIS2_EEE4baseEv
FNDA:4,_ZNK9__gnu_cxx17__normal_iteratorIPSt4pairIccESt6vectorIS2_SaIS2_EEE4baseEv
FN:868,_ZNK9__gnu_cxx17__normal_iteratorIPKNSt7__cxx1112regex_traitsIcE10_RegexMaskESt6vectorIS4_SaIS4_EEE4baseEv
FNDA:508,_ZNK9__gnu_cxx17__normal_iteratorIPKNSt7__cxx1112regex_traitsIcE10_RegexMaskESt6vectorIS4_SaIS4_EEE4baseEv
FN:868,_ZNK9__gnu_cxx17__normal_iteratorIPSt4pairIlSt6vectorINSt7__cxx119sub_matchINS0_IPKcNS3_12basic_stringIcSt11char_traitsIcESaIcEEEEEEESaISD_EEES2_ISG_SaISG_EEE4baseEv
FNDA:0,_ZNK9__gnu_cxx17__normal_iteratorIPSt4pairIlSt6vectorINSt7__cxx119sub_matchINS0_IPKcNS3_12basic_stringIcSt11char_traitsIcESaIcEEEEEEESaISD_EEES2_ISG_SaISG_EEE4baseEv
FN:868,_ZNK9__gnu_cxx17__normal_iteratorIPKSt4pairINSt7__cxx1112basic_stringIcSt11char_traitsIcESaIcEEES7_ESt6vectorIS8_SaIS8_EEE4baseEv
FNDA:0,_ZNK9__gnu_cxx17__normal_iteratorIPKSt4pairINSt7__cxx1112basic_stringIcSt11char_traitsIcESaIcEEES7_ESt6vectorIS8_SaIS8_EEE4baseEv
FN:868,_ZNK9__gnu_cxx17__normal_iteratorIPcNSt7__cxx1112basic_stringIcSt11char_traitsIcESaIcEEEE4baseEv
FNDA:10,_ZNK9__gnu_cxx17__normal_iteratorIPcNSt7__cxx1112basic_stringIcSt11char_traitsIcESaIcEEEE4baseEv
FN:868,_ZNK9__gnu_cxx17__normal_iteratorIPmSt6vectorImSaImEEE4baseEv
FNDA:4,_ZNK9__gnu_cxx17__normal_iteratorIPmSt6vectorImSaImEEE4baseEv
FN:868,_ZNK9__gnu_cxx17__normal_iteratorIPNSt7__cxx1112basic_stringIcSt11char_traitsIcESaIcEEESt6vectorIS6_SaIS6_EEE4baseEv
FNDA:0,_ZNK9__gnu_cxx17__normal_iteratorIPNSt7__cxx1112basic_stringIcSt11char_traitsIcESaIcEEESt6vectorIS6_SaIS6_EEE4baseEv
FN:868,_ZNK9__gnu_cxx17__normal_iteratorIPKSt4pairIlSt6vectorINSt7__cxx119sub_matchINS0_IPKcNS3_12basic_stringIcSt11char_traitsIcESaIcEEEEEEESaISD_EEES2_ISG_SaISG_EEE4baseEv
FNDA:0,_ZNK9__gnu_cxx17__normal_iteratorIPKSt4pairIlSt6vectorINSt7__cxx119sub_matchINS0_IPKcNS3_12basic_stringIcSt11char_traitsIcESaIcEEEEEEESaISD_EEES2_ISG_SaISG_EEE4baseEv
FN:890,_ZN9__gnu_cxxeqIPKSt4pairIlSt6vectorINSt7__cxx119sub_matchINS_17__normal_iteratorIPKcNS3_12basic_stringIcSt11char_traitsIcESaIcEEEEEEESaISE_EEES2_ISH_SaISH_EEEEbRKNS5_IT_T0_EESQ_
FNDA:0,_ZN9__gnu_cxxeqIPKSt4pairIlSt6vectorINSt7__cxx119sub_matchINS_17__normal_iteratorIPKcNS3_12basic_stringIcSt11char_traitsIcESaIcEEEEEEESaISE_EEES2_ISH_SaISH_EEEEbRKNS5_IT_T0_EESQ_
FN:890,_ZN9__gnu_cxxeqIPKcNSt7__cxx1112basic_stringIcSt11char_traitsIcESaIcEEEEEbRKNS_17__normal_iteratorIT_T0_EESE_
FNDA:68,_ZN9__gnu_cxxeqIPKcNSt7__cxx1112basic_stringIcSt11char_traitsIcESaIcEEEEEbRKNS_17__normal_iteratorIT_T0_EESE_
FN:890,_ZN9__gnu_cxxeqIPKNSt7__cxx119sub_matchINS_17__normal_iteratorIPKcNS1_12basic_stringIcSt11char_traitsIcESaIcEEEEEEESt6vectorISC_SaISC_EEEEbRKNS3_IT_T0_EESM_
FNDA:72,_ZN9__gnu_cxxeqIPKNSt7__cxx119sub_matchINS_17__normal_iteratorIPKcNS1_12basic_stringIcSt11char_traitsIcESaIcEEEEEEESt6vectorISC_SaISC_EEEEbRKNS3_IT_T0_EESM_
FN:890,_ZN9__gnu_cxxeqIPcSt6vectorIcSaIcEEEEbRKNS_17__normal_iteratorIT_T0_EESA_
FNDA:2,_ZN9__gnu_cxxeqIPcSt6vectorIcSaIcEEEEbRKNS_17__normal_iteratorIT_T0_EESA_
FN:904,_ZN9__gnu_cxxneIPKSt4pairIccESt6vectorIS2_SaIS2_EEEEbRKNS_17__normal_iteratorIT_T0_EESD_
FNDA:518,_ZN9__gnu_cxxneIPKSt4pairIccESt6vectorIS2_SaIS2_EEEEbRKNS_17__normal_iteratorIT_T0_EESD_
FN:904,_ZN9__gnu_cxxneIPKNSt7__cxx119sub_matchINS_17__normal_iteratorIPKcNS1_12basic_stringIcSt11char_traitsIcESaIcEEEEEEESt6vectorISC_SaISC_EEEEbRKNS3_IT_T0_EESM_
FNDA:145,_ZN9__gnu_cxxneIPKNSt7__cxx119sub_matchINS_17__normal_iteratorIPKcNS1_12basic_stringIcSt11char_traitsIcESaIcEEEEEEESt6vectorISC_SaISC_EEEEbRKNS3_IT_T0_EESM_
FN:904,_ZN9__gnu_cxxneIPcSt6vectorIcSaIcEEEEbRKNS_17__normal_iteratorIT_T0_EESA_
FNDA:2,_ZN9__gnu_cxxneIPcSt6vectorIcSaIcEEEEbRKNS_17__normal_iteratorIT_T0_EESA_
FN:904,_ZN9__gnu_cxxneIPmSt6vectorImSaImEEEEbRKNS_17__normal_iteratorIT_T0_EESA_
FNDA:0,_ZN9__gnu_cxxneIPmSt6vectorImSaImEEEEbRKNS_17__normal_iteratorIT_T0_EESA_
FN:904,_ZN9__gnu_cxxneIPcNSt7__cxx1112basic_stringIcSt11char_traitsIcESaIcEEEEEbRKNS_17__normal_iteratorIT_T0_EESD_
FNDA:0,_ZN9__gnu_cxxneIPcNSt7__cxx1112basic_stringIcSt11char_traitsIcESaIcEEEEEbRKNS_17__normal_iteratorIT_T0_EESD_
FN:904,_ZN9__gnu_cxxneIPNSt8__detail6_StateIcEESt6vectorIS3_SaIS3_EEEEbRKNS_17__normal_iteratorIT_T0_EESD_
FNDA:10,_ZN9__gnu_cxxneIPNSt8__detail6_StateIcEESt6vectorIS3_SaIS3_EEEEbRKNS_17__normal_iteratorIT_T0_EESD_
FN:904,_ZN9__gnu_cxxneIPSt4pairIlSt6vectorINSt7__cxx119sub_matchINS_17__normal_iteratorIPKcNS3_12basic_stringIcSt11char_traitsIcESaIcEEEEEEESaISE_EEES2_ISH_SaISH_EEEEbRKNS5_IT_T0_EESP_
FNDA:0,_ZN9__gnu_cxxneIPSt4pairIlSt6vectorINSt7__cxx119sub_matchINS_17__normal_iteratorIPKcNS3_12basic_stringIcSt11char_traitsIcESaIcEEEEEEESaISE_EEES2_ISH_SaISH_EEEEbRKNS5_IT_T0_EESP_
FN:904,_ZN9__gnu_cxxneIPKcSt6vectorIcSaIcEEEEbRKNS_17__normal_iteratorIT_T0_EESB_
FNDA:256,_ZN9__gnu_cxxneIPKcSt6vectorIcSaIcEEEEbRKNS_17__normal_iteratorIT_T0_EESB_
FN:904,_ZN9__gnu_cxxneIPKNSt7__cxx1112basic_stringIcSt11char_traitsIcESaIcEEESt6vectorIS6_SaIS6_EEEEbRKNS_17__normal_iteratorIT_T0_EESH_
FNDA:254,_ZN9__gnu_cxxneIPKNSt7__cxx1112basic_stringIcSt11char_traitsIcESaIcEEESt6vectorIS6_SaIS6_EEEEbRKNS_17__normal_iteratorIT_T0_EESH_
FN:904,_ZN9__gnu_cxxneIPKNSt7__cxx1112regex_traitsIcE10_RegexMaskESt6vectorIS4_SaIS4_EEEEbRKNS_17__normal_iteratorIT_T0_EESF_
FNDA:254,_ZN9__gnu_cxxneIPKNSt7__cxx1112regex_traitsIcE10_RegexMaskESt6vectorIS4_SaIS4_EEEEbRKNS_17__normal_iteratorIT_T0_EESF_
FN:904,_ZN9__gnu_cxxneIPKcNSt7__cxx1112basic_stringIcSt11char_traitsIcESaIcEEEEEbRKNS_17__normal_iteratorIT_T0_EESE_
FNDA:52,_ZN9__gnu_cxxneIPKcNSt7__cxx1112basic_stringIcSt11char_traitsIcESaIcEEEEEbRKNS_17__normal_iteratorIT_T0_EESE_
FN:904,_ZN9__gnu_cxxneIPKSt4pairINSt7__cxx1112basic_stringIcSt11char_traitsIcESaIcEEES7_ESt6vectorIS8_SaIS8_EEEEbRKNS_17__normal_iteratorIT_T0_EESJ_
FNDA:0,_ZN9__gnu_cxxneIPKSt4pairINSt7__cxx1112basic_stringIcSt11char_traitsIcESaIcEEES7_ESt6vectorIS8_SaIS8_EEEEbRKNS_17__normal_iteratorIT_T0_EESJ_
FN:904,_ZN9__gnu_cxxneIPNSt7__cxx119sub_matchINS_17__normal_iteratorIPKcNS1_12basic_stringIcSt11char_traitsIcESaIcEEEEEEESt6vectorISC_SaISC_EEEEbRKNS3_IT_T0_EESL_
FNDA:165,_ZN9__gnu_cxxneIPNSt7__cxx119sub_matchINS_17__normal_iteratorIPKcNS1_12basic_stringIcSt11char_traitsIcESaIcEEEEEEESt6vectorISC_SaISC_EEEEbRKNS3_IT_T0_EESL_
FN:919,_ZN9__gnu_cxxltIPcSt6vectorIcSaIcEEEEbRKNS_17__normal_iteratorIT_T0_EESA_
FNDA:0,_ZN9__gnu_cxxltIPcSt6vectorIcSaIcEEEEbRKNS_17__normal_iteratorIT_T0_EESA_
FN:986,_ZN9__gnu_cxxmiIPKcNSt7__cxx1112basic_stringIcSt11char_traitsIcESaIcEEEEENS_17__normal_iteratorIT_T0_E15difference_typeERKSC_SF_
FNDA:12,_ZN9__gnu_cxxmiIPKcNSt7__cxx1112basic_stringIcSt11char_traitsIcESaIcEEEEENS_17__normal_iteratorIT_T0_E15difference_typeERKSC_SF_
FN:986,_ZN9__gnu_cxxmiIPSt4pairIlSt6vectorINSt7__cxx119sub_matchINS_17__normal_iteratorIPKcNS3_12basic_stringIcSt11char_traitsIcESaIcEEEEEEESaISE_EEES2_ISH_SaISH_EEEENS5_IT_T0_E15difference_typeERKSN_SQ_
FNDA:0,_ZN9__gnu_cxxmiIPSt4pairIlSt6vectorINSt7__cxx119sub_matchINS_17__normal_iteratorIPKcNS3_12basic_stringIcSt11char_traitsIcESaIcEEEEEEESaISE_EEES2_ISH_SaISH_EEEENS5_IT_T0_E15difference_typeERKSN_SQ_
FN:986,_ZN9__gnu_cxxmiIPNSt7__cxx1112basic_stringIcSt11char_traitsIcESaIcEEESt6vectorIS6_SaIS6_EEEENS_17__normal_iteratorIT_T0_E15difference_typeERKSE_SH_
FNDA:0,_ZN9__gnu_cxxmiIPNSt7__cxx1112basic_stringIcSt11char_traitsIcESaIcEEESt6vectorIS6_SaIS6_EEEENS_17__normal_iteratorIT_T0_E15difference_typeERKSE_SH_
FN:986,_ZN9__gnu_cxxmiIPSt4pairINSt7__cxx1112basic_stringIcSt11char_traitsIcESaIcEEES7_ESt6vectorIS8_SaIS8_EEEENS_17__normal_iteratorIT_T0_E15difference_typeERKSG_SJ_
FNDA:0,_ZN9__gnu_cxxmiIPSt4pairINSt7__cxx1112basic_stringIcSt11char_traitsIcESaIcEEES7_ESt6vectorIS8_SaIS8_EEEENS_17__normal_iteratorIT_T0_E15difference_typeERKSG_SJ_
FN:986,_ZN9__gnu_cxxmiIPKNSt7__cxx1112basic_stringIcSt11char_traitsIcESaIcEEESt6vectorIS6_SaIS6_EEEENS_17__normal_iteratorIT_T0_E15difference_typeERKSF_SI_
FNDA:492,_ZN9__gnu_cxxmiIPKNSt7__cxx1112basic_stringIcSt11char_traitsIcESaIcEEESt6vectorIS6_SaIS6_EEEENS_17__normal_iteratorIT_T0_E15difference_typeERKSF_SI_
FN:986,_ZN9__gnu_cxxmiIPKcSt6vectorIcSaIcEEEENS_17__normal_iteratorIT_T0_E15difference_typeERKS9_SC_
FNDA:258,_ZN9__gnu_cxxmiIPKcSt6vectorIcSaIcEEEENS_17__normal_iteratorIT_T0_E15difference_typeERKS9_SC_
FN:986,_ZN9__gnu_cxxmiIPcNSt7__cxx1112basic_stringIcSt11char_traitsIcESaIcEEEEENS_17__normal_iteratorIT_T0_E15difference_typeERKSB_SE_
FNDA:0,_ZN9__gnu_cxxmiIPcNSt7__cxx1112basic_stringIcSt11char_traitsIcESaIcEEEEENS_17__normal_iteratorIT_T0_E15difference_typeERKSB_SE_
FN:986,_ZN9__gnu_cxxmiIPNSt7__cxx1112regex_traitsIcE10_RegexMaskESt6vectorIS4_SaIS4_EEEENS_17__normal_iteratorIT_T0_E15difference_typeERKSC_SF_
FNDA:0,_ZN9__gnu_cxxmiIPNSt7__cxx1112regex_traitsIcE10_RegexMaskESt6vectorIS4_SaIS4_EEEENS_17__normal_iteratorIT_T0_E15difference_typeERKSC_SF_
FN:986,_ZN9__gnu_cxxmiIPcSt6vectorIcSaIcEEEENS_17__normal_iteratorIT_T0_E15difference_typeERKS8_SB_
FNDA:0,_ZN9__gnu_cxxmiIPcSt6vectorIcSaIcEEEENS_17__normal_iteratorIT_T0_E15difference_typeERKS8_SB_
FN:986,_ZN9__gnu_cxxmiIPSt4pairIccESt6vectorIS2_SaIS2_EEEENS_17__normal_iteratorIT_T0_E15difference_typeERKSA_SD_
FNDA:1,_ZN9__gnu_cxxmiIPSt4pairIccESt6vectorIS2_SaIS2_EEEENS_17__normal_iteratorIT_T0_E15difference_typeERKSA_SD_
FN:986,_ZN9__gnu_cxxmiIPNSt8__detail6_StateIcEESt6vectorIS3_SaIS3_EEEENS_17__normal_iteratorIT_T0_E15difference_typeERKSB_SE_
FNDA:5,_ZN9__gnu_cxxmiIPNSt8__detail6_StateIcEESt6vectorIS3_SaIS3_EEEENS_17__normal_iteratorIT_T0_E15difference_typeERKSB_SE_
FN:986,_ZN9__gnu_cxxmiIPmSt6vectorImSaImEEEENS_17__normal_iteratorIT_T0_E15difference_typeERKS8_SB_
FNDA:1,_ZN9__gnu_cxxmiIPmSt6vectorImSaImEEEENS_17__normal_iteratorIT_T0_E15difference_typeERKS8_SB_
FN:1007,_ZSt12__niter_baseIPcSt6vectorIcSaIcEEET_N9__gnu_cxx17__normal_iteratorIS4_T0_EE
FNDA:0,_ZSt12__niter_baseIPcSt6vectorIcSaIcEEET_N9__gnu_cxx17__normal_iteratorIS4_T0_EE
FN:1007,_ZSt12__niter_baseIPKcNSt7__cxx1112basic_stringIcSt11char_traitsIcESaIcEEEET_N9__gnu_cxx17__normal_iteratorIS8_T0_EE
FNDA:0,_ZSt12__niter_baseIPKcNSt7__cxx1112basic_stringIcSt11char_traitsIcESaIcEEEET_N9__gnu_cxx17__normal_iteratorIS8_T0_EE
FN:1007,_ZSt12__niter_baseIPKNSt7__cxx119sub_matchIN9__gnu_cxx17__normal_iteratorIPKcNS0_12basic_stringIcSt11char_traitsIcESaIcEEEEEEESt6vectorISC_SaISC_EEET_NS3_ISI_T0_EE
FNDA:54,_ZSt12__niter_baseIPKNSt7__cxx119sub_matchIN9__gnu_cxx17__normal_iteratorIPKcNS0_12basic_stringIcSt11char_traitsIcESaIcEEEEEEESt6vectorISC_SaISC_EEET_NS3_ISI_T0_EE
FN:1007,_ZSt12__niter_baseIPKcSt6vectorIcSaIcEEET_N9__gnu_cxx17__normal_iteratorIS5_T0_EE
FNDA:16,_ZSt12__niter_baseIPKcSt6vectorIcSaIcEEET_N9__gnu_cxx17__normal_iteratorIS5_T0_EE
FN:1007,_ZSt12__niter_baseIPNSt7__cxx119sub_matchIN9__gnu_cxx17__normal_iteratorIPKcNS0_12basic_stringIcSt11char_traitsIcESaIcEEEEEEESt6vectorISC_SaISC_EEET_NS3_ISH_T0_EE
FNDA:54,_ZSt12__niter_baseIPNSt7__cxx119sub_matchIN9__gnu_cxx17__normal_iteratorIPKcNS0_12basic_stringIcSt11char_traitsIcESaIcEEEEEEESt6vectorISC_SaISC_EEET_NS3_ISH_T0_EE
FN:1054,_ZNSt13move_iteratorIPmEC2ES0_
FNDA:0,_ZNSt13move_iteratorIPmEC2ES0_
FN:1054,_ZNSt13move_iteratorIPNSt7__cxx119sub_matchIN9__gnu_cxx17__normal_iteratorIPKcNS0_12basic_stringIcSt11char_traitsIcESaIcEEEEEEEEC2ESD_
FNDA:0,_ZNSt13move_iteratorIPNSt7__cxx119sub_matchIN9__gnu_cxx17__normal_iteratorIPKcNS0_12basic_stringIcSt11char_traitsIcESaIcEEEEEEEEC2ESD_
FN:1054,_ZNSt13move_iteratorIPSt4pairIlSt6vectorINSt7__cxx119sub_matchIN9__gnu_cxx17__normal_iteratorIPKcNS2_12basic_stringIcSt11char_traitsIcESaIcEEEEEEESaISE_EEEEC2ESI_
FNDA:0,_ZNSt13move_iteratorIPSt4pairIlSt6vectorINSt7__cxx119sub_matchIN9__gnu_cxx17__normal_iteratorIPKcNS2_12basic_stringIcSt11char_traitsIcESaIcEEEEEEESaISE_EEEEC2ESI_
FN:1054,_ZNSt13move_iteratorIPNSt7__cxx1112regex_traitsIcE10_RegexMaskEEC2ES4_
FNDA:0,_ZNSt13move_iteratorIPNSt7__cxx1112regex_traitsIcE10_RegexMaskEEC2ES4_
FN:1054,_ZNSt13move_iteratorIPSt4pairINSt7__cxx1112basic_stringIcSt11char_traitsIcESaIcEEES6_EEC2ES8_
FNDA:0,_ZNSt13move_iteratorIPSt4pairINSt7__cxx1112basic_stringIcSt11char_traitsIcESaIcEEES6_EEC2ES8_
FN:1054,_ZNSt13move_iteratorIPSt4pairIccEEC2ES2_
FNDA:0,_ZNSt13move_iteratorIPSt4pairIccEEC2ES2_
FN:1054,_ZNSt13move_iteratorIPNSt7__cxx1112basic_stringIcSt11char_traitsIcESaIcEEEEC2ES6_
FNDA:0,_ZNSt13move_iteratorIPNSt7__cxx1112basic_stringIcSt11char_traitsIcESaIcEEEEC2ES6_
FN:1054,_ZNSt13move_iteratorIPcEC2ES0_
FNDA:0,_ZNSt13move_iteratorIPcEC2ES0_
FN:1063,_ZNKSt13move_iteratorIPcE4baseEv
FNDA:0,_ZNKSt13move_iteratorIPcE4baseEv
FN:1063,_ZNKSt13move_iteratorIPSt4pairIccEE4baseEv
FNDA:0,_ZNKSt13move_iteratorIPSt4pairIccEE4baseEv
FN:1063,_ZNKSt13move_iteratorIPNSt7__cxx1112basic_stringIcSt11char_traitsIcESaIcEEEE4baseEv
FNDA:0,_ZNKSt13move_iteratorIPNSt7__cxx1112basic_stringIcSt11char_traitsIcESaIcEEEE4baseEv
FN:1063,_ZNKSt13move_iteratorIPNSt7__cxx1112regex_traitsIcE10_RegexMaskEE4baseEv
FNDA:0,_ZNKSt13move_iteratorIPNSt7__cxx1112regex_traitsIcE10_RegexMaskEE4baseEv
FN:1063,_ZNKSt13move_iteratorIPSt4pairIlSt6vectorINSt7__cxx119sub_matchIN9__gnu_cxx17__normal_iteratorIPKcNS2_12basic_stringIcSt11char_traitsIcESaIcEEEEEEESaISE_EEEE4baseEv
FNDA:0,_ZNKSt13move_iteratorIPSt4pairIlSt6vectorINSt7__cxx119sub_matchIN9__gnu_cxx17__normal_iteratorIPKcNS2_12basic_stringIcSt11char_traitsIcESaIcEEEEEEESaISE_EEEE4baseEv
FN:1063,_ZNKSt13move_iteratorIPmE4baseEv
FNDA:0,_ZNKSt13move_iteratorIPmE4baseEv
FN:1063,_ZNKSt13move_iteratorIPSt4pairINSt7__cxx1112basic_stringIcSt11char_traitsIcESaIcEEES6_EE4baseEv
FNDA:0,_ZNKSt13move_iteratorIPSt4pairINSt7__cxx1112basic_stringIcSt11char_traitsIcESaIcEEES6_EE4baseEv
FN:1063,_ZNKSt13move_iteratorIPNSt7__cxx119sub_matchIN9__gnu_cxx17__normal_iteratorIPKcNS0_12basic_stringIcSt11char_traitsIcESaIcEEEEEEEE4baseEv
FNDA:0,_ZNKSt13move_iteratorIPNSt7__cxx119sub_matchIN9__gnu_cxx17__normal_iteratorIPKcNS0_12basic_stringIcSt11char_traitsIcESaIcEEEEEEEE4baseEv
FN:1067,_ZNKSt13move_iteratorIPNSt7__cxx119sub_matchIN9__gnu_cxx17__normal_iteratorIPKcNS0_12basic_stringIcSt11char_traitsIcESaIcEEEEEEEEdeEv
FNDA:0,_ZNKSt13move_iteratorIPNSt7__cxx119sub_matchIN9__gnu_cxx17__normal_iteratorIPKcNS0_12basic_stringIcSt11char_traitsIcESaIcEEEEEEEEdeEv
FN:1067,_ZNKSt13move_iteratorIPSt4pairIlSt6vectorINSt7__cxx119sub_matchIN9__gnu_cxx17__normal_iteratorIPKcNS2_12basic_stringIcSt11char_traitsIcESaIcEEEEEEESaISE_EEEEdeEv
FNDA:0,_ZNKSt13move_iteratorIPSt4pairIlSt6vectorINSt7__cxx119sub_matchIN9__gnu_cxx17__normal_iteratorIPKcNS2_12basic_stringIcSt11char_traitsIcESaIcEEEEEEESaISE_EEEEdeEv
FN:1067,_ZNKSt13move_iteratorIPNSt7__cxx1112basic_stringIcSt11char_traitsIcESaIcEEEEdeEv
FNDA:0,_ZNKSt13move_iteratorIPNSt7__cxx1112basic_stringIcSt11char_traitsIcESaIcEEEEdeEv
FN:1067,_ZNKSt13move_iteratorIPSt4pairINSt7__cxx1112basic_stringIcSt11char_traitsIcESaIcEEES6_EEdeEv
FNDA:0,_ZNKSt13move_iteratorIPSt4pairINSt7__cxx1112basic_stringIcSt11char_traitsIcESaIcEEES6_EEdeEv
FN:1067,_ZNKSt13move_iteratorIPNSt7__cxx1112regex_traitsIcE10_RegexMaskEEdeEv
FNDA:0,_ZNKSt13move_iteratorIPNSt7__cxx1112regex_traitsIcE10_RegexMaskEEdeEv
FN:1067,_ZNKSt13move_iteratorIPSt4pairIccEEdeEv
FNDA:0,_ZNKSt13move_iteratorIPSt4pairIccEEdeEv
FN:1075,_ZNSt13move_iteratorIPNSt7__cxx1112basic_stringIcSt11char_traitsIcESaIcEEEEppEv
FNDA:0,_ZNSt13move_iteratorIPNSt7__cxx1112basic_stringIcSt11char_traitsIcESaIcEEEEppEv
FN:1075,_ZNSt13move_iteratorIPSt4pairIlSt6vectorINSt7__cxx119sub_matchIN9__gnu_cxx17__normal_iteratorIPKcNS2_12basic_stringIcSt11char_traitsIcESaIcEEEEEEESaISE_EEEEppEv
FNDA:0,_ZNSt13move_iteratorIPSt4pairIlSt6vectorINSt7__cxx119sub_matchIN9__gnu_cxx17__normal_iteratorIPKcNS2_12basic_stringIcSt11char_traitsIcESaIcEEEEEEESaISE_EEEEppEv
FN:1075,_ZNSt13move_iteratorIPNSt7__cxx1112regex_traitsIcE10_RegexMaskEEppEv
FNDA:0,_ZNSt13move_iteratorIPNSt7__cxx1112regex_traitsIcE10_RegexMaskEEppEv
FN:1075,_ZNSt13move_iteratorIPSt4pairIccEEppEv
FNDA:0,_ZNSt13move_iteratorIPSt4pairIccEEppEv
FN:1075,_ZNSt13move_iteratorIPNSt7__cxx119sub_matchIN9__gnu_cxx17__normal_iteratorIPKcNS0_12basic_stringIcSt11char_traitsIcESaIcEEEEEEEEppEv
FNDA:0,_ZNSt13move_iteratorIPNSt7__cxx119sub_matchIN9__gnu_cxx17__normal_iteratorIPKcNS0_12basic_stringIcSt11char_traitsIcESaIcEEEEEEEEppEv
FN:1075,_ZNSt13move_iteratorIPSt4pairINSt7__cxx1112basic_stringIcSt11char_traitsIcESaIcEEES6_EEppEv
FNDA:0,_ZNSt13move_iteratorIPSt4pairINSt7__cxx1112basic_stringIcSt11char_traitsIcESaIcEEES6_EEppEv
FN:1142,_ZSteqIPNSt7__cxx1112regex_traitsIcE10_RegexMaskEEbRKSt13move_iteratorIT_ES9_
FNDA:0,_ZSteqIPNSt7__cxx1112regex_traitsIcE10_RegexMaskEEbRKSt13move_iteratorIT_ES9_
FN:1142,_ZSteqIPSt4pairIccEEbRKSt13move_iteratorIT_ES7_
FNDA:0,_ZSteqIPSt4pairIccEEbRKSt13move_iteratorIT_ES7_
FN:1142,_ZSteqIPSt4pairIlSt6vectorINSt7__cxx119sub_matchIN9__gnu_cxx17__normal_iteratorIPKcNS2_12basic_stringIcSt11char_traitsIcESaIcEEEEEEESaISE_EEEEbRKSt13move_iteratorIT_ESN_
FNDA:0,_ZSteqIPSt4pairIlSt6vectorINSt7__cxx119sub_matchIN9__gnu_cxx17__normal_iteratorIPKcNS2_12basic_stringIcSt11char_traitsIcESaIcEEEEEEESaISE_EEEEbRKSt13move_iteratorIT_ESN_
FN:1142,_ZSteqIPNSt7__cxx119sub_matchIN9__gnu_cxx17__normal_iteratorIPKcNS0_12basic_stringIcSt11char_traitsIcESaIcEEEEEEEEbRKSt13move_iteratorIT_ESI_
FNDA:0,_ZSteqIPNSt7__cxx119sub_matchIN9__gnu_cxx17__normal_iteratorIPKcNS0_12basic_stringIcSt11char_traitsIcESaIcEEEEEEEEbRKSt13move_iteratorIT_ESI_
FN:1142,_ZSteqIPNSt7__cxx1112basic_stringIcSt11char_traitsIcESaIcEEEEbRKSt13move_iteratorIT_ESB_
FNDA:0,_ZSteqIPNSt7__cxx1112basic_stringIcSt11char_traitsIcESaIcEEEEbRKSt13move_iteratorIT_ESB_
FN:1142,_ZSteqIPSt4pairINSt7__cxx1112basic_stringIcSt11char_traitsIcESaIcEEES6_EEbRKSt13move_iteratorIT_ESD_
FNDA:0,_ZSteqIPSt4pairINSt7__cxx1112basic_stringIcSt11char_traitsIcESaIcEEES6_EEbRKSt13move_iteratorIT_ESD_
FN:1154,_ZStneIPSt4pairINSt7__cxx1112basic_stringIcSt11char_traitsIcESaIcEEES6_EEbRKSt13move_iteratorIT_ESD_
FNDA:0,_ZStneIPSt4pairINSt7__cxx1112basic_stringIcSt11char_traitsIcESaIcEEES6_EEbRKSt13move_iteratorIT_ESD_
FN:1154,_ZStneIPNSt7__cxx1112basic_stringIcSt11char_traitsIcESaIcEEEEbRKSt13move_iteratorIT_ESB_
FNDA:0,_ZStneIPNSt7__cxx1112basic_stringIcSt11char_traitsIcESaIcEEEEbRKSt13move_iteratorIT_ESB_
FN:1154,_ZStneIPSt4pairIccEEbRKSt13move_iteratorIT_ES7_
FNDA:0,_ZStneIPSt4pairIccEEbRKSt13move_iteratorIT_ES7_
FN:1154,_ZStneIPNSt7__cxx1112regex_traitsIcE10_RegexMaskEEbRKSt13move_iteratorIT_ES9_
FNDA:0,_ZStneIPNSt7__cxx1112regex_traitsIcE10_RegexMaskEEbRKSt13move_iteratorIT_ES9_
FN:1154,_ZStneIPSt4pairIlSt6vectorINSt7__cxx119sub_matchIN9__gnu_cxx17__normal_iteratorIPKcNS2_12basic_stringIcSt11char_traitsIcESaIcEEEEEEESaISE_EEEEbRKSt13move_iteratorIT_ESN_
FNDA:0,_ZStneIPSt4pairIlSt6vectorINSt7__cxx119sub_matchIN9__gnu_cxx17__normal_iteratorIPKcNS2_12basic_stringIcSt11char_traitsIcESaIcEEEEEEESaISE_EEEEbRKSt13move_iteratorIT_ESN_
FN:1154,_ZStneIPNSt7__cxx119sub_matchIN9__gnu_cxx17__normal_iteratorIPKcNS0_12basic_stringIcSt11char_traitsIcESaIcEEEEEEEEbRKSt13move_iteratorIT_ESI_
FNDA:0,_ZStneIPNSt7__cxx119sub_matchIN9__gnu_cxx17__normal_iteratorIPKcNS0_12basic_stringIcSt11char_traitsIcESaIcEEEEEEEEbRKSt13move_iteratorIT_ESI_
FN:1239,_ZSt32__make_move_if_noexcept_iteratorImSt13move_iteratorIPmEET0_PT_
FNDA:0,_ZSt32__make_move_if_noexcept_iteratorImSt13move_iteratorIPmEET0_PT_
FN:1239,_ZSt32__make_move_if_noexcept_iteratorINSt7__cxx1112regex_traitsIcE10_RegexMaskESt13move_iteratorIPS3_EET0_PT_
FNDA:0,_ZSt32__make_move_if_noexcept_iteratorINSt7__cxx1112regex_traitsIcE10_RegexMaskESt13move_iteratorIPS3_EET0_PT_
FN:1239,_ZSt32__make_move_if_noexcept_iteratorIcSt13move_iteratorIPcEET0_PT_
FNDA:0,_ZSt32__make_move_if_noexcept_iteratorIcSt13move_iteratorIPcEET0_PT_
FN:1239,_ZSt32__make_move_if_noexcept_iteratorINSt7__cxx1112basic_stringIcSt11char_traitsIcESaIcEEESt13move_iteratorIPS5_EET0_PT_
FNDA:0,_ZSt32__make_move_if_noexcept_iteratorINSt7__cxx1112basic_stringIcSt11char_traitsIcESaIcEEESt13move_iteratorIPS5_EET0_PT_
FN:1239,_ZSt32__make_move_if_noexcept_iteratorISt4pairIccESt13move_iteratorIPS1_EET0_PT_
FNDA:0,_ZSt32__make_move_if_noexcept_iteratorISt4pairIccESt13move_iteratorIPS1_EET0_PT_
FN:1239,_ZSt32__make_move_if_noexcept_iteratorISt4pairINSt7__cxx1112basic_stringIcSt11char_traitsIcESaIcEEES6_ESt13move_iteratorIPS7_EET0_PT_
FNDA:0,_ZSt32__make_move_if_noexcept_iteratorISt4pairINSt7__cxx1112basic_stringIcSt11char_traitsIcESaIcEEES6_ESt13move_iteratorIPS7_EET0_PT_
FN:1239,_ZSt32__make_move_if_noexcept_iteratorINSt8__detail6_StateIcEEPKS2_ET0_PT_
FNDA:20,_ZSt32__make_move_if_noexcept_iteratorINSt8__detail6_StateIcEEPKS2_ET0_PT_
FN:1239,_ZSt32__make_move_if_noexcept_iteratorISt4pairIlSt6vectorINSt7__cxx119sub_matchIN9__gnu_cxx17__normal_iteratorIPKcNS2_12basic_stringIcSt11char_traitsIcESaIcEEEEEEESaISE_EEESt13move_iteratorIPSH_EET0_PT_
FNDA:0,_ZSt32__make_move_if_noexcept_iteratorISt4pairIlSt6vectorINSt7__cxx119sub_matchIN9__gnu_cxx17__normal_iteratorIPKcNS2_12basic_stringIcSt11char_traitsIcESaIcEEEEEEESaISE_EEESt13move_iteratorIPSH_EET0_PT_
FN:1239,_ZSt32__make_move_if_noexcept_iteratorINSt7__cxx119sub_matchIN9__gnu_cxx17__normal_iteratorIPKcNS0_12basic_stringIcSt11char_traitsIcESaIcEEEEEEESt13move_iteratorIPSC_EET0_PT_
FNDA:0,_ZSt32__make_move_if_noexcept_iteratorINSt7__cxx119sub_matchIN9__gnu_cxx17__normal_iteratorIPKcNS0_12basic_stringIcSt11char_traitsIcESaIcEEEEEEESt13move_iteratorIPSC_EET0_PT_
FN:1259,_ZSt12__miter_baseIPmEDTcl12__miter_basecldtfp_4baseEEESt13move_iteratorIT_E
FNDA:0,_ZSt12__miter_baseIPmEDTcl12__miter_basecldtfp_4baseEEESt13move_iteratorIT_E
FN:1259,_ZSt12__miter_baseIPcEDTcl12__miter_basecldtfp_4baseEEESt13move_iteratorIT_E
FNDA:0,_ZSt12__miter_baseIPcEDTcl12__miter_basecldtfp_4baseEEESt13move_iteratorIT_E
DA:799,318
DA:800,318
DA:803,0
DA:804,0
DA:803,2
DA:804,2
DA:803,0
DA:804,0
DA:803,0
DA:804,0
DA:803,508
DA:804,508
DA:803,754
DA:804,754
DA:803,528
DA:804,528
DA:803,529
DA:804,529
DA:803,0
DA:804,0
DA:803,8
DA:804,8
DA:803,0
DA:804,0
DA:803,4
DA:804,4
DA:803,0
DA:804,0
DA:803,12
DA:804,12
DA:803,149
DA:804,149
DA:803,256
DA:804,256
DA:808,2
DA:812,2
DA:808,10
DA:812,10
DA:816,0
DA:817,0
DA:816,0
DA:817,0
DA:816,0
DA:817,0
DA:816,0
DA:817,0
DA:816,264
DA:817,264
DA:816,0
DA:817,0
DA:816,1
DA:817,1
DA:816,0
DA:817,0
DA:816,9
DA:817,9
DA:816,35
DA:817,35
DA:816,116
DA:817,116
DA:816,131
DA:817,131
DA:824,0
DA:826,0
DA:827,0
DA:824,0
DA:826,0
DA:827,0
DA:824,0
DA:826,0
DA:827,0
DA:824,0
DA:826,0
DA:827,0
DA:824,254
DA:826,254
DA:827,254
DA:824,0
DA:826,0
DA:827,0
DA:824,0
DA:826,0
DA:827,0
DA:824,0
DA:826,0
DA:827,0
DA:824,9
DA:826,9
DA:827,9
DA:824,116
DA:826,116
DA:827,116
DA:824,131
DA:826,131
DA:827,131
DA:824,27
DA:826,27
DA:827,27
DA:836,0
DA:838,0
DA:839,0
DA:836,13
DA:838,13
DA:839,13
DA:852,0
DA:853,0
DA:852,0
DA:853,0
DA:856,2
DA:857,2
DA:856,27
DA:857,27
DA:864,0
DA:865,0
DA:864,1
DA:865,1
DA:868,10
DA:869,10
DA:868,10
DA:869,10
DA:868,264
DA:869,264
DA:868,384
DA:869,384
DA:868,488
DA:869,488
DA:868,40
DA:869,40
DA:868,0
DA:869,0
DA:868,4
DA:869,4
DA:868,0
DA:869,0
DA:868,0
DA:869,0
DA:868,0
DA:869,0
DA:868,1044
DA:869,1044
DA:868,1036
DA:869,1036
DA:868,1492
DA:869,1492
DA:868,508
DA:869,508
DA:868,0
DA:869,0
DA:868,0
DA:869,0
DA:868,4
DA:869,4
DA:890,2
DA:893,2
DA:890,0
DA:893,0
DA:890,72
DA:893,72
DA:890,68
DA:893,68
DA:904,0
DA:907,0
DA:904,256
DA:907,256
DA:904,0
DA:907,0
DA:904,254
DA:907,254
DA:904,254
DA:907,254
DA:904,518
DA:907,518
DA:904,2
DA:907,2
DA:904,0
DA:907,0
DA:904,0
DA:907,0
DA:904,10
DA:907,10
DA:904,145
DA:907,145
DA:904,165
DA:907,165
DA:904,52
DA:907,52
DA:919,0
DA:922,0
DA:986,0
DA:989,0
DA:986,0
DA:989,0
DA:986,1
DA:989,1
DA:986,492
DA:989,492
DA:986,0
DA:989,0
DA:986,0
DA:989,0
DA:986,0
DA:989,0
DA:986,258
DA:989,258
DA:986,5
DA:989,5
DA:986,0
DA:989,0
DA:986,1
DA:989,1
DA:986,12
DA:989,12
DA:1007,16
DA:1009,16
DA:1007,0
DA:1009,0
DA:1007,0
DA:1009,0
DA:1007,54
DA:1009,54
DA:1007,54
DA:1009,54
DA:1054,0
DA:1055,0
DA:1054,0
DA:1055,0
DA:1054,0
DA:1055,0
DA:1054,0
DA:1055,0
DA:1054,0
DA:1055,0
DA:1054,0
DA:1055,0
DA:1054,0
DA:1055,0
DA:1054,0
DA:1055,0
DA:1063,0
DA:1064,0
DA:1063,0
DA:1064,0
DA:1063,0
DA:1064,0
DA:1063,0
DA:1064,0
DA:1063,0
DA:1064,0
DA:1063,0
DA:1064,0
DA:1063,0
DA:1064,0
DA:1063,0
DA:1064,0
DA:1067,0
DA:1068,0
DA:1067,0
DA:1068,0
DA:1067,0
DA:1068,0
DA:1067,0
DA:1068,0
DA:1067,0
DA:1068,0
DA:1067,0
DA:1068,0
DA:1075,0
DA:1077,0
DA:1078,0
DA:1075,0
DA:1077,0
DA:1078,0
DA:1075,0
DA:1077,0
DA:1078,0
DA:1075,0
DA:1077,0
DA:1078,0
DA:1075,0
DA:1077,0
DA:1078,0
DA:1075,0
DA:1077,0
DA:1078,0
DA:1142,0
DA:1144,0
DA:1142,0
DA:1144,0
DA:1142,0
DA:1144,0
DA:1142,0
DA:1144,0
DA:1142,0
DA:1144,0
DA:1142,0
DA:1144,0
DA:1154,0
DA:1156,0
DA:1154,0
DA:1156,0
DA:1154,0
DA:1156,0
DA:1154,0
DA:1156,0
DA:1154,0
DA:1156,0
DA:1154,0
DA:1156,0
DA:1239,0
DA:1240,0
DA:1239,0
DA:1240,0
DA:1239,0
DA:1240,0
DA:1239,0
DA:1240,0
DA:1239,0
DA:1240,0
DA:1239,20
DA:1240,20
DA:1239,0
DA:1240,0
DA:1239,0
DA:1240,0
DA:1239,0
DA:1240,0
DA:1259,0
DA:1261,0
DA:1259,0
DA:1261,0
end_of_record
SF:/usr/include/c++/9/ext/string_conversions.h
FN:54,_ZN9__gnu_cxx6__stoaIlicJiEEET0_PFT_PKT1_PPS3_DpT2_EPKcS5_PmS9_
FNDA:12,_ZN9__gnu_cxx6__stoaIlicJiEEET0_PFT_PKT1_PPS3_DpT2_EPKcS5_PmS9_
FN:63,_ZZN9__gnu_cxx6__stoaIlicJiEEET0_PFT_PKT1_PPS3_DpT2_EPKcS5_PmS9_EN11_Save_errnoC2Ev
FNDA:12,_ZZN9__gnu_cxx6__stoaIlicJiEEET0_PFT_PKT1_PPS3_DpT2_EPKcS5_PmS9_EN11_Save_errnoC2Ev
FN:64,_ZZN9__gnu_cxx6__stoaIlicJiEEET0_PFT_PKT1_PPS3_DpT2_EPKcS5_PmS9_EN11_Save_errnoD2Ev
FNDA:12,_ZZN9__gnu_cxx6__stoaIlicJiEEET0_PFT_PKT1_PPS3_DpT2_EPKcS5_PmS9_EN11_Save_errnoD2Ev
FN:73,_ZZN9__gnu_cxx6__stoaIlicJiEEET0_PFT_PKT1_PPS3_DpT2_EPKcS5_PmS9_EN10_Range_chk6_S_chkElSt17integral_constantIbLb1EE
FNDA:12,_ZZN9__gnu_cxx6__stoaIlicJiEEET0_PFT_PKT1_PPS3_DpT2_EPKcS5_PmS9_EN10_Range_chk6_S_chkElSt17integral_constantIbLb1EE
DA:54,12
DA:63,12
DA:64,12
DA:66,12
DA:73,12
DA:76,12
DA:80,12
DA:82,12
DA:83,0
DA:84,24
DA:85,12
DA:86,0
DA:88,12
DA:90,12
DA:91,0
DA:93,24
end_of_record
SF:/usr/include/c++/9/bits/regex_executor.h
FN:69,_ZNSt8__detail9_ExecutorIN9__gnu_cxx17__normal_iteratorIPKcNSt7__cxx1112basic_stringIcSt11char_traitsIcESaIcEEEEESaINS5_9sub_matchISB_EEENS5_12regex_traitsIcEELb0EEC2ESB_SB_RSt6vectorISD_SE_ERKNS5_11basic_regexIcSG_EENSt15regex_constants15match_flag_typeE
FNDA:0,_ZNSt8__detail9_ExecutorIN9__gnu_cxx17__normal_iteratorIPKcNSt7__cxx1112basic_stringIcSt11char_traitsIcESaIcEEEEESaINS5_9sub_matchISB_EEENS5_12regex_traitsIcEELb0EEC2ESB_SB_RSt6vectorISD_SE_ERKNS5_11basic_regexIcSG_EENSt15regex_constants15match_flag_typeE
FN:69,_ZNSt8__detail9_ExecutorIN9__gnu_cxx17__normal_iteratorIPKcNSt7__cxx1112basic_stringIcSt11char_traitsIcESaIcEEEEESaINS5_9sub_matchISB_EEENS5_12regex_traitsIcEELb1EEC2ESB_SB_RSt6vectorISD_SE_ERKNS5_11basic_regexIcSG_EENSt15regex_constants15match_flag_typeE
FNDA:17,_ZNSt8__detail9_ExecutorIN9__gnu_cxx17__normal_iteratorIPKcNSt7__cxx1112basic_stringIcSt11char_traitsIcESaIcEEEEESaINS5_9sub_matchISB_EEENS5_12regex_traitsIcEELb1EEC2ESB_SB_RSt6vectorISD_SE_ERKNS5_11basic_regexIcSG_EENSt15regex_constants15match_flag_typeE
FN:98,_ZNSt8__detail9_ExecutorIN9__gnu_cxx17__normal_iteratorIPKcNSt7__cxx1112basic_stringIcSt11char_traitsIcESaIcEEEEESaINS5_9sub_matchISB_EEENS5_12regex_traitsIcEELb0EE20_M_search_from_firstEv
FNDA:0,_ZNSt8__detail9_ExecutorIN9__gnu_cxx17__normal_iteratorIPKcNSt7__cxx1112basic_stringIcSt11char_traitsIcESaIcEEEEESaINS5_9sub_matchISB_EEENS5_12regex_traitsIcEELb0EE20_M_search_from_firstEv
FN:98,_ZNSt8__detail9_ExecutorIN9__gnu_cxx17__normal_iteratorIPKcNSt7__cxx1112basic_stringIcSt11char_traitsIcESaIcEEEEESaINS5_9sub_matchISB_EEENS5_12regex_traitsIcEELb1EE20_M_search_from_firstEv
FNDA:31,_ZNSt8__detail9_ExecutorIN9__gnu_cxx17__normal_iteratorIPKcNSt7__cxx1112basic_stringIcSt11char_traitsIcESaIcEEEEESaINS5_9sub_matchISB_EEENS5_12regex_traitsIcEELb1EE20_M_search_from_firstEv
FN:148,_ZNSt8__detail9_ExecutorIN9__gnu_cxx17__normal_iteratorIPKcNSt7__cxx1112basic_stringIcSt11char_traitsIcESaIcEEEEESaINS5_9sub_matchISB_EEENS5_12regex_traitsIcEELb0EE7_M_mainENSH_11_Match_modeE
FNDA:0,_ZNSt8__detail9_ExecutorIN9__gnu_cxx17__normal_iteratorIPKcNSt7__cxx1112basic_stringIcSt11char_traitsIcESaIcEEEEESaINS5_9sub_matchISB_EEENS5_12regex_traitsIcEELb0EE7_M_mainENSH_11_Match_modeE
FN:148,_ZNSt8__detail9_ExecutorIN9__gnu_cxx17__normal_iteratorIPKcNSt7__cxx1112basic_stringIcSt11char_traitsIcESaIcEEEEESaINS5_9sub_matchISB_EEENS5_12regex_traitsIcEELb1EE7_M_mainENSH_11_Match_modeE
FNDA:31,_ZNSt8__detail9_ExecutorIN9__gnu_cxx17__normal_iteratorIPKcNSt7__cxx1112basic_stringIcSt11char_traitsIcESaIcEEEEESaINS5_9sub_matchISB_EEENS5_12regex_traitsIcEELb1EE7_M_mainENSH_11_Match_modeE
FN:158,_ZNKSt8__detail9_ExecutorIN9__gnu_cxx17__normal_iteratorIPKcNSt7__cxx1112basic_stringIcSt11char_traitsIcESaIcEEEEESaINS5_9sub_matchISB_EEENS5_12regex_traitsIcEELb0EE10_M_is_wordEc
FNDA:0,_ZNKSt8__detail9_ExecutorIN9__gnu_cxx17__normal_iteratorIPKcNSt7__cxx1112basic_stringIcSt11char_traitsIcESaIcEEEEESaINS5_9sub_matchISB_EEENS5_12regex_traitsIcEELb0EE10_M_is_wordEc
FN:158,_ZNKSt8__detail9_ExecutorIN9__gnu_cxx17__normal_iteratorIPKcNSt7__cxx1112basic_stringIcSt11char_traitsIcESaIcEEEEESaINS5_9sub_matchISB_EEENS5_12regex_traitsIcEELb1EE10_M_is_wordEc
FNDA:0,_ZNKSt8__detail9_ExecutorIN9__gnu_cxx17__normal_iteratorIPKcNSt7__cxx1112basic_stringIcSt11char_traitsIcESaIcEEEEESaINS5_9sub_matchISB_EEENS5_12regex_traitsIcEELb1EE10_M_is_wordEc
FN:166,_ZNKSt8__detail9_ExecutorIN9__gnu_cxx17__normal_iteratorIPKcNSt7__cxx1112basic_stringIcSt11char_traitsIcESaIcEEEEESaINS5_9sub_matchISB_EEENS5_12regex_traitsIcEELb0EE11_M_at_beginEv
FNDA:0,_ZNKSt8__detail9_ExecutorIN9__gnu_cxx17__normal_iteratorIPKcNSt7__cxx1112basic_stringIcSt11char_traitsIcESaIcEEEEESaINS5_9sub_matchISB_EEENS5_12regex_traitsIcEELb0EE11_M_at_beginEv
FN:166,_ZNKSt8__detail9_ExecutorIN9__gnu_cxx17__normal_iteratorIPKcNSt7__cxx1112basic_stringIcSt11char_traitsIcESaIcEEEEESaINS5_9sub_matchISB_EEENS5_12regex_traitsIcEELb1EE11_M_at_beginEv
FNDA:0,_ZNKSt8__detail9_ExecutorIN9__gnu_cxx17__normal_iteratorIPKcNSt7__cxx1112basic_stringIcSt11char_traitsIcESaIcEEEEESaINS5_9sub_matchISB_EEENS5_12regex_traitsIcEELb1EE11_M_at_beginEv
FN:174,_ZNKSt8__detail9_ExecutorIN9__gnu_cxx17__normal_iteratorIPKcNSt7__cxx1112basic_stringIcSt11char_traitsIcESaIcEEEEESaINS5_9sub_matchISB_EEENS5_12regex_traitsIcEELb0EE9_M_at_endEv
FNDA:0,_ZNKSt8__detail9_ExecutorIN9__gnu_cxx17__normal_iteratorIPKcNSt7__cxx1112basic_stringIcSt11char_traitsIcESaIcEEEEESaINS5_9sub_matchISB_EEENS5_12regex_traitsIcEELb0EE9_M_at_endEv
FN:174,_ZNKSt8__detail9_ExecutorIN9__gnu_cxx17__normal_iteratorIPKcNSt7__cxx1112basic_stringIcSt11char_traitsIcESaIcEEEEESaINS5_9sub_matchISB_EEENS5_12regex_traitsIcEELb1EE9_M_at_endEv
FNDA:0,_ZNKSt8__detail9_ExecutorIN9__gnu_cxx17__normal_iteratorIPKcNSt7__cxx1112basic_stringIcSt11char_traitsIcESaIcEEEEESaINS5_9sub_matchISB_EEENS5_12regex_traitsIcEELb1EE9_M_at_endEv
FN:194,_ZNSt8__detail9_ExecutorIN9__gnu_cxx17__normal_iteratorIPKcNSt7__cxx1112basic_stringIcSt11char_traitsIcESaIcEEEEESaINS5_9sub_matchISB_EEENS5_12regex_traitsIcEELb0EE11_State_infoISt17integral_constantIbLb0EESt6vectorISD_SE_EEC2Elm
FNDA:0,_ZNSt8__detail9_ExecutorIN9__gnu_cxx17__normal_iteratorIPKcNSt7__cxx1112basic_stringIcSt11char_traitsIcESaIcEEEEESaINS5_9sub_matchISB_EEENS5_12regex_traitsIcEELb0EE11_State_infoISt17integral_constantIbLb0EESt6vectorISD_SE_EEC2Elm
FN:198,_ZNSt8__detail9_ExecutorIN9__gnu_cxx17__normal_iteratorIPKcNSt7__cxx1112basic_stringIcSt11char_traitsIcESaIcEEEEESaINS5_9sub_matchISB_EEENS5_12regex_traitsIcEELb0EE11_State_infoISt17integral_constantIbLb0EESt6vectorISD_SE_EE10_M_visitedEl
FNDA:0,_ZNSt8__detail9_ExecutorIN9__gnu_cxx17__normal_iteratorIPKcNSt7__cxx1112basic_stringIcSt11char_traitsIcESaIcEEEEESaINS5_9sub_matchISB_EEENS5_12regex_traitsIcEELb0EE11_State_infoISt17integral_constantIbLb0EESt6vectorISD_SE_EE10_M_visitedEl
FN:206,_ZNSt8__detail9_ExecutorIN9__gnu_cxx17__normal_iteratorIPKcNSt7__cxx1112basic_stringIcSt11char_traitsIcESaIcEEEEESaINS5_9sub_matchISB_EEENS5_12regex_traitsIcEELb0EE11_State_infoISt17integral_constantIbLb0EESt6vectorISD_SE_EE8_M_queueElRKSM_
FNDA:0,_ZNSt8__detail9_ExecutorIN9__gnu_cxx17__normal_iteratorIPKcNSt7__cxx1112basic_stringIcSt11char_traitsIcESaIcEEEEESaINS5_9sub_matchISB_EEENS5_12regex_traitsIcEELb0EE11_State_infoISt17integral_constantIbLb0EESt6vectorISD_SE_EE8_M_queueElRKSM_
FN:224,_ZNSt8__detail9_ExecutorIN9__gnu_cxx17__normal_iteratorIPKcNSt7__cxx1112basic_stringIcSt11char_traitsIcESaIcEEEEESaINS5_9sub_matchISB_EEENS5_12regex_traitsIcEELb1EE11_State_infoISt17integral_constantIbLb1EESt6vectorISD_SE_EEC2Elm
FNDA:17,_ZNSt8__detail9_ExecutorIN9__gnu_cxx17__normal_iteratorIPKcNSt7__cxx1112basic_stringIcSt11char_traitsIcESaIcEEEEESaINS5_9sub_matchISB_EEENS5_12regex_traitsIcEELb1EE11_State_infoISt17integral_constantIbLb1EESt6vectorISD_SE_EEC2Elm
FN:228,_ZNKSt8__detail9_ExecutorIN9__gnu_cxx17__normal_iteratorIPKcNSt7__cxx1112basic_stringIcSt11char_traitsIcESaIcEEEEESaINS5_9sub_matchISB_EEENS5_12regex_traitsIcEELb1EE11_State_infoISt17integral_constantIbLb1EESt6vectorISD_SE_EE10_M_visitedEl
FNDA:112,_ZNKSt8__detail9_ExecutorIN9__gnu_cxx17__normal_iteratorIPKcNSt7__cxx1112basic_stringIcSt11char_traitsIcESaIcEEEEESaINS5_9sub_matchISB_EEENS5_12regex_traitsIcEELb1EE11_State_infoISt17integral_constantIbLb1EESt6vectorISD_SE_EE10_M_visitedEl
FN:231,_ZNSt8__detail9_ExecutorIN9__gnu_cxx17__normal_iteratorIPKcNSt7__cxx1112basic_stringIcSt11char_traitsIcESaIcEEEEESaINS5_9sub_matchISB_EEENS5_12regex_traitsIcEELb1EE11_State_infoISt17integral_constantIbLb1EESt6vectorISD_SE_EE14_M_get_sol_posEv
FNDA:31,_ZNSt8__detail9_ExecutorIN9__gnu_cxx17__normal_iteratorIPKcNSt7__cxx1112basic_stringIcSt11char_traitsIcESaIcEEEEESaINS5_9sub_matchISB_EEENS5_12regex_traitsIcEELb1EE11_State_infoISt17integral_constantIbLb1EESt6vectorISD_SE_EE14_M_get_sol_posEv
DA:69,17
DA:77,17
DA:79,17
DA:80,34
DA:81,17
DA:84,12
DA:85,34
DA:86,17
DA:69,0
DA:77,0
DA:79,0
DA:80,0
DA:81,0
DA:84,0
DA:85,0
DA:86,0
DA:98,31
DA:100,31
DA:101,31
DA:98,0
DA:100,0
DA:101,0
DA:148,31
DA:149,31
DA:148,0
DA:149,0
DA:158,0
DA:161,0
DA:162,0
DA:158,0
DA:161,0
DA:162,0
DA:166,0
DA:168,0
DA:169,0
DA:170,0
DA:166,0
DA:168,0
DA:169,0
DA:170,0
DA:174,0
DA:176,0
DA:177,0
DA:174,0
DA:176,0
DA:177,0
DA:194,0
DA:195,0
DA:196,0
DA:198,0
DA:200,0
DA:201,0
DA:202,0
DA:203,0
DA:206,0
DA:207,0
DA:224,17
DA:225,17
DA:228,112
DA:231,31
end_of_record
SF:/home/aca/Desktop/vs/2023_Analysis_sudoku/sudoku/game.cpp
FN:20,_Z15playAgainPromptii
FNDA:1,_Z15playAgainPromptii
FN:35,_Z8playGameii
FNDA:1,_Z8playGameii
DA:20,1
DA:21,1
DA:23,0
DA:24,1
DA:25,1
DA:26,1
DA:28,1
DA:29,0
DA:31,1
DA:35,1
DA:37,2
DA:38,1
DA:39,2
DA:40,2
DA:41,2
DA:46,5
DA:49,6
DA:50,6
DA:54,6
DA:55,1
DA:56,1
DA:57,1
DA:60,5
DA:61,0
DA:62,0
DA:66,5
DA:67,17
DA:68,15
DA:69,17
DA:70,12
DA:72,12
DA:73,12
DA:74,12
DA:79,5
DA:80,20
DA:81,15
DA:82,4
DA:86,5
DA:87,2
DA:88,2
DA:92,3
DA:94,2
DA:95,2
DA:98,0
DA:102,1
DA:106,12
DA:107,9
DA:110,5
DA:112,2
DA:114,1
DA:116,1
DA:117,1
DA:121,0
DA:123,0
DA:125,0
DA:126,0
DA:128,0
DA:130,0
DA:131,0
DA:132,0
DA:133,0
DA:134,0
DA:140,1
end_of_record
SF:/usr/include/c++/9/bits/regex_scanner.tcc
FN:56,_ZNSt8__detail8_ScannerIcEC2EPKcS3_NSt15regex_constants18syntax_option_typeESt6locale
FNDA:1,_ZNSt8__detail8_ScannerIcEC2EPKcS3_NSt15regex_constants18syntax_option_typeESt6locale
FN:70,_ZNSt8__detail8_ScannerIcE10_M_advanceEv
FNDA:11,_ZNSt8__detail8_ScannerIcE10_M_advanceEv
FN:96,_ZNSt8__detail8_ScannerIcE14_M_scan_normalEv
FNDA:2,_ZNSt8__detail8_ScannerIcE14_M_scan_normalEv
FN:203,_ZNSt8__detail8_ScannerIcE18_M_scan_in_bracketEv
FNDA:4,_ZNSt8__detail8_ScannerIcE18_M_scan_in_bracketEv
FN:265,_ZNSt8__detail8_ScannerIcE16_M_scan_in_braceEv
FNDA:3,_ZNSt8__detail8_ScannerIcE16_M_scan_in_braceEv
FN:310,_ZNSt8__detail8_ScannerIcE18_M_eat_escape_ecmaEv
FNDA:0,_ZNSt8__detail8_ScannerIcE18_M_eat_escape_ecmaEv
FN:389,_ZNSt8__detail8_ScannerIcE19_M_eat_escape_posixEv
FNDA:0,_ZNSt8__detail8_ScannerIcE19_M_eat_escape_posixEv
FN:431,_ZNSt8__detail8_ScannerIcE17_M_eat_escape_awkEv
FNDA:0,_ZNSt8__detail8_ScannerIcE17_M_eat_escape_awkEv
FN:469,_ZNSt8__detail8_ScannerIcE12_M_eat_classEc
FNDA:0,_ZNSt8__detail8_ScannerIcE12_M_eat_classEc
DA:56,1
DA:62,2
DA:63,1
DA:65,2
DA:66,1
DA:70,11
DA:73,11
DA:75,2
DA:76,2
DA:79,9
DA:80,2
DA:81,7
DA:82,4
DA:83,3
DA:84,3
DA:96,2
DA:99,2
DA:101,2
DA:103,0
DA:104,0
DA:105,0
DA:107,2
DA:109,0
DA:110,0
DA:114,0
DA:115,0
DA:116,0
DA:117,0
DA:119,0
DA:120,0
DA:122,0
DA:124,2
DA:126,0
DA:128,0
DA:129,0
DA:133,0
DA:135,0
DA:136,0
DA:138,0
DA:140,0
DA:141,0
DA:142,0
DA:144,0
DA:146,0
DA:147,0
DA:148,0
DA:151,0
DA:155,0
DA:156,0
DA:158,0
DA:160,2
DA:161,0
DA:162,2
DA:164,1
DA:165,1
DA:166,1
DA:168,0
DA:169,0
DA:172,1
DA:174,1
DA:176,1
DA:177,1
DA:179,0
DA:181,0
DA:182,0
DA:183,0
DA:184,0
DA:186,0
DA:187,0
DA:189,0
DA:193,0
DA:194,0
DA:203,4
DA:206,4
DA:207,0
DA:211,4
DA:213,4
DA:214,1
DA:215,3
DA:217,0
DA:218,0
DA:221,0
DA:223,0
DA:224,0
DA:226,0
DA:228,0
DA:229,0
DA:231,0
DA:233,0
DA:234,0
DA:238,0
DA:239,0
DA:245,3
DA:247,1
DA:248,1
DA:251,2
DA:252,0
DA:255,2
DA:256,2
DA:258,4
DA:259,4
DA:265,3
DA:268,3
DA:269,0
DA:273,3
DA:275,3
DA:277,1
DA:278,1
DA:279,0
DA:280,1
DA:281,0
DA:283,2
DA:284,1
DA:286,1
DA:288,0
DA:290,0
DA:291,0
DA:292,0
DA:295,0
DA:298,1
DA:300,1
DA:301,1
DA:304,0
DA:306,3
DA:310,0
DA:313,0
DA:314,0
DA:317,0
DA:318,0
DA:320,0
DA:322,0
DA:323,0
DA:325,0
DA:327,0
DA:328,0
DA:330,0
DA:332,0
DA:333,0
DA:336,0
DA:337,0
DA:338,0
DA:339,0
DA:340,0
DA:341,0
DA:343,0
DA:344,0
DA:346,0
DA:348,0
DA:349,0
DA:352,0
DA:353,0
DA:355,0
DA:357,0
DA:358,0
DA:360,0
DA:361,0
DA:362,0
DA:365,0
DA:367,0
DA:370,0
DA:372,0
DA:373,0
DA:374,0
DA:375,0
DA:376,0
DA:380,0
DA:381,0
DA:383,0
DA:389,0
DA:392,0
DA:393,0
DA:396,0
DA:397,0
DA:399,0
DA:401,0
DA:402,0
DA:405,0
DA:407,0
DA:408,0
DA:410,0
DA:412,0
DA:413,0
DA:422,0
DA:423,0
DA:426,0
DA:431,0
DA:434,0
DA:435,0
DA:437,0
DA:439,0
DA:440,0
DA:443,0
DA:444,0
DA:445,0
DA:447,0
DA:448,0
DA:450,0
DA:451,0
DA:452,0
DA:453,0
DA:455,0
DA:456,0
DA:457,0
DA:460,0
DA:469,0
DA:472,0
DA:473,0
DA:474,0
DA:475,0
DA:476,0
DA:477,0
DA:479,0
DA:480,0
DA:483,0
DA:486,0
end_of_record
SF:/usr/include/c++/9/bits/std_function.h
FN:87,_ZNSt9_Any_data9_M_accessEv
FNDA:18,_ZNSt9_Any_data9_M_accessEv
FN:88,_ZNKSt9_Any_data9_M_accessEv
FNDA:43,_ZNKSt9_Any_data9_M_accessEv
FN:92,_ZNSt9_Any_data9_M_accessIPNSt8__detail12_CharMatcherINSt7__cxx1112regex_traitsIcEELb0ELb0EEEEERT_v
FNDA:0,_ZNSt9_Any_data9_M_accessIPNSt8__detail12_CharMatcherINSt7__cxx1112regex_traitsIcEELb0ELb0EEEEERT_v
FN:92,_ZNSt9_Any_data9_M_accessIPNSt8__detail15_BracketMatcherINSt7__cxx1112regex_traitsIcEELb1ELb1EEEEERT_v
FNDA:0,_ZNSt9_Any_data9_M_accessIPNSt8__detail15_BracketMatcherINSt7__cxx1112regex_traitsIcEELb1ELb1EEEEERT_v
FN:92,_ZNSt9_Any_data9_M_accessINSt8__detail11_AnyMatcherINSt7__cxx1112regex_traitsIcEELb1ELb1ELb0EEEEERT_v
FNDA:0,_ZNSt9_Any_data9_M_accessINSt8__detail11_AnyMatcherINSt7__cxx1112regex_traitsIcEELb1ELb1ELb0EEEEERT_v
FN:92,_ZNSt9_Any_data9_M_accessIPNSt8__detail12_CharMatcherINSt7__cxx1112regex_traitsIcEELb0ELb1EEEEERT_v
FNDA:0,_ZNSt9_Any_data9_M_accessIPNSt8__detail12_CharMatcherINSt7__cxx1112regex_traitsIcEELb0ELb1EEEEERT_v
FN:92,_ZNSt9_Any_data9_M_accessINSt8__detail11_AnyMatcherINSt7__cxx1112regex_traitsIcEELb1ELb0ELb1EEEEERT_v
FNDA:0,_ZNSt9_Any_data9_M_accessINSt8__detail11_AnyMatcherINSt7__cxx1112regex_traitsIcEELb1ELb0ELb1EEEEERT_v
FN:92,_ZNSt9_Any_data9_M_accessIPNSt8__detail12_CharMatcherINSt7__cxx1112regex_traitsIcEELb1ELb0EEEEERT_v
FNDA:0,_ZNSt9_Any_data9_M_accessIPNSt8__detail12_CharMatcherINSt7__cxx1112regex_traitsIcEELb1ELb0EEEEERT_v
FN:92,_ZNSt9_Any_data9_M_accessINSt8__detail11_AnyMatcherINSt7__cxx1112regex_traitsIcEELb1ELb0ELb0EEEEERT_v
FNDA:0,_ZNSt9_Any_data9_M_accessINSt8__detail11_AnyMatcherINSt7__cxx1112regex_traitsIcEELb1ELb0ELb0EEEEERT_v
FN:92,_ZNSt9_Any_data9_M_accessIPNSt8__detail12_CharMatcherINSt7__cxx1112regex_traitsIcEELb1ELb1EEEEERT_v
FNDA:0,_ZNSt9_Any_data9_M_accessIPNSt8__detail12_CharMatcherINSt7__cxx1112regex_traitsIcEELb1ELb1EEEEERT_v
FN:92,_ZNSt9_Any_data9_M_accessINSt8__detail11_AnyMatcherINSt7__cxx1112regex_traitsIcEELb0ELb1ELb1EEEEERT_v
FNDA:0,_ZNSt9_Any_data9_M_accessINSt8__detail11_AnyMatcherINSt7__cxx1112regex_traitsIcEELb0ELb1ELb1EEEEERT_v
FN:92,_ZNSt9_Any_data9_M_accessIPNSt8__detail15_BracketMatcherINSt7__cxx1112regex_traitsIcEELb0ELb0EEEEERT_v
FNDA:18,_ZNSt9_Any_data9_M_accessIPNSt8__detail15_BracketMatcherINSt7__cxx1112regex_traitsIcEELb0ELb0EEEEERT_v
FN:92,_ZNSt9_Any_data9_M_accessINSt8__detail11_AnyMatcherINSt7__cxx1112regex_traitsIcEELb0ELb1ELb0EEEEERT_v
FNDA:0,_ZNSt9_Any_data9_M_accessINSt8__detail11_AnyMatcherINSt7__cxx1112regex_traitsIcEELb0ELb1ELb0EEEEERT_v
FN:92,_ZNSt9_Any_data9_M_accessIPNSt8__detail15_BracketMatcherINSt7__cxx1112regex_traitsIcEELb0ELb1EEEEERT_v
FNDA:0,_ZNSt9_Any_data9_M_accessIPNSt8__detail15_BracketMatcherINSt7__cxx1112regex_traitsIcEELb0ELb1EEEEERT_v
FN:92,_ZNSt9_Any_data9_M_accessINSt8__detail11_AnyMatcherINSt7__cxx1112regex_traitsIcEELb0ELb0ELb1EEEEERT_v
FNDA:0,_ZNSt9_Any_data9_M_accessINSt8__detail11_AnyMatcherINSt7__cxx1112regex_traitsIcEELb0ELb0ELb1EEEEERT_v
FN:92,_ZNSt9_Any_data9_M_accessIPNSt8__detail15_BracketMatcherINSt7__cxx1112regex_traitsIcEELb1ELb0EEEEERT_v
FNDA:0,_ZNSt9_Any_data9_M_accessIPNSt8__detail15_BracketMatcherINSt7__cxx1112regex_traitsIcEELb1ELb0EEEEERT_v
FN:92,_ZNSt9_Any_data9_M_accessINSt8__detail11_AnyMatcherINSt7__cxx1112regex_traitsIcEELb0ELb0ELb0EEEEERT_v
FNDA:0,_ZNSt9_Any_data9_M_accessINSt8__detail11_AnyMatcherINSt7__cxx1112regex_traitsIcEELb0ELb0ELb0EEEEERT_v
FN:92,_ZNSt9_Any_data9_M_accessINSt8__detail11_AnyMatcherINSt7__cxx1112regex_traitsIcEELb1ELb1ELb1EEEEERT_v
FNDA:0,_ZNSt9_Any_data9_M_accessINSt8__detail11_AnyMatcherINSt7__cxx1112regex_traitsIcEELb1ELb1ELb1EEEEERT_v
FN:92,_ZNSt9_Any_data9_M_accessIPNSt8__detail11_AnyMatcherINSt7__cxx1112regex_traitsIcEELb1ELb1ELb1EEEEERT_v
FNDA:0,_ZNSt9_Any_data9_M_accessIPNSt8__detail11_AnyMatcherINSt7__cxx1112regex_traitsIcEELb1ELb1ELb1EEEEERT_v
FN:92,_ZNSt9_Any_data9_M_accessINSt8__detail12_CharMatcherINSt7__cxx1112regex_traitsIcEELb0ELb0EEEEERT_v
FNDA:0,_ZNSt9_Any_data9_M_accessINSt8__detail12_CharMatcherINSt7__cxx1112regex_traitsIcEELb0ELb0EEEEERT_v
FN:92,_ZNSt9_Any_data9_M_accessIPNSt8__detail11_AnyMatcherINSt7__cxx1112regex_traitsIcEELb1ELb1ELb0EEEEERT_v
FNDA:0,_ZNSt9_Any_data9_M_accessIPNSt8__detail11_AnyMatcherINSt7__cxx1112regex_traitsIcEELb1ELb1ELb0EEEEERT_v
FN:92,_ZNSt9_Any_data9_M_accessINSt8__detail12_CharMatcherINSt7__cxx1112regex_traitsIcEELb0ELb1EEEEERT_v
FNDA:0,_ZNSt9_Any_data9_M_accessINSt8__detail12_CharMatcherINSt7__cxx1112regex_traitsIcEELb0ELb1EEEEERT_v
FN:92,_ZNSt9_Any_data9_M_accessIPNSt8__detail11_AnyMatcherINSt7__cxx1112regex_traitsIcEELb1ELb0ELb1EEEEERT_v
FNDA:0,_ZNSt9_Any_data9_M_accessIPNSt8__detail11_AnyMatcherINSt7__cxx1112regex_traitsIcEELb1ELb0ELb1EEEEERT_v
FN:92,_ZNSt9_Any_data9_M_accessINSt8__detail12_CharMatcherINSt7__cxx1112regex_traitsIcEELb1ELb0EEEEERT_v
FNDA:0,_ZNSt9_Any_data9_M_accessINSt8__detail12_CharMatcherINSt7__cxx1112regex_traitsIcEELb1ELb0EEEEERT_v
FN:92,_ZNSt9_Any_data9_M_accessIPNSt8__detail11_AnyMatcherINSt7__cxx1112regex_traitsIcEELb1ELb0ELb0EEEEERT_v
FNDA:0,_ZNSt9_Any_data9_M_accessIPNSt8__detail11_AnyMatcherINSt7__cxx1112regex_traitsIcEELb1ELb0ELb0EEEEERT_v
FN:92,_ZNSt9_Any_data9_M_accessINSt8__detail12_CharMatcherINSt7__cxx1112regex_traitsIcEELb1ELb1EEEEERT_v
FNDA:0,_ZNSt9_Any_data9_M_accessINSt8__detail12_CharMatcherINSt7__cxx1112regex_traitsIcEELb1ELb1EEEEERT_v
FN:92,_ZNSt9_Any_data9_M_accessIPNSt8__detail11_AnyMatcherINSt7__cxx1112regex_traitsIcEELb0ELb1ELb1EEEEERT_v
FNDA:0,_ZNSt9_Any_data9_M_accessIPNSt8__detail11_AnyMatcherINSt7__cxx1112regex_traitsIcEELb0ELb1ELb1EEEEERT_v
FN:92,_ZNSt9_Any_data9_M_accessIPNSt8__detail11_AnyMatcherINSt7__cxx1112regex_traitsIcEELb0ELb1ELb0EEEEERT_v
FNDA:0,_ZNSt9_Any_data9_M_accessIPNSt8__detail11_AnyMatcherINSt7__cxx1112regex_traitsIcEELb0ELb1ELb0EEEEERT_v
FN:92,_ZNSt9_Any_data9_M_accessIPNSt8__detail11_AnyMatcherINSt7__cxx1112regex_traitsIcEELb0ELb0ELb1EEEEERT_v
FNDA:0,_ZNSt9_Any_data9_M_accessIPNSt8__detail11_AnyMatcherINSt7__cxx1112regex_traitsIcEELb0ELb0ELb1EEEEERT_v
FN:92,_ZNSt9_Any_data9_M_accessIPNSt8__detail11_AnyMatcherINSt7__cxx1112regex_traitsIcEELb0ELb0ELb0EEEEERT_v
FNDA:0,_ZNSt9_Any_data9_M_accessIPNSt8__detail11_AnyMatcherINSt7__cxx1112regex_traitsIcEELb0ELb0ELb0EEEEERT_v
FN:92,_ZNSt9_Any_data9_M_accessIPKSt9type_infoEERT_v
FNDA:0,_ZNSt9_Any_data9_M_accessIPKSt9type_infoEERT_v
FN:97,_ZNKSt9_Any_data9_M_accessIPNSt8__detail15_BracketMatcherINSt7__cxx1112regex_traitsIcEELb1ELb1EEEEERKT_v
FNDA:0,_ZNKSt9_Any_data9_M_accessIPNSt8__detail15_BracketMatcherINSt7__cxx1112regex_traitsIcEELb1ELb1EEEEERKT_v
FN:97,_ZNKSt9_Any_data9_M_accessIPKNSt8__detail15_BracketMatcherINSt7__cxx1112regex_traitsIcEELb1ELb1EEEEERKT_v
FNDA:0,_ZNKSt9_Any_data9_M_accessIPKNSt8__detail15_BracketMatcherINSt7__cxx1112regex_traitsIcEELb1ELb1EEEEERKT_v
FN:97,_ZNKSt9_Any_data9_M_accessIPNSt8__detail15_BracketMatcherINSt7__cxx1112regex_traitsIcEELb0ELb0EEEEERKT_v
FNDA:35,_ZNKSt9_Any_data9_M_accessIPNSt8__detail15_BracketMatcherINSt7__cxx1112regex_traitsIcEELb0ELb0EEEEERKT_v
FN:97,_ZNKSt9_Any_data9_M_accessINSt8__detail12_CharMatcherINSt7__cxx1112regex_traitsIcEELb1ELb1EEEEERKT_v
FNDA:0,_ZNKSt9_Any_data9_M_accessINSt8__detail12_CharMatcherINSt7__cxx1112regex_traitsIcEELb1ELb1EEEEERKT_v
FN:97,_ZNKSt9_Any_data9_M_accessINSt8__detail12_CharMatcherINSt7__cxx1112regex_traitsIcEELb1ELb0EEEEERKT_v
FNDA:0,_ZNKSt9_Any_data9_M_accessINSt8__detail12_CharMatcherINSt7__cxx1112regex_traitsIcEELb1ELb0EEEEERKT_v
FN:97,_ZNKSt9_Any_data9_M_accessINSt8__detail12_CharMatcherINSt7__cxx1112regex_traitsIcEELb0ELb1EEEEERKT_v
FNDA:0,_ZNKSt9_Any_data9_M_accessINSt8__detail12_CharMatcherINSt7__cxx1112regex_traitsIcEELb0ELb1EEEEERKT_v
FN:97,_ZNKSt9_Any_data9_M_accessIPKNSt8__detail15_BracketMatcherINSt7__cxx1112regex_traitsIcEELb0ELb0EEEEERKT_v
FNDA:8,_ZNKSt9_Any_data9_M_accessIPKNSt8__detail15_BracketMatcherINSt7__cxx1112regex_traitsIcEELb0ELb0EEEEERKT_v
FN:97,_ZNKSt9_Any_data9_M_accessINSt8__detail12_CharMatcherINSt7__cxx1112regex_traitsIcEELb0ELb0EEEEERKT_v
FNDA:0,_ZNKSt9_Any_data9_M_accessINSt8__detail12_CharMatcherINSt7__cxx1112regex_traitsIcEELb0ELb0EEEEERKT_v
FN:97,_ZNKSt9_Any_data9_M_accessINSt8__detail11_AnyMatcherINSt7__cxx1112regex_traitsIcEELb1ELb1ELb1EEEEERKT_v
FNDA:0,_ZNKSt9_Any_data9_M_accessINSt8__detail11_AnyMatcherINSt7__cxx1112regex_traitsIcEELb1ELb1ELb1EEEEERKT_v
FN:97,_ZNKSt9_Any_data9_M_accessINSt8__detail11_AnyMatcherINSt7__cxx1112regex_traitsIcEELb1ELb1ELb0EEEEERKT_v
FNDA:0,_ZNKSt9_Any_data9_M_accessINSt8__detail11_AnyMatcherINSt7__cxx1112regex_traitsIcEELb1ELb1ELb0EEEEERKT_v
FN:97,_ZNKSt9_Any_data9_M_accessINSt8__detail11_AnyMatcherINSt7__cxx1112regex_traitsIcEELb1ELb0ELb1EEEEERKT_v
FNDA:0,_ZNKSt9_Any_data9_M_accessINSt8__detail11_AnyMatcherINSt7__cxx1112regex_traitsIcEELb1ELb0ELb1EEEEERKT_v
FN:97,_ZNKSt9_Any_data9_M_accessIPNSt8__detail15_BracketMatcherINSt7__cxx1112regex_traitsIcEELb0ELb1EEEEERKT_v
FNDA:0,_ZNKSt9_Any_data9_M_accessIPNSt8__detail15_BracketMatcherINSt7__cxx1112regex_traitsIcEELb0ELb1EEEEERKT_v
FN:97,_ZNKSt9_Any_data9_M_accessINSt8__detail11_AnyMatcherINSt7__cxx1112regex_traitsIcEELb1ELb0ELb0EEEEERKT_v
FNDA:0,_ZNKSt9_Any_data9_M_accessINSt8__detail11_AnyMatcherINSt7__cxx1112regex_traitsIcEELb1ELb0ELb0EEEEERKT_v
FN:97,_ZNKSt9_Any_data9_M_accessINSt8__detail11_AnyMatcherINSt7__cxx1112regex_traitsIcEELb0ELb1ELb1EEEEERKT_v
FNDA:0,_ZNKSt9_Any_data9_M_accessINSt8__detail11_AnyMatcherINSt7__cxx1112regex_traitsIcEELb0ELb1ELb1EEEEERKT_v
FN:97,_ZNKSt9_Any_data9_M_accessIPKNSt8__detail15_BracketMatcherINSt7__cxx1112regex_traitsIcEELb1ELb0EEEEERKT_v
FNDA:0,_ZNKSt9_Any_data9_M_accessIPKNSt8__detail15_BracketMatcherINSt7__cxx1112regex_traitsIcEELb1ELb0EEEEERKT_v
FN:97,_ZNKSt9_Any_data9_M_accessINSt8__detail11_AnyMatcherINSt7__cxx1112regex_traitsIcEELb0ELb1ELb0EEEEERKT_v
FNDA:0,_ZNKSt9_Any_data9_M_accessINSt8__detail11_AnyMatcherINSt7__cxx1112regex_traitsIcEELb0ELb1ELb0EEEEERKT_v
FN:97,_ZNKSt9_Any_data9_M_accessINSt8__detail11_AnyMatcherINSt7__cxx1112regex_traitsIcEELb0ELb0ELb0EEEEERKT_v
FNDA:0,_ZNKSt9_Any_data9_M_accessINSt8__detail11_AnyMatcherINSt7__cxx1112regex_traitsIcEELb0ELb0ELb0EEEEERKT_v
FN:97,_ZNKSt9_Any_data9_M_accessIPKNSt8__detail15_BracketMatcherINSt7__cxx1112regex_traitsIcEELb0ELb1EEEEERKT_v
FNDA:0,_ZNKSt9_Any_data9_M_accessIPKNSt8__detail15_BracketMatcherINSt7__cxx1112regex_traitsIcEELb0ELb1EEEEERKT_v
FN:97,_ZNKSt9_Any_data9_M_accessIPNSt8__detail15_BracketMatcherINSt7__cxx1112regex_traitsIcEELb1ELb0EEEEERKT_v
FNDA:0,_ZNKSt9_Any_data9_M_accessIPNSt8__detail15_BracketMatcherINSt7__cxx1112regex_traitsIcEELb1ELb0EEEEERKT_v
FN:97,_ZNKSt9_Any_data9_M_accessINSt8__detail11_AnyMatcherINSt7__cxx1112regex_traitsIcEELb0ELb0ELb1EEEEERKT_v
FNDA:0,_ZNKSt9_Any_data9_M_accessINSt8__detail11_AnyMatcherINSt7__cxx1112regex_traitsIcEELb0ELb0ELb1EEEEERKT_v
FN:151,_ZNSt14_Function_base13_Base_managerINSt8__detail11_AnyMatcherINSt7__cxx1112regex_traitsIcEELb1ELb0ELb1EEEE14_M_get_pointerERKSt9_Any_data
FNDA:0,_ZNSt14_Function_base13_Base_managerINSt8__detail11_AnyMatcherINSt7__cxx1112regex_traitsIcEELb1ELb0ELb1EEEE14_M_get_pointerERKSt9_Any_data
FN:151,_ZNSt14_Function_base13_Base_managerINSt8__detail15_BracketMatcherINSt7__cxx1112regex_traitsIcEELb1ELb1EEEE14_M_get_pointerERKSt9_Any_data
FNDA:0,_ZNSt14_Function_base13_Base_managerINSt8__detail15_BracketMatcherINSt7__cxx1112regex_traitsIcEELb1ELb1EEEE14_M_get_pointerERKSt9_Any_data
FN:151,_ZNSt14_Function_base13_Base_managerINSt8__detail11_AnyMatcherINSt7__cxx1112regex_traitsIcEELb1ELb1ELb0EEEE14_M_get_pointerERKSt9_Any_data
FNDA:0,_ZNSt14_Function_base13_Base_managerINSt8__detail11_AnyMatcherINSt7__cxx1112regex_traitsIcEELb1ELb1ELb0EEEE14_M_get_pointerERKSt9_Any_data
FN:151,_ZNSt14_Function_base13_Base_managerINSt8__detail11_AnyMatcherINSt7__cxx1112regex_traitsIcEELb1ELb1ELb1EEEE14_M_get_pointerERKSt9_Any_data
FNDA:0,_ZNSt14_Function_base13_Base_managerINSt8__detail11_AnyMatcherINSt7__cxx1112regex_traitsIcEELb1ELb1ELb1EEEE14_M_get_pointerERKSt9_Any_data
FN:151,_ZNSt14_Function_base13_Base_managerINSt8__detail11_AnyMatcherINSt7__cxx1112regex_traitsIcEELb0ELb0ELb0EEEE14_M_get_pointerERKSt9_Any_data
FNDA:0,_ZNSt14_Function_base13_Base_managerINSt8__detail11_AnyMatcherINSt7__cxx1112regex_traitsIcEELb0ELb0ELb0EEEE14_M_get_pointerERKSt9_Any_data
FN:151,_ZNSt14_Function_base13_Base_managerINSt8__detail11_AnyMatcherINSt7__cxx1112regex_traitsIcEELb0ELb1ELb0EEEE14_M_get_pointerERKSt9_Any_data
FNDA:0,_ZNSt14_Function_base13_Base_managerINSt8__detail11_AnyMatcherINSt7__cxx1112regex_traitsIcEELb0ELb1ELb0EEEE14_M_get_pointerERKSt9_Any_data
FN:151,_ZNSt14_Function_base13_Base_managerINSt8__detail12_CharMatcherINSt7__cxx1112regex_traitsIcEELb0ELb0EEEE14_M_get_pointerERKSt9_Any_data
FNDA:0,_ZNSt14_Function_base13_Base_managerINSt8__detail12_CharMatcherINSt7__cxx1112regex_traitsIcEELb0ELb0EEEE14_M_get_pointerERKSt9_Any_data
FN:151,_ZNSt14_Function_base13_Base_managerINSt8__detail12_CharMatcherINSt7__cxx1112regex_traitsIcEELb0ELb1EEEE14_M_get_pointerERKSt9_Any_data
FNDA:0,_ZNSt14_Function_base13_Base_managerINSt8__detail12_CharMatcherINSt7__cxx1112regex_traitsIcEELb0ELb1EEEE14_M_get_pointerERKSt9_Any_data
FN:151,_ZNSt14_Function_base13_Base_managerINSt8__detail12_CharMatcherINSt7__cxx1112regex_traitsIcEELb1ELb0EEEE14_M_get_pointerERKSt9_Any_data
FNDA:0,_ZNSt14_Function_base13_Base_managerINSt8__detail12_CharMatcherINSt7__cxx1112regex_traitsIcEELb1ELb0EEEE14_M_get_pointerERKSt9_Any_data
FN:151,_ZNSt14_Function_base13_Base_managerINSt8__detail15_BracketMatcherINSt7__cxx1112regex_traitsIcEELb1ELb0EEEE14_M_get_pointerERKSt9_Any_data
FNDA:0,_ZNSt14_Function_base13_Base_managerINSt8__detail15_BracketMatcherINSt7__cxx1112regex_traitsIcEELb1ELb0EEEE14_M_get_pointerERKSt9_Any_data
FN:151,_ZNSt14_Function_base13_Base_managerINSt8__detail15_BracketMatcherINSt7__cxx1112regex_traitsIcEELb0ELb1EEEE14_M_get_pointerERKSt9_Any_data
FNDA:0,_ZNSt14_Function_base13_Base_managerINSt8__detail15_BracketMatcherINSt7__cxx1112regex_traitsIcEELb0ELb1EEEE14_M_get_pointerERKSt9_Any_data
FN:151,_ZNSt14_Function_base13_Base_managerINSt8__detail12_CharMatcherINSt7__cxx1112regex_traitsIcEELb1ELb1EEEE14_M_get_pointerERKSt9_Any_data
FNDA:0,_ZNSt14_Function_base13_Base_managerINSt8__detail12_CharMatcherINSt7__cxx1112regex_traitsIcEELb1ELb1EEEE14_M_get_pointerERKSt9_Any_data
FN:151,_ZNSt14_Function_base13_Base_managerINSt8__detail11_AnyMatcherINSt7__cxx1112regex_traitsIcEELb0ELb1ELb1EEEE14_M_get_pointerERKSt9_Any_data
FNDA:0,_ZNSt14_Function_base13_Base_managerINSt8__detail11_AnyMatcherINSt7__cxx1112regex_traitsIcEELb0ELb1ELb1EEEE14_M_get_pointerERKSt9_Any_data
FN:151,_ZNSt14_Function_base13_Base_managerINSt8__detail11_AnyMatcherINSt7__cxx1112regex_traitsIcEELb1ELb0ELb0EEEE14_M_get_pointerERKSt9_Any_data
FNDA:0,_ZNSt14_Function_base13_Base_managerINSt8__detail11_AnyMatcherINSt7__cxx1112regex_traitsIcEELb1ELb0ELb0EEEE14_M_get_pointerERKSt9_Any_data
FN:151,_ZNSt14_Function_base13_Base_managerINSt8__detail11_AnyMatcherINSt7__cxx1112regex_traitsIcEELb0ELb0ELb1EEEE14_M_get_pointerERKSt9_Any_data
FNDA:0,_ZNSt14_Function_base13_Base_managerINSt8__detail11_AnyMatcherINSt7__cxx1112regex_traitsIcEELb0ELb0ELb1EEEE14_M_get_pointerERKSt9_Any_data
FN:151,_ZNSt14_Function_base13_Base_managerINSt8__detail15_BracketMatcherINSt7__cxx1112regex_traitsIcEELb0ELb0EEEE14_M_get_pointerERKSt9_Any_data
FNDA:35,_ZNSt14_Function_base13_Base_managerINSt8__detail15_BracketMatcherINSt7__cxx1112regex_traitsIcEELb0ELb0EEEE14_M_get_pointerERKSt9_Any_data
FN:165,_ZNSt14_Function_base13_Base_managerINSt8__detail12_CharMatcherINSt7__cxx1112regex_traitsIcEELb1ELb0EEEE8_M_cloneERSt9_Any_dataRKS8_St17integral_constantIbLb1EE
FNDA:0,_ZNSt14_Function_base13_Base_managerINSt8__detail12_CharMatcherINSt7__cxx1112regex_traitsIcEELb1ELb0EEEE8_M_cloneERSt9_Any_dataRKS8_St17integral_constantIbLb1EE
FN:165,_ZNSt14_Function_base13_Base_managerINSt8__detail11_AnyMatcherINSt7__cxx1112regex_traitsIcEELb1ELb1ELb0EEEE8_M_cloneERSt9_Any_dataRKS8_St17integral_constantIbLb1EE
FNDA:0,_ZNSt14_Function_base13_Base_managerINSt8__detail11_AnyMatcherINSt7__cxx1112regex_traitsIcEELb1ELb1ELb0EEEE8_M_cloneERSt9_Any_dataRKS8_St17integral_constantIbLb1EE
FN:165,_ZNSt14_Function_base13_Base_managerINSt8__detail11_AnyMatcherINSt7__cxx1112regex_traitsIcEELb0ELb0ELb0EEEE8_M_cloneERSt9_Any_dataRKS8_St17integral_constantIbLb1EE
FNDA:0,_ZNSt14_Function_base13_Base_managerINSt8__detail11_AnyMatcherINSt7__cxx1112regex_traitsIcEELb0ELb0ELb0EEEE8_M_cloneERSt9_Any_dataRKS8_St17integral_constantIbLb1EE
FN:165,_ZNSt14_Function_base13_Base_managerINSt8__detail11_AnyMatcherINSt7__cxx1112regex_traitsIcEELb0ELb1ELb1EEEE8_M_cloneERSt9_Any_dataRKS8_St17integral_constantIbLb1EE
FNDA:0,_ZNSt14_Function_base13_Base_managerINSt8__detail11_AnyMatcherINSt7__cxx1112regex_traitsIcEELb0ELb1ELb1EEEE8_M_cloneERSt9_Any_dataRKS8_St17integral_constantIbLb1EE
FN:165,_ZNSt14_Function_base13_Base_managerINSt8__detail11_AnyMatcherINSt7__cxx1112regex_traitsIcEELb1ELb1ELb1EEEE8_M_cloneERSt9_Any_dataRKS8_St17integral_constantIbLb1EE
FNDA:0,_ZNSt14_Function_base13_Base_managerINSt8__detail11_AnyMatcherINSt7__cxx1112regex_traitsIcEELb1ELb1ELb1EEEE8_M_cloneERSt9_Any_dataRKS8_St17integral_constantIbLb1EE
FN:165,_ZNSt14_Function_base13_Base_managerINSt8__detail11_AnyMatcherINSt7__cxx1112regex_traitsIcEELb0ELb1ELb0EEEE8_M_cloneERSt9_Any_dataRKS8_St17integral_constantIbLb1EE
FNDA:0,_ZNSt14_Function_base13_Base_managerINSt8__detail11_AnyMatcherINSt7__cxx1112regex_traitsIcEELb0ELb1ELb0EEEE8_M_cloneERSt9_Any_dataRKS8_St17integral_constantIbLb1EE
FN:165,_ZNSt14_Function_base13_Base_managerINSt8__detail12_CharMatcherINSt7__cxx1112regex_traitsIcEELb0ELb0EEEE8_M_cloneERSt9_Any_dataRKS8_St17integral_constantIbLb1EE
FNDA:0,_ZNSt14_Function_base13_Base_managerINSt8__detail12_CharMatcherINSt7__cxx1112regex_traitsIcEELb0ELb0EEEE8_M_cloneERSt9_Any_dataRKS8_St17integral_constantIbLb1EE
FN:165,_ZNSt14_Function_base13_Base_managerINSt8__detail11_AnyMatcherINSt7__cxx1112regex_traitsIcEELb1ELb0ELb1EEEE8_M_cloneERSt9_Any_dataRKS8_St17integral_constantIbLb1EE
FNDA:0,_ZNSt14_Function_base13_Base_managerINSt8__detail11_AnyMatcherINSt7__cxx1112regex_traitsIcEELb1ELb0ELb1EEEE8_M_cloneERSt9_Any_dataRKS8_St17integral_constantIbLb1EE
FN:165,_ZNSt14_Function_base13_Base_managerINSt8__detail12_CharMatcherINSt7__cxx1112regex_traitsIcEELb1ELb1EEEE8_M_cloneERSt9_Any_dataRKS8_St17integral_constantIbLb1EE
FNDA:0,_ZNSt14_Function_base13_Base_managerINSt8__detail12_CharMatcherINSt7__cxx1112regex_traitsIcEELb1ELb1EEEE8_M_cloneERSt9_Any_dataRKS8_St17integral_constantIbLb1EE
FN:165,_ZNSt14_Function_base13_Base_managerINSt8__detail11_AnyMatcherINSt7__cxx1112regex_traitsIcEELb1ELb0ELb0EEEE8_M_cloneERSt9_Any_dataRKS8_St17integral_constantIbLb1EE
FNDA:0,_ZNSt14_Function_base13_Base_managerINSt8__detail11_AnyMatcherINSt7__cxx1112regex_traitsIcEELb1ELb0ELb0EEEE8_M_cloneERSt9_Any_dataRKS8_St17integral_constantIbLb1EE
FN:165,_ZNSt14_Function_base13_Base_managerINSt8__detail12_CharMatcherINSt7__cxx1112regex_traitsIcEELb0ELb1EEEE8_M_cloneERSt9_Any_dataRKS8_St17integral_constantIbLb1EE
FNDA:0,_ZNSt14_Function_base13_Base_managerINSt8__detail12_CharMatcherINSt7__cxx1112regex_traitsIcEELb0ELb1EEEE8_M_cloneERSt9_Any_dataRKS8_St17integral_constantIbLb1EE
FN:165,_ZNSt14_Function_base13_Base_managerINSt8__detail11_AnyMatcherINSt7__cxx1112regex_traitsIcEELb0ELb0ELb1EEEE8_M_cloneERSt9_Any_dataRKS8_St17integral_constantIbLb1EE
FNDA:0,_ZNSt14_Function_base13_Base_managerINSt8__detail11_AnyMatcherINSt7__cxx1112regex_traitsIcEELb0ELb0ELb1EEEE8_M_cloneERSt9_Any_dataRKS8_St17integral_constantIbLb1EE
FN:173,_ZNSt14_Function_base13_Base_managerINSt8__detail15_BracketMatcherINSt7__cxx1112regex_traitsIcEELb1ELb1EEEE8_M_cloneERSt9_Any_dataRKS8_St17integral_constantIbLb0EE
FNDA:0,_ZNSt14_Function_base13_Base_managerINSt8__detail15_BracketMatcherINSt7__cxx1112regex_traitsIcEELb1ELb1EEEE8_M_cloneERSt9_Any_dataRKS8_St17integral_constantIbLb0EE
FN:173,_ZNSt14_Function_base13_Base_managerINSt8__detail15_BracketMatcherINSt7__cxx1112regex_traitsIcEELb1ELb0EEEE8_M_cloneERSt9_Any_dataRKS8_St17integral_constantIbLb0EE
FNDA:0,_ZNSt14_Function_base13_Base_managerINSt8__detail15_BracketMatcherINSt7__cxx1112regex_traitsIcEELb1ELb0EEEE8_M_cloneERSt9_Any_dataRKS8_St17integral_constantIbLb0EE
FN:173,_ZNSt14_Function_base13_Base_managerINSt8__detail15_BracketMatcherINSt7__cxx1112regex_traitsIcEELb0ELb1EEEE8_M_cloneERSt9_Any_dataRKS8_St17integral_constantIbLb0EE
FNDA:0,_ZNSt14_Function_base13_Base_managerINSt8__detail15_BracketMatcherINSt7__cxx1112regex_traitsIcEELb0ELb1EEEE8_M_cloneERSt9_Any_dataRKS8_St17integral_constantIbLb0EE
FN:173,_ZNSt14_Function_base13_Base_managerINSt8__detail15_BracketMatcherINSt7__cxx1112regex_traitsIcEELb0ELb0EEEE8_M_cloneERSt9_Any_dataRKS8_St17integral_constantIbLb0EE
FNDA:8,_ZNSt14_Function_base13_Base_managerINSt8__detail15_BracketMatcherINSt7__cxx1112regex_traitsIcEELb0ELb0EEEE8_M_cloneERSt9_Any_dataRKS8_St17integral_constantIbLb0EE
FN:182,_ZNSt14_Function_base13_Base_managerINSt8__detail11_AnyMatcherINSt7__cxx1112regex_traitsIcEELb1ELb1ELb0EEEE10_M_destroyERSt9_Any_dataSt17integral_constantIbLb1EE
FNDA:0,_ZNSt14_Function_base13_Base_managerINSt8__detail11_AnyMatcherINSt7__cxx1112regex_traitsIcEELb1ELb1ELb0EEEE10_M_destroyERSt9_Any_dataSt17integral_constantIbLb1EE
FN:182,_ZNSt14_Function_base13_Base_managerINSt8__detail11_AnyMatcherINSt7__cxx1112regex_traitsIcEELb1ELb1ELb1EEEE10_M_destroyERSt9_Any_dataSt17integral_constantIbLb1EE
FNDA:0,_ZNSt14_Function_base13_Base_managerINSt8__detail11_AnyMatcherINSt7__cxx1112regex_traitsIcEELb1ELb1ELb1EEEE10_M_destroyERSt9_Any_dataSt17integral_constantIbLb1EE
FN:182,_ZNSt14_Function_base13_Base_managerINSt8__detail11_AnyMatcherINSt7__cxx1112regex_traitsIcEELb1ELb0ELb1EEEE10_M_destroyERSt9_Any_dataSt17integral_constantIbLb1EE
FNDA:0,_ZNSt14_Function_base13_Base_managerINSt8__detail11_AnyMatcherINSt7__cxx1112regex_traitsIcEELb1ELb0ELb1EEEE10_M_destroyERSt9_Any_dataSt17integral_constantIbLb1EE
FN:182,_ZNSt14_Function_base13_Base_managerINSt8__detail12_CharMatcherINSt7__cxx1112regex_traitsIcEELb0ELb0EEEE10_M_destroyERSt9_Any_dataSt17integral_constantIbLb1EE
FNDA:0,_ZNSt14_Function_base13_Base_managerINSt8__detail12_CharMatcherINSt7__cxx1112regex_traitsIcEELb0ELb0EEEE10_M_destroyERSt9_Any_dataSt17integral_constantIbLb1EE
FN:182,_ZNSt14_Function_base13_Base_managerINSt8__detail11_AnyMatcherINSt7__cxx1112regex_traitsIcEELb0ELb0ELb1EEEE10_M_destroyERSt9_Any_dataSt17integral_constantIbLb1EE
FNDA:0,_ZNSt14_Function_base13_Base_managerINSt8__detail11_AnyMatcherINSt7__cxx1112regex_traitsIcEELb0ELb0ELb1EEEE10_M_destroyERSt9_Any_dataSt17integral_constantIbLb1EE
FN:182,_ZNSt14_Function_base13_Base_managerINSt8__detail12_CharMatcherINSt7__cxx1112regex_traitsIcEELb0ELb1EEEE10_M_destroyERSt9_Any_dataSt17integral_constantIbLb1EE
FNDA:0,_ZNSt14_Function_base13_Base_managerINSt8__detail12_CharMatcherINSt7__cxx1112regex_traitsIcEELb0ELb1EEEE10_M_destroyERSt9_Any_dataSt17integral_constantIbLb1EE
FN:182,_ZNSt14_Function_base13_Base_managerINSt8__detail11_AnyMatcherINSt7__cxx1112regex_traitsIcEELb0ELb1ELb0EEEE10_M_destroyERSt9_Any_dataSt17integral_constantIbLb1EE
FNDA:0,_ZNSt14_Function_base13_Base_managerINSt8__detail11_AnyMatcherINSt7__cxx1112regex_traitsIcEELb0ELb1ELb0EEEE10_M_destroyERSt9_Any_dataSt17integral_constantIbLb1EE
FN:182,_ZNSt14_Function_base13_Base_managerINSt8__detail11_AnyMatcherINSt7__cxx1112regex_traitsIcEELb1ELb0ELb0EEEE10_M_destroyERSt9_Any_dataSt17integral_constantIbLb1EE
FNDA:0,_ZNSt14_Function_base13_Base_managerINSt8__detail11_AnyMatcherINSt7__cxx1112regex_traitsIcEELb1ELb0ELb0EEEE10_M_destroyERSt9_Any_dataSt17integral_constantIbLb1EE
FN:182,_ZNSt14_Function_base13_Base_managerINSt8__detail12_CharMatcherINSt7__cxx1112regex_traitsIcEELb1ELb0EEEE10_M_destroyERSt9_Any_dataSt17integral_constantIbLb1EE
FNDA:0,_ZNSt14_Function_base13_Base_managerINSt8__detail12_CharMatcherINSt7__cxx1112regex_traitsIcEELb1ELb0EEEE10_M_destroyERSt9_Any_dataSt17integral_constantIbLb1EE
FN:182,_ZNSt14_Function_base13_Base_managerINSt8__detail12_CharMatcherINSt7__cxx1112regex_traitsIcEELb1ELb1EEEE10_M_destroyERSt9_Any_dataSt17integral_constantIbLb1EE
FNDA:0,_ZNSt14_Function_base13_Base_managerINSt8__detail12_CharMatcherINSt7__cxx1112regex_traitsIcEELb1ELb1EEEE10_M_destroyERSt9_Any_dataSt17integral_constantIbLb1EE
FN:182,_ZNSt14_Function_base13_Base_managerINSt8__detail11_AnyMatcherINSt7__cxx1112regex_traitsIcEELb0ELb1ELb1EEEE10_M_destroyERSt9_Any_dataSt17integral_constantIbLb1EE
FNDA:0,_ZNSt14_Function_base13_Base_managerINSt8__detail11_AnyMatcherINSt7__cxx1112regex_traitsIcEELb0ELb1ELb1EEEE10_M_destroyERSt9_Any_dataSt17integral_constantIbLb1EE
FN:182,_ZNSt14_Function_base13_Base_managerINSt8__detail11_AnyMatcherINSt7__cxx1112regex_traitsIcEELb0ELb0ELb0EEEE10_M_destroyERSt9_Any_dataSt17integral_constantIbLb1EE
FNDA:0,_ZNSt14_Function_base13_Base_managerINSt8__detail11_AnyMatcherINSt7__cxx1112regex_traitsIcEELb0ELb0ELb0EEEE10_M_destroyERSt9_Any_dataSt17integral_constantIbLb1EE
FN:189,_ZNSt14_Function_base13_Base_managerINSt8__detail15_BracketMatcherINSt7__cxx1112regex_traitsIcEELb1ELb1EEEE10_M_destroyERSt9_Any_dataSt17integral_constantIbLb0EE
FNDA:0,_ZNSt14_Function_base13_Base_managerINSt8__detail15_BracketMatcherINSt7__cxx1112regex_traitsIcEELb1ELb1EEEE10_M_destroyERSt9_Any_dataSt17integral_constantIbLb0EE
FN:189,_ZNSt14_Function_base13_Base_managerINSt8__detail15_BracketMatcherINSt7__cxx1112regex_traitsIcEELb1ELb0EEEE10_M_destroyERSt9_Any_dataSt17integral_constantIbLb0EE
FNDA:0,_ZNSt14_Function_base13_Base_managerINSt8__detail15_BracketMatcherINSt7__cxx1112regex_traitsIcEELb1ELb0EEEE10_M_destroyERSt9_Any_dataSt17integral_constantIbLb0EE
FN:189,_ZNSt14_Function_base13_Base_managerINSt8__detail15_BracketMatcherINSt7__cxx1112regex_traitsIcEELb0ELb0EEEE10_M_destroyERSt9_Any_dataSt17integral_constantIbLb0EE
FNDA:9,_ZNSt14_Function_base13_Base_managerINSt8__detail15_BracketMatcherINSt7__cxx1112regex_traitsIcEELb0ELb0EEEE10_M_destroyERSt9_Any_dataSt17integral_constantIbLb0EE
FN:189,_ZNSt14_Function_base13_Base_managerINSt8__detail15_BracketMatcherINSt7__cxx1112regex_traitsIcEELb0ELb1EEEE10_M_destroyERSt9_Any_dataSt17integral_constantIbLb0EE
FNDA:0,_ZNSt14_Function_base13_Base_managerINSt8__detail15_BracketMatcherINSt7__cxx1112regex_traitsIcEELb0ELb1EEEE10_M_destroyERSt9_Any_dataSt17integral_constantIbLb0EE
FN:196,_ZNSt14_Function_base13_Base_managerINSt8__detail11_AnyMatcherINSt7__cxx1112regex_traitsIcEELb1ELb1ELb1EEEE10_M_managerERSt9_Any_dataRKS8_St18_Manager_operation
FNDA:0,_ZNSt14_Function_base13_Base_managerINSt8__detail11_AnyMatcherINSt7__cxx1112regex_traitsIcEELb1ELb1ELb1EEEE10_M_managerERSt9_Any_dataRKS8_St18_Manager_operation
FN:196,_ZNSt14_Function_base13_Base_managerINSt8__detail12_CharMatcherINSt7__cxx1112regex_traitsIcEELb1ELb0EEEE10_M_managerERSt9_Any_dataRKS8_St18_Manager_operation
FNDA:0,_ZNSt14_Function_base13_Base_managerINSt8__detail12_CharMatcherINSt7__cxx1112regex_traitsIcEELb1ELb0EEEE10_M_managerERSt9_Any_dataRKS8_St18_Manager_operation
FN:196,_ZNSt14_Function_base13_Base_managerINSt8__detail11_AnyMatcherINSt7__cxx1112regex_traitsIcEELb1ELb1ELb0EEEE10_M_managerERSt9_Any_dataRKS8_St18_Manager_operation
FNDA:0,_ZNSt14_Function_base13_Base_managerINSt8__detail11_AnyMatcherINSt7__cxx1112regex_traitsIcEELb1ELb1ELb0EEEE10_M_managerERSt9_Any_dataRKS8_St18_Manager_operation
FN:196,_ZNSt14_Function_base13_Base_managerINSt8__detail12_CharMatcherINSt7__cxx1112regex_traitsIcEELb1ELb1EEEE10_M_managerERSt9_Any_dataRKS8_St18_Manager_operation
FNDA:0,_ZNSt14_Function_base13_Base_managerINSt8__detail12_CharMatcherINSt7__cxx1112regex_traitsIcEELb1ELb1EEEE10_M_managerERSt9_Any_dataRKS8_St18_Manager_operation
FN:196,_ZNSt14_Function_base13_Base_managerINSt8__detail15_BracketMatcherINSt7__cxx1112regex_traitsIcEELb0ELb0EEEE10_M_managerERSt9_Any_dataRKS8_St18_Manager_operation
FNDA:17,_ZNSt14_Function_base13_Base_managerINSt8__detail15_BracketMatcherINSt7__cxx1112regex_traitsIcEELb0ELb0EEEE10_M_managerERSt9_Any_dataRKS8_St18_Manager_operation
FN:196,_ZNSt14_Function_base13_Base_managerINSt8__detail12_CharMatcherINSt7__cxx1112regex_traitsIcEELb0ELb1EEEE10_M_managerERSt9_Any_dataRKS8_St18_Manager_operation
FNDA:0,_ZNSt14_Function_base13_Base_managerINSt8__detail12_CharMatcherINSt7__cxx1112regex_traitsIcEELb0ELb1EEEE10_M_managerERSt9_Any_dataRKS8_St18_Manager_operation
FN:196,_ZNSt14_Function_base13_Base_managerINSt8__detail11_AnyMatcherINSt7__cxx1112regex_traitsIcEELb1ELb0ELb1EEEE10_M_managerERSt9_Any_dataRKS8_St18_Manager_operation
FNDA:0,_ZNSt14_Function_base13_Base_managerINSt8__detail11_AnyMatcherINSt7__cxx1112regex_traitsIcEELb1ELb0ELb1EEEE10_M_managerERSt9_Any_dataRKS8_St18_Manager_operation
FN:196,_ZNSt14_Function_base13_Base_managerINSt8__detail15_BracketMatcherINSt7__cxx1112regex_traitsIcEELb0ELb1EEEE10_M_managerERSt9_Any_dataRKS8_St18_Manager_operation
FNDA:0,_ZNSt14_Function_base13_Base_managerINSt8__detail15_BracketMatcherINSt7__cxx1112regex_traitsIcEELb0ELb1EEEE10_M_managerERSt9_Any_dataRKS8_St18_Manager_operation
FN:196,_ZNSt14_Function_base13_Base_managerINSt8__detail15_BracketMatcherINSt7__cxx1112regex_traitsIcEELb1ELb0EEEE10_M_managerERSt9_Any_dataRKS8_St18_Manager_operation
FNDA:0,_ZNSt14_Function_base13_Base_managerINSt8__detail15_BracketMatcherINSt7__cxx1112regex_traitsIcEELb1ELb0EEEE10_M_managerERSt9_Any_dataRKS8_St18_Manager_operation
FN:196,_ZNSt14_Function_base13_Base_managerINSt8__detail15_BracketMatcherINSt7__cxx1112regex_traitsIcEELb1ELb1EEEE10_M_managerERSt9_Any_dataRKS8_St18_Manager_operation
FNDA:0,_ZNSt14_Function_base13_Base_managerINSt8__detail15_BracketMatcherINSt7__cxx1112regex_traitsIcEELb1ELb1EEEE10_M_managerERSt9_Any_dataRKS8_St18_Manager_operation
FN:196,_ZNSt14_Function_base13_Base_managerINSt8__detail11_AnyMatcherINSt7__cxx1112regex_traitsIcEELb1ELb0ELb0EEEE10_M_managerERSt9_Any_dataRKS8_St18_Manager_operation
FNDA:0,_ZNSt14_Function_base13_Base_managerINSt8__detail11_AnyMatcherINSt7__cxx1112regex_traitsIcEELb1ELb0ELb0EEEE10_M_managerERSt9_Any_dataRKS8_St18_Manager_operation
FN:196,_ZNSt14_Function_base13_Base_managerINSt8__detail12_CharMatcherINSt7__cxx1112regex_traitsIcEELb0ELb0EEEE10_M_managerERSt9_Any_dataRKS8_St18_Manager_operation
FNDA:0,_ZNSt14_Function_base13_Base_managerINSt8__detail12_CharMatcherINSt7__cxx1112regex_traitsIcEELb0ELb0EEEE10_M_managerERSt9_Any_dataRKS8_St18_Manager_operation
FN:196,_ZNSt14_Function_base13_Base_managerINSt8__detail11_AnyMatcherINSt7__cxx1112regex_traitsIcEELb0ELb1ELb1EEEE10_M_managerERSt9_Any_dataRKS8_St18_Manager_operation
FNDA:0,_ZNSt14_Function_base13_Base_managerINSt8__detail11_AnyMatcherINSt7__cxx1112regex_traitsIcEELb0ELb1ELb1EEEE10_M_managerERSt9_Any_dataRKS8_St18_Manager_operation
FN:196,_ZNSt14_Function_base13_Base_managerINSt8__detail11_AnyMatcherINSt7__cxx1112regex_traitsIcEELb0ELb1ELb0EEEE10_M_managerERSt9_Any_dataRKS8_St18_Manager_operation
FNDA:0,_ZNSt14_Function_base13_Base_managerINSt8__detail11_AnyMatcherINSt7__cxx1112regex_traitsIcEELb0ELb1ELb0EEEE10_M_managerERSt9_Any_dataRKS8_St18_Manager_operation
FN:196,_ZNSt14_Function_base13_Base_managerINSt8__detail11_AnyMatcherINSt7__cxx1112regex_traitsIcEELb0ELb0ELb0EEEE10_M_managerERSt9_Any_dataRKS8_St18_Manager_operation
FNDA:0,_ZNSt14_Function_base13_Base_managerINSt8__detail11_AnyMatcherINSt7__cxx1112regex_traitsIcEELb0ELb0ELb0EEEE10_M_managerERSt9_Any_dataRKS8_St18_Manager_operation
FN:196,_ZNSt14_Function_base13_Base_managerINSt8__detail11_AnyMatcherINSt7__cxx1112regex_traitsIcEELb0ELb0ELb1EEEE10_M_managerERSt9_Any_dataRKS8_St18_Manager_operation
FNDA:0,_ZNSt14_Function_base13_Base_managerINSt8__detail11_AnyMatcherINSt7__cxx1112regex_traitsIcEELb0ELb0ELb1EEEE10_M_managerERSt9_Any_dataRKS8_St18_Manager_operation
FN:222,_ZNSt14_Function_base13_Base_managerINSt8__detail11_AnyMatcherINSt7__cxx1112regex_traitsIcEELb0ELb1ELb1EEEE15_M_init_functorERSt9_Any_dataOS6_
FNDA:0,_ZNSt14_Function_base13_Base_managerINSt8__detail11_AnyMatcherINSt7__cxx1112regex_traitsIcEELb0ELb1ELb1EEEE15_M_init_functorERSt9_Any_dataOS6_
FN:222,_ZNSt14_Function_base13_Base_managerINSt8__detail11_AnyMatcherINSt7__cxx1112regex_traitsIcEELb0ELb0ELb0EEEE15_M_init_functorERSt9_Any_dataOS6_
FNDA:0,_ZNSt14_Function_base13_Base_managerINSt8__detail11_AnyMatcherINSt7__cxx1112regex_traitsIcEELb0ELb0ELb0EEEE15_M_init_functorERSt9_Any_dataOS6_
FN:222,_ZNSt14_Function_base13_Base_managerINSt8__detail12_CharMatcherINSt7__cxx1112regex_traitsIcEELb1ELb1EEEE15_M_init_functorERSt9_Any_dataOS6_
FNDA:0,_ZNSt14_Function_base13_Base_managerINSt8__detail12_CharMatcherINSt7__cxx1112regex_traitsIcEELb1ELb1EEEE15_M_init_functorERSt9_Any_dataOS6_
FN:222,_ZNSt14_Function_base13_Base_managerINSt8__detail11_AnyMatcherINSt7__cxx1112regex_traitsIcEELb1ELb1ELb0EEEE15_M_init_functorERSt9_Any_dataOS6_
FNDA:0,_ZNSt14_Function_base13_Base_managerINSt8__detail11_AnyMatcherINSt7__cxx1112regex_traitsIcEELb1ELb1ELb0EEEE15_M_init_functorERSt9_Any_dataOS6_
FN:222,_ZNSt14_Function_base13_Base_managerINSt8__detail12_CharMatcherINSt7__cxx1112regex_traitsIcEELb1ELb0EEEE15_M_init_functorERSt9_Any_dataOS6_
FNDA:0,_ZNSt14_Function_base13_Base_managerINSt8__detail12_CharMatcherINSt7__cxx1112regex_traitsIcEELb1ELb0EEEE15_M_init_functorERSt9_Any_dataOS6_
FN:222,_ZNSt14_Function_base13_Base_managerINSt8__detail15_BracketMatcherINSt7__cxx1112regex_traitsIcEELb0ELb0EEEE15_M_init_functorERSt9_Any_dataOS6_
FNDA:1,_ZNSt14_Function_base13_Base_managerINSt8__detail15_BracketMatcherINSt7__cxx1112regex_traitsIcEELb0ELb0EEEE15_M_init_functorERSt9_Any_dataOS6_
FN:222,_ZNSt14_Function_base13_Base_managerINSt8__detail11_AnyMatcherINSt7__cxx1112regex_traitsIcEELb0ELb0ELb1EEEE15_M_init_functorERSt9_Any_dataOS6_
FNDA:0,_ZNSt14_Function_base13_Base_managerINSt8__detail11_AnyMatcherINSt7__cxx1112regex_traitsIcEELb0ELb0ELb1EEEE15_M_init_functorERSt9_Any_dataOS6_
FN:222,_ZNSt14_Function_base13_Base_managerINSt8__detail15_BracketMatcherINSt7__cxx1112regex_traitsIcEELb0ELb1EEEE15_M_init_functorERSt9_Any_dataOS6_
FNDA:0,_ZNSt14_Function_base13_Base_managerINSt8__detail15_BracketMatcherINSt7__cxx1112regex_traitsIcEELb0ELb1EEEE15_M_init_functorERSt9_Any_dataOS6_
FN:222,_ZNSt14_Function_base13_Base_managerINSt8__detail12_CharMatcherINSt7__cxx1112regex_traitsIcEELb0ELb0EEEE15_M_init_functorERSt9_Any_dataOS6_
FNDA:0,_ZNSt14_Function_base13_Base_managerINSt8__detail12_CharMatcherINSt7__cxx1112regex_traitsIcEELb0ELb0EEEE15_M_init_functorERSt9_Any_dataOS6_
FN:222,_ZNSt14_Function_base13_Base_managerINSt8__detail15_BracketMatcherINSt7__cxx1112regex_traitsIcEELb1ELb0EEEE15_M_init_functorERSt9_Any_dataOS6_
FNDA:0,_ZNSt14_Function_base13_Base_managerINSt8__detail15_BracketMatcherINSt7__cxx1112regex_traitsIcEELb1ELb0EEEE15_M_init_functorERSt9_Any_dataOS6_
FN:222,_ZNSt14_Function_base13_Base_managerINSt8__detail11_AnyMatcherINSt7__cxx1112regex_traitsIcEELb1ELb0ELb1EEEE15_M_init_functorERSt9_Any_dataOS6_
FNDA:0,_ZNSt14_Function_base13_Base_managerINSt8__detail11_AnyMatcherINSt7__cxx1112regex_traitsIcEELb1ELb0ELb1EEEE15_M_init_functorERSt9_Any_dataOS6_
FN:222,_ZNSt14_Function_base13_Base_managerINSt8__detail11_AnyMatcherINSt7__cxx1112regex_traitsIcEELb0ELb1ELb0EEEE15_M_init_functorERSt9_Any_dataOS6_
FNDA:0,_ZNSt14_Function_base13_Base_managerINSt8__detail11_AnyMatcherINSt7__cxx1112regex_traitsIcEELb0ELb1ELb0EEEE15_M_init_functorERSt9_Any_dataOS6_
FN:222,_ZNSt14_Function_base13_Base_managerINSt8__detail12_CharMatcherINSt7__cxx1112regex_traitsIcEELb0ELb1EEEE15_M_init_functorERSt9_Any_dataOS6_
FNDA:0,_ZNSt14_Function_base13_Base_managerINSt8__detail12_CharMatcherINSt7__cxx1112regex_traitsIcEELb0ELb1EEEE15_M_init_functorERSt9_Any_dataOS6_
FN:222,_ZNSt14_Function_base13_Base_managerINSt8__detail15_BracketMatcherINSt7__cxx1112regex_traitsIcEELb1ELb1EEEE15_M_init_functorERSt9_Any_dataOS6_
FNDA:0,_ZNSt14_Function_base13_Base_managerINSt8__detail15_BracketMatcherINSt7__cxx1112regex_traitsIcEELb1ELb1EEEE15_M_init_functorERSt9_Any_dataOS6_
FN:222,_ZNSt14_Function_base13_Base_managerINSt8__detail11_AnyMatcherINSt7__cxx1112regex_traitsIcEELb1ELb1ELb1EEEE15_M_init_functorERSt9_Any_dataOS6_
FNDA:0,_ZNSt14_Function_base13_Base_managerINSt8__detail11_AnyMatcherINSt7__cxx1112regex_traitsIcEELb1ELb1ELb1EEEE15_M_init_functorERSt9_Any_dataOS6_
FN:222,_ZNSt14_Function_base13_Base_managerINSt8__detail11_AnyMatcherINSt7__cxx1112regex_traitsIcEELb1ELb0ELb0EEEE15_M_init_functorERSt9_Any_dataOS6_
FNDA:0,_ZNSt14_Function_base13_Base_managerINSt8__detail11_AnyMatcherINSt7__cxx1112regex_traitsIcEELb1ELb0ELb0EEEE15_M_init_functorERSt9_Any_dataOS6_
FN:242,_ZNSt14_Function_base13_Base_managerINSt8__detail11_AnyMatcherINSt7__cxx1112regex_traitsIcEELb1ELb1ELb1EEEE21_M_not_empty_functionIS6_EEbRKT_
FNDA:0,_ZNSt14_Function_base13_Base_managerINSt8__detail11_AnyMatcherINSt7__cxx1112regex_traitsIcEELb1ELb1ELb1EEEE21_M_not_empty_functionIS6_EEbRKT_
FN:242,_ZNSt14_Function_base13_Base_managerINSt8__detail12_CharMatcherINSt7__cxx1112regex_traitsIcEELb0ELb0EEEE21_M_not_empty_functionIS6_EEbRKT_
FNDA:0,_ZNSt14_Function_base13_Base_managerINSt8__detail12_CharMatcherINSt7__cxx1112regex_traitsIcEELb0ELb0EEEE21_M_not_empty_functionIS6_EEbRKT_
FN:242,_ZNSt14_Function_base13_Base_managerINSt8__detail12_CharMatcherINSt7__cxx1112regex_traitsIcEELb1ELb0EEEE21_M_not_empty_functionIS6_EEbRKT_
FNDA:0,_ZNSt14_Function_base13_Base_managerINSt8__detail12_CharMatcherINSt7__cxx1112regex_traitsIcEELb1ELb0EEEE21_M_not_empty_functionIS6_EEbRKT_
FN:242,_ZNSt14_Function_base13_Base_managerINSt8__detail12_CharMatcherINSt7__cxx1112regex_traitsIcEELb0ELb1EEEE21_M_not_empty_functionIS6_EEbRKT_
FNDA:0,_ZNSt14_Function_base13_Base_managerINSt8__detail12_CharMatcherINSt7__cxx1112regex_traitsIcEELb0ELb1EEEE21_M_not_empty_functionIS6_EEbRKT_
FN:242,_ZNSt14_Function_base13_Base_managerINSt8__detail15_BracketMatcherINSt7__cxx1112regex_traitsIcEELb1ELb0EEEE21_M_not_empty_functionIS6_EEbRKT_
FNDA:0,_ZNSt14_Function_base13_Base_managerINSt8__detail15_BracketMatcherINSt7__cxx1112regex_traitsIcEELb1ELb0EEEE21_M_not_empty_functionIS6_EEbRKT_
FN:242,_ZNSt14_Function_base13_Base_managerINSt8__detail12_CharMatcherINSt7__cxx1112regex_traitsIcEELb1ELb1EEEE21_M_not_empty_functionIS6_EEbRKT_
FNDA:0,_ZNSt14_Function_base13_Base_managerINSt8__detail12_CharMatcherINSt7__cxx1112regex_traitsIcEELb1ELb1EEEE21_M_not_empty_functionIS6_EEbRKT_
FN:242,_ZNSt14_Function_base13_Base_managerINSt8__detail15_BracketMatcherINSt7__cxx1112regex_traitsIcEELb0ELb0EEEE21_M_not_empty_functionIS6_EEbRKT_
FNDA:1,_ZNSt14_Function_base13_Base_managerINSt8__detail15_BracketMatcherINSt7__cxx1112regex_traitsIcEELb0ELb0EEEE21_M_not_empty_functionIS6_EEbRKT_
FN:242,_ZNSt14_Function_base13_Base_managerINSt8__detail11_AnyMatcherINSt7__cxx1112regex_traitsIcEELb1ELb1ELb0EEEE21_M_not_empty_functionIS6_EEbRKT_
FNDA:0,_ZNSt14_Function_base13_Base_managerINSt8__detail11_AnyMatcherINSt7__cxx1112regex_traitsIcEELb1ELb1ELb0EEEE21_M_not_empty_functionIS6_EEbRKT_
FN:242,_ZNSt14_Function_base13_Base_managerINSt8__detail15_BracketMatcherINSt7__cxx1112regex_traitsIcEELb0ELb1EEEE21_M_not_empty_functionIS6_EEbRKT_
FNDA:0,_ZNSt14_Function_base13_Base_managerINSt8__detail15_BracketMatcherINSt7__cxx1112regex_traitsIcEELb0ELb1EEEE21_M_not_empty_functionIS6_EEbRKT_
FN:242,_ZNSt14_Function_base13_Base_managerINSt8__detail15_BracketMatcherINSt7__cxx1112regex_traitsIcEELb1ELb1EEEE21_M_not_empty_functionIS6_EEbRKT_
FNDA:0,_ZNSt14_Function_base13_Base_managerINSt8__detail15_BracketMatcherINSt7__cxx1112regex_traitsIcEELb1ELb1EEEE21_M_not_empty_functionIS6_EEbRKT_
FN:242,_ZNSt14_Function_base13_Base_managerINSt8__detail11_AnyMatcherINSt7__cxx1112regex_traitsIcEELb1ELb0ELb1EEEE21_M_not_empty_functionIS6_EEbRKT_
FNDA:0,_ZNSt14_Function_base13_Base_managerINSt8__detail11_AnyMatcherINSt7__cxx1112regex_traitsIcEELb1ELb0ELb1EEEE21_M_not_empty_functionIS6_EEbRKT_
FN:242,_ZNSt14_Function_base13_Base_managerINSt8__detail11_AnyMatcherINSt7__cxx1112regex_traitsIcEELb1ELb0ELb0EEEE21_M_not_empty_functionIS6_EEbRKT_
FNDA:0,_ZNSt14_Function_base13_Base_managerINSt8__detail11_AnyMatcherINSt7__cxx1112regex_traitsIcEELb1ELb0ELb0EEEE21_M_not_empty_functionIS6_EEbRKT_
FN:242,_ZNSt14_Function_base13_Base_managerINSt8__detail11_AnyMatcherINSt7__cxx1112regex_traitsIcEELb0ELb1ELb1EEEE21_M_not_empty_functionIS6_EEbRKT_
FNDA:0,_ZNSt14_Function_base13_Base_managerINSt8__detail11_AnyMatcherINSt7__cxx1112regex_traitsIcEELb0ELb1ELb1EEEE21_M_not_empty_functionIS6_EEbRKT_
FN:242,_ZNSt14_Function_base13_Base_managerINSt8__detail11_AnyMatcherINSt7__cxx1112regex_traitsIcEELb0ELb1ELb0EEEE21_M_not_empty_functionIS6_EEbRKT_
FNDA:0,_ZNSt14_Function_base13_Base_managerINSt8__detail11_AnyMatcherINSt7__cxx1112regex_traitsIcEELb0ELb1ELb0EEEE21_M_not_empty_functionIS6_EEbRKT_
FN:242,_ZNSt14_Function_base13_Base_managerINSt8__detail11_AnyMatcherINSt7__cxx1112regex_traitsIcEELb0ELb0ELb1EEEE21_M_not_empty_functionIS6_EEbRKT_
FNDA:0,_ZNSt14_Function_base13_Base_managerINSt8__detail11_AnyMatcherINSt7__cxx1112regex_traitsIcEELb0ELb0ELb1EEEE21_M_not_empty_functionIS6_EEbRKT_
FN:242,_ZNSt14_Function_base13_Base_managerINSt8__detail11_AnyMatcherINSt7__cxx1112regex_traitsIcEELb0ELb0ELb0EEEE21_M_not_empty_functionIS6_EEbRKT_
FNDA:0,_ZNSt14_Function_base13_Base_managerINSt8__detail11_AnyMatcherINSt7__cxx1112regex_traitsIcEELb0ELb0ELb0EEEE21_M_not_empty_functionIS6_EEbRKT_
FN:247,_ZNSt14_Function_base13_Base_managerINSt8__detail11_AnyMatcherINSt7__cxx1112regex_traitsIcEELb0ELb1ELb1EEEE15_M_init_functorERSt9_Any_dataOS6_St17integral_constantIbLb1EE
FNDA:0,_ZNSt14_Function_base13_Base_managerINSt8__detail11_AnyMatcherINSt7__cxx1112regex_traitsIcEELb0ELb1ELb1EEEE15_M_init_functorERSt9_Any_dataOS6_St17integral_constantIbLb1EE
FN:247,_ZNSt14_Function_base13_Base_managerINSt8__detail12_CharMatcherINSt7__cxx1112regex_traitsIcEELb0ELb0EEEE15_M_init_functorERSt9_Any_dataOS6_St17integral_constantIbLb1EE
FNDA:0,_ZNSt14_Function_base13_Base_managerINSt8__detail12_CharMatcherINSt7__cxx1112regex_traitsIcEELb0ELb0EEEE15_M_init_functorERSt9_Any_dataOS6_St17integral_constantIbLb1EE
FN:247,_ZNSt14_Function_base13_Base_managerINSt8__detail12_CharMatcherINSt7__cxx1112regex_traitsIcEELb1ELb0EEEE15_M_init_functorERSt9_Any_dataOS6_St17integral_constantIbLb1EE
FNDA:0,_ZNSt14_Function_base13_Base_managerINSt8__detail12_CharMatcherINSt7__cxx1112regex_traitsIcEELb1ELb0EEEE15_M_init_functorERSt9_Any_dataOS6_St17integral_constantIbLb1EE
FN:247,_ZNSt14_Function_base13_Base_managerINSt8__detail12_CharMatcherINSt7__cxx1112regex_traitsIcEELb1ELb1EEEE15_M_init_functorERSt9_Any_dataOS6_St17integral_constantIbLb1EE
FNDA:0,_ZNSt14_Function_base13_Base_managerINSt8__detail12_CharMatcherINSt7__cxx1112regex_traitsIcEELb1ELb1EEEE15_M_init_functorERSt9_Any_dataOS6_St17integral_constantIbLb1EE
FN:247,_ZNSt14_Function_base13_Base_managerINSt8__detail11_AnyMatcherINSt7__cxx1112regex_traitsIcEELb0ELb0ELb1EEEE15_M_init_functorERSt9_Any_dataOS6_St17integral_constantIbLb1EE
FNDA:0,_ZNSt14_Function_base13_Base_managerINSt8__detail11_AnyMatcherINSt7__cxx1112regex_traitsIcEELb0ELb0ELb1EEEE15_M_init_functorERSt9_Any_dataOS6_St17integral_constantIbLb1EE
FN:247,_ZNSt14_Function_base13_Base_managerINSt8__detail12_CharMatcherINSt7__cxx1112regex_traitsIcEELb0ELb1EEEE15_M_init_functorERSt9_Any_dataOS6_St17integral_constantIbLb1EE
FNDA:0,_ZNSt14_Function_base13_Base_managerINSt8__detail12_CharMatcherINSt7__cxx1112regex_traitsIcEELb0ELb1EEEE15_M_init_functorERSt9_Any_dataOS6_St17integral_constantIbLb1EE
FN:247,_ZNSt14_Function_base13_Base_managerINSt8__detail11_AnyMatcherINSt7__cxx1112regex_traitsIcEELb0ELb0ELb0EEEE15_M_init_functorERSt9_Any_dataOS6_St17integral_constantIbLb1EE
FNDA:0,_ZNSt14_Function_base13_Base_managerINSt8__detail11_AnyMatcherINSt7__cxx1112regex_traitsIcEELb0ELb0ELb0EEEE15_M_init_functorERSt9_Any_dataOS6_St17integral_constantIbLb1EE
FN:247,_ZNSt14_Function_base13_Base_managerINSt8__detail11_AnyMatcherINSt7__cxx1112regex_traitsIcEELb0ELb1ELb0EEEE15_M_init_functorERSt9_Any_dataOS6_St17integral_constantIbLb1EE
FNDA:0,_ZNSt14_Function_base13_Base_managerINSt8__detail11_AnyMatcherINSt7__cxx1112regex_traitsIcEELb0ELb1ELb0EEEE15_M_init_functorERSt9_Any_dataOS6_St17integral_constantIbLb1EE
FN:247,_ZNSt14_Function_base13_Base_managerINSt8__detail11_AnyMatcherINSt7__cxx1112regex_traitsIcEELb1ELb1ELb1EEEE15_M_init_functorERSt9_Any_dataOS6_St17integral_constantIbLb1EE
FNDA:0,_ZNSt14_Function_base13_Base_managerINSt8__detail11_AnyMatcherINSt7__cxx1112regex_traitsIcEELb1ELb1ELb1EEEE15_M_init_functorERSt9_Any_dataOS6_St17integral_constantIbLb1EE
FN:247,_ZNSt14_Function_base13_Base_managerINSt8__detail11_AnyMatcherINSt7__cxx1112regex_traitsIcEELb1ELb1ELb0EEEE15_M_init_functorERSt9_Any_dataOS6_St17integral_constantIbLb1EE
FNDA:0,_ZNSt14_Function_base13_Base_managerINSt8__detail11_AnyMatcherINSt7__cxx1112regex_traitsIcEELb1ELb1ELb0EEEE15_M_init_functorERSt9_Any_dataOS6_St17integral_constantIbLb1EE
FN:247,_ZNSt14_Function_base13_Base_managerINSt8__detail11_AnyMatcherINSt7__cxx1112regex_traitsIcEELb1ELb0ELb1EEEE15_M_init_functorERSt9_Any_dataOS6_St17integral_constantIbLb1EE
FNDA:0,_ZNSt14_Function_base13_Base_managerINSt8__detail11_AnyMatcherINSt7__cxx1112regex_traitsIcEELb1ELb0ELb1EEEE15_M_init_functorERSt9_Any_dataOS6_St17integral_constantIbLb1EE
FN:247,_ZNSt14_Function_base13_Base_managerINSt8__detail11_AnyMatcherINSt7__cxx1112regex_traitsIcEELb1ELb0ELb0EEEE15_M_init_functorERSt9_Any_dataOS6_St17integral_constantIbLb1EE
FNDA:0,_ZNSt14_Function_base13_Base_managerINSt8__detail11_AnyMatcherINSt7__cxx1112regex_traitsIcEELb1ELb0ELb0EEEE15_M_init_functorERSt9_Any_dataOS6_St17integral_constantIbLb1EE
FN:251,_ZNSt14_Function_base13_Base_managerINSt8__detail15_BracketMatcherINSt7__cxx1112regex_traitsIcEELb1ELb0EEEE15_M_init_functorERSt9_Any_dataOS6_St17integral_constantIbLb0EE
FNDA:0,_ZNSt14_Function_base13_Base_managerINSt8__detail15_BracketMatcherINSt7__cxx1112regex_traitsIcEELb1ELb0EEEE15_M_init_functorERSt9_Any_dataOS6_St17integral_constantIbLb0EE
FN:251,_ZNSt14_Function_base13_Base_managerINSt8__detail15_BracketMatcherINSt7__cxx1112regex_traitsIcEELb0ELb1EEEE15_M_init_functorERSt9_Any_dataOS6_St17integral_constantIbLb0EE
FNDA:0,_ZNSt14_Function_base13_Base_managerINSt8__detail15_BracketMatcherINSt7__cxx1112regex_traitsIcEELb0ELb1EEEE15_M_init_functorERSt9_Any_dataOS6_St17integral_constantIbLb0EE
FN:251,_ZNSt14_Function_base13_Base_managerINSt8__detail15_BracketMatcherINSt7__cxx1112regex_traitsIcEELb0ELb0EEEE15_M_init_functorERSt9_Any_dataOS6_St17integral_constantIbLb0EE
FNDA:1,_ZNSt14_Function_base13_Base_managerINSt8__detail15_BracketMatcherINSt7__cxx1112regex_traitsIcEELb0ELb0EEEE15_M_init_functorERSt9_Any_dataOS6_St17integral_constantIbLb0EE
FN:251,_ZNSt14_Function_base13_Base_managerINSt8__detail15_BracketMatcherINSt7__cxx1112regex_traitsIcEELb1ELb1EEEE15_M_init_functorERSt9_Any_dataOS6_St17integral_constantIbLb0EE
FNDA:0,_ZNSt14_Function_base13_Base_managerINSt8__detail15_BracketMatcherINSt7__cxx1112regex_traitsIcEELb1ELb1EEEE15_M_init_functorERSt9_Any_dataOS6_St17integral_constantIbLb0EE
FN:255,_ZNSt14_Function_baseC2Ev
FNDA:17,_ZNSt14_Function_baseC2Ev
FN:257,_ZNSt14_Function_baseD2Ev
FNDA:17,_ZNSt14_Function_baseD2Ev
FN:263,_ZNKSt14_Function_base8_M_emptyEv
FNDA:43,_ZNKSt14_Function_base8_M_emptyEv
FN:283,_ZNSt17_Function_handlerIFbcENSt8__detail11_AnyMatcherINSt7__cxx1112regex_traitsIcEELb0ELb0ELb0EEEE9_M_invokeERKSt9_Any_dataOc
FNDA:0,_ZNSt17_Function_handlerIFbcENSt8__detail11_AnyMatcherINSt7__cxx1112regex_traitsIcEELb0ELb0ELb0EEEE9_M_invokeERKSt9_Any_dataOc
FN:283,_ZNSt17_Function_handlerIFbcENSt8__detail12_CharMatcherINSt7__cxx1112regex_traitsIcEELb0ELb0EEEE9_M_invokeERKSt9_Any_dataOc
FNDA:0,_ZNSt17_Function_handlerIFbcENSt8__detail12_CharMatcherINSt7__cxx1112regex_traitsIcEELb0ELb0EEEE9_M_invokeERKSt9_Any_dataOc
FN:283,_ZNSt17_Function_handlerIFbcENSt8__detail11_AnyMatcherINSt7__cxx1112regex_traitsIcEELb0ELb0ELb1EEEE9_M_invokeERKSt9_Any_dataOc
FNDA:0,_ZNSt17_Function_handlerIFbcENSt8__detail11_AnyMatcherINSt7__cxx1112regex_traitsIcEELb0ELb0ELb1EEEE9_M_invokeERKSt9_Any_dataOc
FN:283,_ZNSt17_Function_handlerIFbcENSt8__detail11_AnyMatcherINSt7__cxx1112regex_traitsIcEELb0ELb1ELb1EEEE9_M_invokeERKSt9_Any_dataOc
FNDA:0,_ZNSt17_Function_handlerIFbcENSt8__detail11_AnyMatcherINSt7__cxx1112regex_traitsIcEELb0ELb1ELb1EEEE9_M_invokeERKSt9_Any_dataOc
FN:283,_ZNSt17_Function_handlerIFbcENSt8__detail11_AnyMatcherINSt7__cxx1112regex_traitsIcEELb1ELb1ELb0EEEE9_M_invokeERKSt9_Any_dataOc
FNDA:0,_ZNSt17_Function_handlerIFbcENSt8__detail11_AnyMatcherINSt7__cxx1112regex_traitsIcEELb1ELb1ELb0EEEE9_M_invokeERKSt9_Any_dataOc
FN:283,_ZNSt17_Function_handlerIFbcENSt8__detail12_CharMatcherINSt7__cxx1112regex_traitsIcEELb1ELb0EEEE9_M_invokeERKSt9_Any_dataOc
FNDA:0,_ZNSt17_Function_handlerIFbcENSt8__detail12_CharMatcherINSt7__cxx1112regex_traitsIcEELb1ELb0EEEE9_M_invokeERKSt9_Any_dataOc
FN:283,_ZNSt17_Function_handlerIFbcENSt8__detail12_CharMatcherINSt7__cxx1112regex_traitsIcEELb0ELb1EEEE9_M_invokeERKSt9_Any_dataOc
FNDA:0,_ZNSt17_Function_handlerIFbcENSt8__detail12_CharMatcherINSt7__cxx1112regex_traitsIcEELb0ELb1EEEE9_M_invokeERKSt9_Any_dataOc
FN:283,_ZNSt17_Function_handlerIFbcENSt8__detail11_AnyMatcherINSt7__cxx1112regex_traitsIcEELb1ELb1ELb1EEEE9_M_invokeERKSt9_Any_dataOc
FNDA:0,_ZNSt17_Function_handlerIFbcENSt8__detail11_AnyMatcherINSt7__cxx1112regex_traitsIcEELb1ELb1ELb1EEEE9_M_invokeERKSt9_Any_dataOc
FN:283,_ZNSt17_Function_handlerIFbcENSt8__detail12_CharMatcherINSt7__cxx1112regex_traitsIcEELb1ELb1EEEE9_M_invokeERKSt9_Any_dataOc
FNDA:0,_ZNSt17_Function_handlerIFbcENSt8__detail12_CharMatcherINSt7__cxx1112regex_traitsIcEELb1ELb1EEEE9_M_invokeERKSt9_Any_dataOc
FN:283,_ZNSt17_Function_handlerIFbcENSt8__detail15_BracketMatcherINSt7__cxx1112regex_traitsIcEELb0ELb0EEEE9_M_invokeERKSt9_Any_dataOc
FNDA:35,_ZNSt17_Function_handlerIFbcENSt8__detail15_BracketMatcherINSt7__cxx1112regex_traitsIcEELb0ELb0EEEE9_M_invokeERKSt9_Any_dataOc
FN:283,_ZNSt17_Function_handlerIFbcENSt8__detail15_BracketMatcherINSt7__cxx1112regex_traitsIcEELb0ELb1EEEE9_M_invokeERKSt9_Any_dataOc
FNDA:0,_ZNSt17_Function_handlerIFbcENSt8__detail15_BracketMatcherINSt7__cxx1112regex_traitsIcEELb0ELb1EEEE9_M_invokeERKSt9_Any_dataOc
FN:283,_ZNSt17_Function_handlerIFbcENSt8__detail11_AnyMatcherINSt7__cxx1112regex_traitsIcEELb1ELb0ELb1EEEE9_M_invokeERKSt9_Any_dataOc
FNDA:0,_ZNSt17_Function_handlerIFbcENSt8__detail11_AnyMatcherINSt7__cxx1112regex_traitsIcEELb1ELb0ELb1EEEE9_M_invokeERKSt9_Any_dataOc
FN:283,_ZNSt17_Function_handlerIFbcENSt8__detail15_BracketMatcherINSt7__cxx1112regex_traitsIcEELb1ELb0EEEE9_M_invokeERKSt9_Any_dataOc
FNDA:0,_ZNSt17_Function_handlerIFbcENSt8__detail15_BracketMatcherINSt7__cxx1112regex_traitsIcEELb1ELb0EEEE9_M_invokeERKSt9_Any_dataOc
FN:283,_ZNSt17_Function_handlerIFbcENSt8__detail15_BracketMatcherINSt7__cxx1112regex_traitsIcEELb1ELb1EEEE9_M_invokeERKSt9_Any_dataOc
FNDA:0,_ZNSt17_Function_handlerIFbcENSt8__detail15_BracketMatcherINSt7__cxx1112regex_traitsIcEELb1ELb1EEEE9_M_invokeERKSt9_Any_dataOc
FN:283,_ZNSt17_Function_handlerIFbcENSt8__detail11_AnyMatcherINSt7__cxx1112regex_traitsIcEELb0ELb1ELb0EEEE9_M_invokeERKSt9_Any_dataOc
FNDA:0,_ZNSt17_Function_handlerIFbcENSt8__detail11_AnyMatcherINSt7__cxx1112regex_traitsIcEELb0ELb1ELb0EEEE9_M_invokeERKSt9_Any_dataOc
FN:283,_ZNSt17_Function_handlerIFbcENSt8__detail11_AnyMatcherINSt7__cxx1112regex_traitsIcEELb1ELb0ELb0EEEE9_M_invokeERKSt9_Any_dataOc
FNDA:0,_ZNSt17_Function_handlerIFbcENSt8__detail11_AnyMatcherINSt7__cxx1112regex_traitsIcEELb1ELb0ELb0EEEE9_M_invokeERKSt9_Any_dataOc
FN:396,_ZNSt8functionIFbcEEC2Ev
FNDA:1,_ZNSt8functionIFbcEEC2Ev
FN:423,_ZNSt8functionIFbcEEC2EOS1_
FNDA:7,_ZNSt8functionIFbcEEC2EOS1_
FN:480,_ZNSt8functionIFbcEEaSEOS1_
FNDA:1,_ZNSt8functionIFbcEEaSEOS1_
FN:547,_ZNSt8functionIFbcEE4swapERS1_
FNDA:8,_ZNSt8functionIFbcEE4swapERS1_
FN:564,_ZNKSt8functionIFbcEEcvbEv
FNDA:8,_ZNKSt8functionIFbcEEcvbEv
FN:653,_ZNSt8functionIFbcEEC2ERKS1_
FNDA:8,_ZNSt8functionIFbcEEC2ERKS1_
FN:667,_ZNSt8functionIFbcEEC2INSt8__detail11_AnyMatcherINSt7__cxx1112regex_traitsIcEELb1ELb1ELb1EEEvvEET_
FNDA:0,_ZNSt8functionIFbcEEC2INSt8__detail11_AnyMatcherINSt7__cxx1112regex_traitsIcEELb1ELb1ELb1EEEvvEET_
FN:667,_ZNSt8functionIFbcEEC2INSt8__detail15_BracketMatcherINSt7__cxx1112regex_traitsIcEELb1ELb1EEEvvEET_
FNDA:0,_ZNSt8functionIFbcEEC2INSt8__detail15_BracketMatcherINSt7__cxx1112regex_traitsIcEELb1ELb1EEEvvEET_
FN:667,_ZNSt8functionIFbcEEC2INSt8__detail15_BracketMatcherINSt7__cxx1112regex_traitsIcEELb1ELb0EEEvvEET_
FNDA:0,_ZNSt8functionIFbcEEC2INSt8__detail15_BracketMatcherINSt7__cxx1112regex_traitsIcEELb1ELb0EEEvvEET_
FN:667,_ZNSt8functionIFbcEEC2INSt8__detail15_BracketMatcherINSt7__cxx1112regex_traitsIcEELb0ELb1EEEvvEET_
FNDA:0,_ZNSt8functionIFbcEEC2INSt8__detail15_BracketMatcherINSt7__cxx1112regex_traitsIcEELb0ELb1EEEvvEET_
FN:667,_ZNSt8functionIFbcEEC2INSt8__detail15_BracketMatcherINSt7__cxx1112regex_traitsIcEELb0ELb0EEEvvEET_
FNDA:1,_ZNSt8functionIFbcEEC2INSt8__detail15_BracketMatcherINSt7__cxx1112regex_traitsIcEELb0ELb0EEEvvEET_
FN:667,_ZNSt8functionIFbcEEC2INSt8__detail12_CharMatcherINSt7__cxx1112regex_traitsIcEELb1ELb1EEEvvEET_
FNDA:0,_ZNSt8functionIFbcEEC2INSt8__detail12_CharMatcherINSt7__cxx1112regex_traitsIcEELb1ELb1EEEvvEET_
FN:667,_ZNSt8functionIFbcEEC2INSt8__detail12_CharMatcherINSt7__cxx1112regex_traitsIcEELb1ELb0EEEvvEET_
FNDA:0,_ZNSt8functionIFbcEEC2INSt8__detail12_CharMatcherINSt7__cxx1112regex_traitsIcEELb1ELb0EEEvvEET_
FN:667,_ZNSt8functionIFbcEEC2INSt8__detail12_CharMatcherINSt7__cxx1112regex_traitsIcEELb0ELb1EEEvvEET_
FNDA:0,_ZNSt8functionIFbcEEC2INSt8__detail12_CharMatcherINSt7__cxx1112regex_traitsIcEELb0ELb1EEEvvEET_
FN:667,_ZNSt8functionIFbcEEC2INSt8__detail11_AnyMatcherINSt7__cxx1112regex_traitsIcEELb0ELb0ELb0EEEvvEET_
FNDA:0,_ZNSt8functionIFbcEEC2INSt8__detail11_AnyMatcherINSt7__cxx1112regex_traitsIcEELb0ELb0ELb0EEEvvEET_
FN:667,_ZNSt8functionIFbcEEC2INSt8__detail11_AnyMatcherINSt7__cxx1112regex_traitsIcEELb0ELb0ELb1EEEvvEET_
FNDA:0,_ZNSt8functionIFbcEEC2INSt8__detail11_AnyMatcherINSt7__cxx1112regex_traitsIcEELb0ELb0ELb1EEEvvEET_
FN:667,_ZNSt8functionIFbcEEC2INSt8__detail11_AnyMatcherINSt7__cxx1112regex_traitsIcEELb0ELb1ELb0EEEvvEET_
FNDA:0,_ZNSt8functionIFbcEEC2INSt8__detail11_AnyMatcherINSt7__cxx1112regex_traitsIcEELb0ELb1ELb0EEEvvEET_
FN:667,_ZNSt8functionIFbcEEC2INSt8__detail11_AnyMatcherINSt7__cxx1112regex_traitsIcEELb0ELb1ELb1EEEvvEET_
FNDA:0,_ZNSt8functionIFbcEEC2INSt8__detail11_AnyMatcherINSt7__cxx1112regex_traitsIcEELb0ELb1ELb1EEEvvEET_
FN:667,_ZNSt8functionIFbcEEC2INSt8__detail11_AnyMatcherINSt7__cxx1112regex_traitsIcEELb1ELb0ELb0EEEvvEET_
FNDA:0,_ZNSt8functionIFbcEEC2INSt8__detail11_AnyMatcherINSt7__cxx1112regex_traitsIcEELb1ELb0ELb0EEEvvEET_
FN:667,_ZNSt8functionIFbcEEC2INSt8__detail11_AnyMatcherINSt7__cxx1112regex_traitsIcEELb1ELb0ELb1EEEvvEET_
FNDA:0,_ZNSt8functionIFbcEEC2INSt8__detail11_AnyMatcherINSt7__cxx1112regex_traitsIcEELb1ELb0ELb1EEEvvEET_
FN:667,_ZNSt8functionIFbcEEC2INSt8__detail11_AnyMatcherINSt7__cxx1112regex_traitsIcEELb1ELb1ELb0EEEvvEET_
FNDA:0,_ZNSt8functionIFbcEEC2INSt8__detail11_AnyMatcherINSt7__cxx1112regex_traitsIcEELb1ELb1ELb0EEEvvEET_
FN:667,_ZNSt8functionIFbcEEC2INSt8__detail12_CharMatcherINSt7__cxx1112regex_traitsIcEELb0ELb0EEEvvEET_
FNDA:0,_ZNSt8functionIFbcEEC2INSt8__detail12_CharMatcherINSt7__cxx1112regex_traitsIcEELb0ELb0EEEvvEET_
FN:683,_ZNKSt8functionIFbcEEclEc
FNDA:35,_ZNKSt8functionIFbcEEclEc
DA:87,18
DA:88,43
DA:92,0
DA:93,0
DA:92,0
DA:93,0
DA:92,0
DA:93,0
DA:92,0
DA:93,0
DA:92,0
DA:93,0
DA:92,0
DA:93,0
DA:92,0
DA:93,0
DA:92,0
DA:93,0
DA:92,0
DA:93,0
DA:92,0
DA:93,0
DA:92,0
DA:93,0
DA:92,0
DA:93,0
DA:92,0
DA:93,0
DA:92,0
DA:93,0
DA:92,18
DA:93,18
DA:92,0
DA:93,0
DA:92,0
DA:93,0
DA:92,0
DA:93,0
DA:92,0
DA:93,0
DA:92,0
DA:93,0
DA:92,0
DA:93,0
DA:92,0
DA:93,0
DA:92,0
DA:93,0
DA:92,0
DA:93,0
DA:92,0
DA:93,0
DA:92,0
DA:93,0
DA:92,0
DA:93,0
DA:92,0
DA:93,0
DA:92,0
DA:93,0
DA:97,0
DA:98,0
DA:97,0
DA:98,0
DA:97,0
DA:98,0
DA:97,0
DA:98,0
DA:97,0
DA:98,0
DA:97,0
DA:98,0
DA:97,0
DA:98,0
DA:97,0
DA:98,0
DA:97,0
DA:98,0
DA:97,0
DA:98,0
DA:97,0
DA:98,0
DA:97,0
DA:98,0
DA:97,0
DA:98,0
DA:97,35
DA:98,35
DA:97,8
DA:98,8
DA:97,0
DA:98,0
DA:97,0
DA:98,0
DA:97,0
DA:98,0
DA:97,0
DA:98,0
DA:97,0
DA:98,0
DA:151,0
DA:159,0
DA:151,0
DA:159,0
DA:151,0
DA:159,0
DA:151,35
DA:159,35
DA:151,0
DA:155,0
DA:156,0
DA:151,0
DA:155,0
DA:156,0
DA:151,0
DA:155,0
DA:156,0
DA:151,0
DA:155,0
DA:156,0
DA:151,0
DA:155,0
DA:156,0
DA:151,0
DA:155,0
DA:156,0
DA:151,0
DA:155,0
DA:156,0
DA:151,0
DA:155,0
DA:156,0
DA:151,0
DA:155,0
DA:156,0
DA:151,0
DA:155,0
DA:156,0
DA:151,0
DA:155,0
DA:156,0
DA:151,0
DA:155,0
DA:156,0
DA:165,0
DA:167,0
DA:168,0
DA:165,0
DA:167,0
DA:168,0
DA:165,0
DA:167,0
DA:168,0
DA:165,0
DA:167,0
DA:168,0
DA:165,0
DA:167,0
DA:168,0
DA:165,0
DA:167,0
DA:168,0
DA:165,0
DA:167,0
DA:168,0
DA:165,0
DA:167,0
DA:168,0
DA:165,0
DA:167,0
DA:168,0
DA:165,0
DA:167,0
DA:168,0
DA:165,0
DA:167,0
DA:168,0
DA:165,0
DA:167,0
DA:168,0
DA:173,0
DA:175,0
DA:176,0
DA:177,0
DA:173,0
DA:175,0
DA:176,0
DA:177,0
DA:173,0
DA:175,0
DA:176,0
DA:177,0
DA:173,8
DA:175,8
DA:176,8
DA:177,8
DA:182,0
DA:184,0
DA:185,0
DA:182,0
DA:184,0
DA:185,0
DA:182,0
DA:184,0
DA:185,0
DA:182,0
DA:184,0
DA:185,0
DA:182,0
DA:184,0
DA:185,0
DA:182,0
DA:184,0
DA:185,0
DA:182,0
DA:184,0
DA:185,0
DA:182,0
DA:184,0
DA:185,0
DA:182,0
DA:184,0
DA:185,0
DA:182,0
DA:184,0
DA:185,0
DA:182,0
DA:184,0
DA:185,0
DA:182,0
DA:184,0
DA:185,0
DA:189,0
DA:191,0
DA:192,0
DA:189,0
DA:191,0
DA:192,0
DA:189,0
DA:191,0
DA:192,0
DA:189,9
DA:191,9
DA:192,9
DA:196,0
DA:199,0
DA:202,0
DA:203,0
DA:204,0
DA:206,0
DA:207,0
DA:208,0
DA:210,0
DA:211,0
DA:212,0
DA:214,0
DA:215,0
DA:216,0
DA:218,0
DA:196,0
DA:199,0
DA:202,0
DA:203,0
DA:204,0
DA:206,0
DA:207,0
DA:208,0
DA:210,0
DA:211,0
DA:212,0
DA:214,0
DA:215,0
DA:216,0
DA:218,0
DA:196,0
DA:199,0
DA:202,0
DA:203,0
DA:204,0
DA:206,0
DA:207,0
DA:208,0
DA:210,0
DA:211,0
DA:212,0
DA:214,0
DA:215,0
DA:216,0
DA:218,0
DA:196,17
DA:199,17
DA:202,0
DA:203,0
DA:204,0
DA:206,0
DA:207,0
DA:208,0
DA:210,8
DA:211,8
DA:212,8
DA:214,9
DA:215,9
DA:216,9
DA:218,17
DA:196,0
DA:199,0
DA:202,0
DA:203,0
DA:204,0
DA:206,0
DA:207,0
DA:208,0
DA:210,0
DA:211,0
DA:212,0
DA:214,0
DA:215,0
DA:216,0
DA:218,0
DA:196,0
DA:199,0
DA:202,0
DA:203,0
DA:204,0
DA:206,0
DA:207,0
DA:208,0
DA:210,0
DA:211,0
DA:212,0
DA:214,0
DA:215,0
DA:216,0
DA:218,0
DA:196,0
DA:199,0
DA:202,0
DA:203,0
DA:204,0
DA:206,0
DA:207,0
DA:208,0
DA:210,0
DA:211,0
DA:212,0
DA:214,0
DA:215,0
DA:216,0
DA:218,0
DA:196,0
DA:199,0
DA:202,0
DA:203,0
DA:204,0
DA:206,0
DA:207,0
DA:208,0
DA:210,0
DA:211,0
DA:212,0
DA:214,0
DA:215,0
DA:216,0
DA:218,0
DA:196,0
DA:199,0
DA:202,0
DA:203,0
DA:204,0
DA:206,0
DA:207,0
DA:208,0
DA:210,0
DA:211,0
DA:212,0
DA:214,0
DA:215,0
DA:216,0
DA:218,0
DA:196,0
DA:199,0
DA:202,0
DA:203,0
DA:204,0
DA:206,0
DA:207,0
DA:208,0
DA:210,0
DA:211,0
DA:212,0
DA:214,0
DA:215,0
DA:216,0
DA:218,0
DA:196,0
DA:199,0
DA:202,0
DA:203,0
DA:204,0
DA:206,0
DA:207,0
DA:208,0
DA:210,0
DA:211,0
DA:212,0
DA:214,0
DA:215,0
DA:216,0
DA:218,0
DA:196,0
DA:199,0
DA:202,0
DA:203,0
DA:204,0
DA:206,0
DA:207,0
DA:208,0
DA:210,0
DA:211,0
DA:212,0
DA:214,0
DA:215,0
DA:216,0
DA:218,0
DA:196,0
DA:199,0
DA:202,0
DA:203,0
DA:204,0
DA:206,0
DA:207,0
DA:208,0
DA:210,0
DA:211,0
DA:212,0
DA:214,0
DA:215,0
DA:216,0
DA:218,0
DA:196,0
DA:199,0
DA:202,0
DA:203,0
DA:204,0
DA:206,0
DA:207,0
DA:208,0
DA:210,0
DA:211,0
DA:212,0
DA:214,0
DA:215,0
DA:216,0
DA:218,0
DA:196,0
DA:199,0
DA:202,0
DA:203,0
DA:204,0
DA:206,0
DA:207,0
DA:208,0
DA:210,0
DA:211,0
DA:212,0
DA:214,0
DA:215,0
DA:216,0
DA:218,0
DA:196,0
DA:199,0
DA:202,0
DA:203,0
DA:204,0
DA:206,0
DA:207,0
DA:208,0
DA:210,0
DA:211,0
DA:212,0
DA:214,0
DA:215,0
DA:216,0
DA:218,0
DA:222,0
DA:223,0
DA:222,0
DA:223,0
DA:222,0
DA:223,0
DA:222,1
DA:223,1
DA:222,0
DA:223,0
DA:222,0
DA:223,0
DA:222,0
DA:223,0
DA:222,0
DA:223,0
DA:222,0
DA:223,0
DA:222,0
DA:223,0
DA:222,0
DA:223,0
DA:222,0
DA:223,0
DA:222,0
DA:223,0
DA:222,0
DA:223,0
DA:222,0
DA:223,0
DA:222,0
DA:223,0
DA:242,0
DA:243,0
DA:242,0
DA:243,0
DA:242,0
DA:243,0
DA:242,1
DA:243,1
DA:242,0
DA:243,0
DA:242,0
DA:243,0
DA:242,0
DA:243,0
DA:242,0
DA:243,0
DA:242,0
DA:243,0
DA:242,0
DA:243,0
DA:242,0
DA:243,0
DA:242,0
DA:243,0
DA:242,0
DA:243,0
DA:242,0
DA:243,0
DA:242,0
DA:243,0
DA:242,0
DA:243,0
DA:247,0
DA:248,0
DA:247,0
DA:248,0
DA:247,0
DA:248,0
DA:247,0
DA:248,0
DA:247,0
DA:248,0
DA:247,0
DA:248,0
DA:247,0
DA:248,0
DA:247,0
DA:248,0
DA:247,0
DA:248,0
DA:247,0
DA:248,0
DA:247,0
DA:248,0
DA:247,0
DA:248,0
DA:251,0
DA:252,0
DA:251,0
DA:252,0
DA:251,0
DA:252,0
DA:251,1
DA:252,1
DA:255,17
DA:257,17
DA:258,17
DA:259,17
DA:260,9
DA:261,17
DA:263,43
DA:283,0
DA:285,0
DA:286,0
DA:283,0
DA:285,0
DA:286,0
DA:283,0
DA:285,0
DA:286,0
DA:283,35
DA:285,70
DA:286,70
DA:283,0
DA:285,0
DA:286,0
DA:283,0
DA:285,0
DA:286,0
DA:283,0
DA:285,0
DA:286,0
DA:283,0
DA:285,0
DA:286,0
DA:283,0
DA:285,0
DA:286,0
DA:283,0
DA:285,0
DA:286,0
DA:283,0
DA:285,0
DA:286,0
DA:283,0
DA:285,0
DA:286,0
DA:283,0
DA:285,0
DA:286,0
DA:283,0
DA:285,0
DA:286,0
DA:283,0
DA:285,0
DA:286,0
DA:283,0
DA:285,0
DA:286,0
DA:396,1
DA:397,1
DA:423,7
DA:425,7
DA:426,7
DA:480,1
DA:482,1
DA:483,1
DA:547,8
DA:549,8
DA:550,8
DA:551,8
DA:552,8
DA:564,8
DA:565,8
DA:653,8
DA:655,8
DA:657,8
DA:659,8
DA:660,8
DA:661,8
DA:663,8
DA:667,0
DA:669,0
DA:673,0
DA:675,0
DA:676,0
DA:677,0
DA:679,0
DA:667,0
DA:669,0
DA:673,0
DA:675,0
DA:676,0
DA:677,0
DA:679,0
DA:667,0
DA:669,0
DA:673,0
DA:675,0
DA:676,0
DA:677,0
DA:679,0
DA:667,1
DA:669,1
DA:673,1
DA:675,1
DA:676,1
DA:677,1
DA:679,1
DA:667,0
DA:669,0
DA:673,0
DA:675,0
DA:676,0
DA:677,0
DA:679,0
DA:667,0
DA:669,0
DA:673,0
DA:675,0
DA:676,0
DA:677,0
DA:679,0
DA:667,0
DA:669,0
DA:673,0
DA:675,0
DA:676,0
DA:677,0
DA:679,0
DA:667,0
DA:669,0
DA:673,0
DA:675,0
DA:676,0
DA:677,0
DA:679,0
DA:667,0
DA:669,0
DA:673,0
DA:675,0
DA:676,0
DA:677,0
DA:679,0
DA:667,0
DA:669,0
DA:673,0
DA:675,0
DA:676,0
DA:677,0
DA:679,0
DA:667,0
DA:669,0
DA:673,0
DA:675,0
DA:676,0
DA:677,0
DA:679,0
DA:667,0
DA:669,0
DA:673,0
DA:675,0
DA:676,0
DA:677,0
DA:679,0
DA:667,0
DA:669,0
DA:673,0
DA:675,0
DA:676,0
DA:677,0
DA:679,0
DA:667,0
DA:669,0
DA:673,0
DA:675,0
DA:676,0
DA:677,0
DA:679,0
DA:667,0
DA:669,0
DA:673,0
DA:675,0
DA:676,0
DA:677,0
DA:679,0
DA:667,0
DA:669,0
DA:673,0
DA:675,0
DA:676,0
DA:677,0
DA:679,0
DA:683,35
DA:686,35
DA:687,0
DA:688,35
end_of_record
SF:/usr/include/c++/9/bits/stl_vector.h
FN:94,_ZNSt12_Vector_baseImSaImEE17_Vector_impl_dataC2Ev
FNDA:1,_ZNSt12_Vector_baseImSaImEE17_Vector_impl_dataC2Ev
FN:94,_ZNSt12_Vector_baseISt4pairINSt7__cxx1112basic_stringIcSt11char_traitsIcESaIcEEES6_ESaIS7_EE17_Vector_impl_dataC2Ev
FNDA:0,_ZNSt12_Vector_baseISt4pairINSt7__cxx1112basic_stringIcSt11char_traitsIcESaIcEEES6_ESaIS7_EE17_Vector_impl_dataC2Ev
FN:94,_ZNSt12_Vector_baseINSt7__cxx1112regex_traitsIcE10_RegexMaskESaIS3_EE17_Vector_impl_dataC2Ev
FNDA:9,_ZNSt12_Vector_baseINSt7__cxx1112regex_traitsIcE10_RegexMaskESaIS3_EE17_Vector_impl_dataC2Ev
FN:94,_ZNSt12_Vector_baseISt4pairIccESaIS1_EE17_Vector_impl_dataC2Ev
FNDA:9,_ZNSt12_Vector_baseISt4pairIccESaIS1_EE17_Vector_impl_dataC2Ev
FN:94,_ZNSt12_Vector_baseINSt7__cxx1112basic_stringIcSt11char_traitsIcESaIcEEESaIS5_EE17_Vector_impl_dataC2Ev
FNDA:9,_ZNSt12_Vector_baseINSt7__cxx1112basic_stringIcSt11char_traitsIcESaIcEEESaIS5_EE17_Vector_impl_dataC2Ev
FN:94,_ZNSt12_Vector_baseIcSaIcEE17_Vector_impl_dataC2Ev
FNDA:255,_ZNSt12_Vector_baseIcSaIcEE17_Vector_impl_dataC2Ev
FN:94,_ZNSt12_Vector_baseINSt7__cxx119sub_matchIN9__gnu_cxx17__normal_iteratorIPKcNS0_12basic_stringIcSt11char_traitsIcESaIcEEEEEEESaISC_EE17_Vector_impl_dataC2Ev
FNDA:53,_ZNSt12_Vector_baseINSt7__cxx119sub_matchIN9__gnu_cxx17__normal_iteratorIPKcNS0_12basic_stringIcSt11char_traitsIcESaIcEEEEEEESaISC_EE17_Vector_impl_dataC2Ev
FN:94,_ZNSt12_Vector_baseISt4pairIN9__gnu_cxx17__normal_iteratorIPKcNSt7__cxx1112basic_stringIcSt11char_traitsIcESaIcEEEEEiESaISC_EE17_Vector_impl_dataC2Ev
FNDA:17,_ZNSt12_Vector_baseISt4pairIN9__gnu_cxx17__normal_iteratorIPKcNSt7__cxx1112basic_stringIcSt11char_traitsIcESaIcEEEEEiESaISC_EE17_Vector_impl_dataC2Ev
FN:94,_ZNSt12_Vector_baseISt4pairIlSt6vectorINSt7__cxx119sub_matchIN9__gnu_cxx17__normal_iteratorIPKcNS2_12basic_stringIcSt11char_traitsIcESaIcEEEEEEESaISE_EEESaISH_EE17_Vector_impl_dataC2Ev
FNDA:0,_ZNSt12_Vector_baseISt4pairIlSt6vectorINSt7__cxx119sub_matchIN9__gnu_cxx17__normal_iteratorIPKcNS2_12basic_stringIcSt11char_traitsIcESaIcEEEEEEESaISE_EEESaISH_EE17_Vector_impl_dataC2Ev
FN:94,_ZNSt12_Vector_baseINSt8__detail6_StateIcEESaIS2_EE17_Vector_impl_dataC2Ev
FNDA:1,_ZNSt12_Vector_baseINSt8__detail6_StateIcEESaIS2_EE17_Vector_impl_dataC2Ev
FN:99,_ZNSt12_Vector_baseINSt7__cxx1112regex_traitsIcE10_RegexMaskESaIS3_EE17_Vector_impl_dataC2EOS6_
FNDA:2,_ZNSt12_Vector_baseINSt7__cxx1112regex_traitsIcE10_RegexMaskESaIS3_EE17_Vector_impl_dataC2EOS6_
FN:99,_ZNSt12_Vector_baseINSt7__cxx119sub_matchIN9__gnu_cxx17__normal_iteratorIPKcNS0_12basic_stringIcSt11char_traitsIcESaIcEEEEEEESaISC_EE17_Vector_impl_dataC2EOSF_
FNDA:0,_ZNSt12_Vector_baseINSt7__cxx119sub_matchIN9__gnu_cxx17__normal_iteratorIPKcNS0_12basic_stringIcSt11char_traitsIcESaIcEEEEEEESaISC_EE17_Vector_impl_dataC2EOSF_
FN:99,_ZNSt12_Vector_baseISt4pairIlSt6vectorINSt7__cxx119sub_matchIN9__gnu_cxx17__normal_iteratorIPKcNS2_12basic_stringIcSt11char_traitsIcESaIcEEEEEEESaISE_EEESaISH_EE17_Vector_impl_dataC2EOSK_
FNDA:0,_ZNSt12_Vector_baseISt4pairIlSt6vectorINSt7__cxx119sub_matchIN9__gnu_cxx17__normal_iteratorIPKcNS2_12basic_stringIcSt11char_traitsIcESaIcEEEEEEESaISE_EEESaISH_EE17_Vector_impl_dataC2EOSK_
FN:99,_ZNSt12_Vector_baseIcSaIcEE17_Vector_impl_dataC2EOS2_
FNDA:2,_ZNSt12_Vector_baseIcSaIcEE17_Vector_impl_dataC2EOS2_
FN:99,_ZNSt12_Vector_baseINSt7__cxx1112basic_stringIcSt11char_traitsIcESaIcEEESaIS5_EE17_Vector_impl_dataC2EOS8_
FNDA:2,_ZNSt12_Vector_baseINSt7__cxx1112basic_stringIcSt11char_traitsIcESaIcEEESaIS5_EE17_Vector_impl_dataC2EOS8_
FN:99,_ZNSt12_Vector_baseISt4pairIccESaIS1_EE17_Vector_impl_dataC2EOS4_
FNDA:2,_ZNSt12_Vector_baseISt4pairIccESaIS1_EE17_Vector_impl_dataC2EOS4_
FN:99,_ZNSt12_Vector_baseISt4pairINSt7__cxx1112basic_stringIcSt11char_traitsIcESaIcEEES6_ESaIS7_EE17_Vector_impl_dataC2EOSA_
FNDA:0,_ZNSt12_Vector_baseISt4pairINSt7__cxx1112basic_stringIcSt11char_traitsIcESaIcEEES6_ESaIS7_EE17_Vector_impl_dataC2EOSA_
FN:106,_ZNSt12_Vector_baseINSt7__cxx119sub_matchIN9__gnu_cxx17__normal_iteratorIPKcNS0_12basic_stringIcSt11char_traitsIcESaIcEEEEEEESaISC_EE17_Vector_impl_data12_M_copy_dataERKSF_
FNDA:0,_ZNSt12_Vector_baseINSt7__cxx119sub_matchIN9__gnu_cxx17__normal_iteratorIPKcNS0_12basic_stringIcSt11char_traitsIcESaIcEEEEEEESaISC_EE17_Vector_impl_data12_M_copy_dataERKSF_
FN:114,_ZNSt12_Vector_baseINSt7__cxx119sub_matchIN9__gnu_cxx17__normal_iteratorIPKcNS0_12basic_stringIcSt11char_traitsIcESaIcEEEEEEESaISC_EE17_Vector_impl_data12_M_swap_dataERSF_
FNDA:0,_ZNSt12_Vector_baseINSt7__cxx119sub_matchIN9__gnu_cxx17__normal_iteratorIPKcNS0_12basic_stringIcSt11char_traitsIcESaIcEEEEEEESaISC_EE17_Vector_impl_data12_M_swap_dataERSF_
FN:128,_ZNSt12_Vector_baseINSt7__cxx1112basic_stringIcSt11char_traitsIcESaIcEEESaIS5_EE12_Vector_implC2Ev
FNDA:1,_ZNSt12_Vector_baseINSt7__cxx1112basic_stringIcSt11char_traitsIcESaIcEEESaIS5_EE12_Vector_implC2Ev
FN:128,_ZNSt12_Vector_baseISt4pairIccESaIS1_EE12_Vector_implC2Ev
FNDA:1,_ZNSt12_Vector_baseISt4pairIccESaIS1_EE12_Vector_implC2Ev
FN:128,_ZNSt12_Vector_baseIcSaIcEE12_Vector_implC2Ev
FNDA:1,_ZNSt12_Vector_baseIcSaIcEE12_Vector_implC2Ev
FN:128,_ZNSt12_Vector_baseINSt7__cxx1112regex_traitsIcE10_RegexMaskESaIS3_EE12_Vector_implC2Ev
FNDA:1,_ZNSt12_Vector_baseINSt7__cxx1112regex_traitsIcE10_RegexMaskESaIS3_EE12_Vector_implC2Ev
FN:128,_ZNSt12_Vector_baseISt4pairINSt7__cxx1112basic_stringIcSt11char_traitsIcESaIcEEES6_ESaIS7_EE12_Vector_implC2Ev
FNDA:0,_ZNSt12_Vector_baseISt4pairINSt7__cxx1112basic_stringIcSt11char_traitsIcESaIcEEES6_ESaIS7_EE12_Vector_implC2Ev
FN:128,_ZNSt12_Vector_baseINSt8__detail6_StateIcEESaIS2_EE12_Vector_implC2Ev
FNDA:1,_ZNSt12_Vector_baseINSt8__detail6_StateIcEESaIS2_EE12_Vector_implC2Ev
FN:128,_ZNSt12_Vector_baseImSaImEE12_Vector_implC2Ev
FNDA:1,_ZNSt12_Vector_baseImSaImEE12_Vector_implC2Ev
FN:128,_ZNSt12_Vector_baseINSt7__cxx119sub_matchIN9__gnu_cxx17__normal_iteratorIPKcNS0_12basic_stringIcSt11char_traitsIcESaIcEEEEEEESaISC_EE12_Vector_implC2Ev
FNDA:17,_ZNSt12_Vector_baseINSt7__cxx119sub_matchIN9__gnu_cxx17__normal_iteratorIPKcNS0_12basic_stringIcSt11char_traitsIcESaIcEEEEEEESaISC_EE12_Vector_implC2Ev
FN:128,_ZNSt12_Vector_baseISt4pairIlSt6vectorINSt7__cxx119sub_matchIN9__gnu_cxx17__normal_iteratorIPKcNS2_12basic_stringIcSt11char_traitsIcESaIcEEEEEEESaISE_EEESaISH_EE12_Vector_implC2Ev
FNDA:0,_ZNSt12_Vector_baseISt4pairIlSt6vectorINSt7__cxx119sub_matchIN9__gnu_cxx17__normal_iteratorIPKcNS2_12basic_stringIcSt11char_traitsIcESaIcEEEEEEESaISE_EEESaISH_EE12_Vector_implC2Ev
FN:133,_ZNSt12_Vector_baseINSt7__cxx119sub_matchIN9__gnu_cxx17__normal_iteratorIPKcNS0_12basic_stringIcSt11char_traitsIcESaIcEEEEEEESaISC_EE12_Vector_implC2ERKSD_
FNDA:36,_ZNSt12_Vector_baseINSt7__cxx119sub_matchIN9__gnu_cxx17__normal_iteratorIPKcNS0_12basic_stringIcSt11char_traitsIcESaIcEEEEEEESaISC_EE12_Vector_implC2ERKSD_
FN:133,_ZNSt12_Vector_baseISt4pairIN9__gnu_cxx17__normal_iteratorIPKcNSt7__cxx1112basic_stringIcSt11char_traitsIcESaIcEEEEEiESaISC_EE12_Vector_implC2ERKSD_
FNDA:17,_ZNSt12_Vector_baseISt4pairIN9__gnu_cxx17__normal_iteratorIPKcNSt7__cxx1112basic_stringIcSt11char_traitsIcESaIcEEEEEiESaISC_EE12_Vector_implC2ERKSD_
FN:133,_ZNSt12_Vector_baseIcSaIcEE12_Vector_implC2ERKS0_
FNDA:254,_ZNSt12_Vector_baseIcSaIcEE12_Vector_implC2ERKS0_
FN:133,_ZNSt12_Vector_baseINSt7__cxx1112basic_stringIcSt11char_traitsIcESaIcEEESaIS5_EE12_Vector_implC2ERKS6_
FNDA:8,_ZNSt12_Vector_baseINSt7__cxx1112basic_stringIcSt11char_traitsIcESaIcEEESaIS5_EE12_Vector_implC2ERKS6_
FN:133,_ZNSt12_Vector_baseISt4pairIccESaIS1_EE12_Vector_implC2ERKS2_
FNDA:8,_ZNSt12_Vector_baseISt4pairIccESaIS1_EE12_Vector_implC2ERKS2_
FN:133,_ZNSt12_Vector_baseINSt7__cxx1112regex_traitsIcE10_RegexMaskESaIS3_EE12_Vector_implC2ERKS4_
FNDA:8,_ZNSt12_Vector_baseINSt7__cxx1112regex_traitsIcE10_RegexMaskESaIS3_EE12_Vector_implC2ERKS4_
FN:133,_ZNSt12_Vector_baseISt4pairINSt7__cxx1112basic_stringIcSt11char_traitsIcESaIcEEES6_ESaIS7_EE12_Vector_implC2ERKS8_
FNDA:0,_ZNSt12_Vector_baseISt4pairINSt7__cxx1112basic_stringIcSt11char_traitsIcESaIcEEES6_ESaIS7_EE12_Vector_implC2ERKS8_
FN:140,_ZNSt12_Vector_baseISt4pairIlSt6vectorINSt7__cxx119sub_matchIN9__gnu_cxx17__normal_iteratorIPKcNS2_12basic_stringIcSt11char_traitsIcESaIcEEEEEEESaISE_EEESaISH_EE12_Vector_implC2EOSK_
FNDA:0,_ZNSt12_Vector_baseISt4pairIlSt6vectorINSt7__cxx119sub_matchIN9__gnu_cxx17__normal_iteratorIPKcNS2_12basic_stringIcSt11char_traitsIcESaIcEEEEEEESaISE_EEESaISH_EE12_Vector_implC2EOSK_
FN:140,_ZNSt12_Vector_baseINSt7__cxx119sub_matchIN9__gnu_cxx17__normal_iteratorIPKcNS0_12basic_stringIcSt11char_traitsIcESaIcEEEEEEESaISC_EE12_Vector_implC2EOSF_
FNDA:0,_ZNSt12_Vector_baseINSt7__cxx119sub_matchIN9__gnu_cxx17__normal_iteratorIPKcNS0_12basic_stringIcSt11char_traitsIcESaIcEEEEEEESaISC_EE12_Vector_implC2EOSF_
FN:140,_ZNSt12_Vector_baseISt4pairINSt7__cxx1112basic_stringIcSt11char_traitsIcESaIcEEES6_ESaIS7_EE12_Vector_implC2EOSA_
FNDA:0,_ZNSt12_Vector_baseISt4pairINSt7__cxx1112basic_stringIcSt11char_traitsIcESaIcEEES6_ESaIS7_EE12_Vector_implC2EOSA_
FN:140,_ZNSt12_Vector_baseIcSaIcEE12_Vector_implC2EOS2_
FNDA:2,_ZNSt12_Vector_baseIcSaIcEE12_Vector_implC2EOS2_
FN:140,_ZNSt12_Vector_baseINSt7__cxx1112basic_stringIcSt11char_traitsIcESaIcEEESaIS5_EE12_Vector_implC2EOS8_
FNDA:2,_ZNSt12_Vector_baseINSt7__cxx1112basic_stringIcSt11char_traitsIcESaIcEEESaIS5_EE12_Vector_implC2EOS8_
FN:140,_ZNSt12_Vector_baseISt4pairIccESaIS1_EE12_Vector_implC2EOS4_
FNDA:2,_ZNSt12_Vector_baseISt4pairIccESaIS1_EE12_Vector_implC2EOS4_
FN:140,_ZNSt12_Vector_baseINSt7__cxx1112regex_traitsIcE10_RegexMaskESaIS3_EE12_Vector_implC2EOS6_
FNDA:2,_ZNSt12_Vector_baseINSt7__cxx1112regex_traitsIcE10_RegexMaskESaIS3_EE12_Vector_implC2EOS6_
FN:273,_ZNSt12_Vector_baseINSt7__cxx1112basic_stringIcSt11char_traitsIcESaIcEEESaIS5_EE19_M_get_Tp_allocatorEv
FNDA:19,_ZNSt12_Vector_baseINSt7__cxx1112basic_stringIcSt11char_traitsIcESaIcEEESaIS5_EE19_M_get_Tp_allocatorEv
FN:273,_ZNSt12_Vector_baseISt4pairIN9__gnu_cxx17__normal_iteratorIPKcNSt7__cxx1112basic_stringIcSt11char_traitsIcESaIcEEEEEiESaISC_EE19_M_get_Tp_allocatorEv
FNDA:34,_ZNSt12_Vector_baseISt4pairIN9__gnu_cxx17__normal_iteratorIPKcNSt7__cxx1112basic_stringIcSt11char_traitsIcESaIcEEEEEiESaISC_EE19_M_get_Tp_allocatorEv
FN:273,_ZNSt12_Vector_baseISt4pairIlSt6vectorINSt7__cxx119sub_matchIN9__gnu_cxx17__normal_iteratorIPKcNS2_12basic_stringIcSt11char_traitsIcESaIcEEEEEEESaISE_EEESaISH_EE19_M_get_Tp_allocatorEv
FNDA:0,_ZNSt12_Vector_baseISt4pairIlSt6vectorINSt7__cxx119sub_matchIN9__gnu_cxx17__normal_iteratorIPKcNS2_12basic_stringIcSt11char_traitsIcESaIcEEEEEEESaISE_EEESaISH_EE19_M_get_Tp_allocatorEv
FN:273,_ZNSt12_Vector_baseINSt8__detail6_StateIcEESaIS2_EE19_M_get_Tp_allocatorEv
FNDA:16,_ZNSt12_Vector_baseINSt8__detail6_StateIcEESaIS2_EE19_M_get_Tp_allocatorEv
FN:273,_ZNSt12_Vector_baseINSt7__cxx1112regex_traitsIcE10_RegexMaskESaIS3_EE19_M_get_Tp_allocatorEv
FNDA:19,_ZNSt12_Vector_baseINSt7__cxx1112regex_traitsIcE10_RegexMaskESaIS3_EE19_M_get_Tp_allocatorEv
FN:273,_ZNSt12_Vector_baseISt4pairIccESaIS1_EE19_M_get_Tp_allocatorEv
FNDA:21,_ZNSt12_Vector_baseISt4pairIccESaIS1_EE19_M_get_Tp_allocatorEv
FN:273,_ZNSt12_Vector_baseIcSaIcEE19_M_get_Tp_allocatorEv
FNDA:757,_ZNSt12_Vector_baseIcSaIcEE19_M_get_Tp_allocatorEv
FN:273,_ZNSt12_Vector_baseISt4pairINSt7__cxx1112basic_stringIcSt11char_traitsIcESaIcEEES6_ESaIS7_EE19_M_get_Tp_allocatorEv
FNDA:0,_ZNSt12_Vector_baseISt4pairINSt7__cxx1112basic_stringIcSt11char_traitsIcESaIcEEES6_ESaIS7_EE19_M_get_Tp_allocatorEv
FN:273,_ZNSt12_Vector_baseINSt7__cxx119sub_matchIN9__gnu_cxx17__normal_iteratorIPKcNS0_12basic_stringIcSt11char_traitsIcESaIcEEEEEEESaISC_EE19_M_get_Tp_allocatorEv
FNDA:141,_ZNSt12_Vector_baseINSt7__cxx119sub_matchIN9__gnu_cxx17__normal_iteratorIPKcNS0_12basic_stringIcSt11char_traitsIcESaIcEEEEEEESaISC_EE19_M_get_Tp_allocatorEv
FN:273,_ZNSt12_Vector_baseImSaImEE19_M_get_Tp_allocatorEv
FNDA:3,_ZNSt12_Vector_baseImSaImEE19_M_get_Tp_allocatorEv
FN:277,_ZNKSt12_Vector_baseISt4pairIlSt6vectorINSt7__cxx119sub_matchIN9__gnu_cxx17__normal_iteratorIPKcNS2_12basic_stringIcSt11char_traitsIcESaIcEEEEEEESaISE_EEESaISH_EE19_M_get_Tp_allocatorEv
FNDA:0,_ZNKSt12_Vector_baseISt4pairIlSt6vectorINSt7__cxx119sub_matchIN9__gnu_cxx17__normal_iteratorIPKcNS2_12basic_stringIcSt11char_traitsIcESaIcEEEEEEESaISE_EEESaISH_EE19_M_get_Tp_allocatorEv
FN:277,_ZNKSt12_Vector_baseINSt7__cxx119sub_matchIN9__gnu_cxx17__normal_iteratorIPKcNS0_12basic_stringIcSt11char_traitsIcESaIcEEEEEEESaISC_EE19_M_get_Tp_allocatorEv
FNDA:32,_ZNKSt12_Vector_baseINSt7__cxx119sub_matchIN9__gnu_cxx17__normal_iteratorIPKcNS0_12basic_stringIcSt11char_traitsIcESaIcEEEEEEESaISC_EE19_M_get_Tp_allocatorEv
FN:277,_ZNKSt12_Vector_baseINSt8__detail6_StateIcEESaIS2_EE19_M_get_Tp_allocatorEv
FNDA:10,_ZNKSt12_Vector_baseINSt8__detail6_StateIcEESaIS2_EE19_M_get_Tp_allocatorEv
FN:277,_ZNKSt12_Vector_baseINSt7__cxx1112regex_traitsIcE10_RegexMaskESaIS3_EE19_M_get_Tp_allocatorEv
FNDA:8,_ZNKSt12_Vector_baseINSt7__cxx1112regex_traitsIcE10_RegexMaskESaIS3_EE19_M_get_Tp_allocatorEv
FN:277,_ZNKSt12_Vector_baseISt4pairIccESaIS1_EE19_M_get_Tp_allocatorEv
FNDA:10,_ZNKSt12_Vector_baseISt4pairIccESaIS1_EE19_M_get_Tp_allocatorEv
FN:277,_ZNKSt12_Vector_baseINSt7__cxx1112basic_stringIcSt11char_traitsIcESaIcEEESaIS5_EE19_M_get_Tp_allocatorEv
FNDA:8,_ZNKSt12_Vector_baseINSt7__cxx1112basic_stringIcSt11char_traitsIcESaIcEEESaIS5_EE19_M_get_Tp_allocatorEv
FN:277,_ZNKSt12_Vector_baseISt4pairINSt7__cxx1112basic_stringIcSt11char_traitsIcESaIcEEES6_ESaIS7_EE19_M_get_Tp_allocatorEv
FNDA:0,_ZNKSt12_Vector_baseISt4pairINSt7__cxx1112basic_stringIcSt11char_traitsIcESaIcEEES6_ESaIS7_EE19_M_get_Tp_allocatorEv
FN:277,_ZNKSt12_Vector_baseIcSaIcEE19_M_get_Tp_allocatorEv
FNDA:8,_ZNKSt12_Vector_baseIcSaIcEE19_M_get_Tp_allocatorEv
FN:277,_ZNKSt12_Vector_baseImSaImEE19_M_get_Tp_allocatorEv
FNDA:2,_ZNKSt12_Vector_baseImSaImEE19_M_get_Tp_allocatorEv
FN:281,_ZNKSt12_Vector_baseINSt7__cxx119sub_matchIN9__gnu_cxx17__normal_iteratorIPKcNS0_12basic_stringIcSt11char_traitsIcESaIcEEEEEEESaISC_EE13get_allocatorEv
FNDA:0,_ZNKSt12_Vector_baseINSt7__cxx119sub_matchIN9__gnu_cxx17__normal_iteratorIPKcNS0_12basic_stringIcSt11char_traitsIcESaIcEEEEEEESaISC_EE13get_allocatorEv
FN:285,_ZNSt12_Vector_baseINSt8__detail6_StateIcEESaIS2_EEC2Ev
FNDA:1,_ZNSt12_Vector_baseINSt8__detail6_StateIcEESaIS2_EEC2Ev
FN:285,_ZNSt12_Vector_baseINSt7__cxx1112basic_stringIcSt11char_traitsIcESaIcEEESaIS5_EEC2Ev
FNDA:1,_ZNSt12_Vector_baseINSt7__cxx1112basic_stringIcSt11char_traitsIcESaIcEEESaIS5_EEC2Ev
FN:285,_ZNSt12_Vector_baseISt4pairIlSt6vectorINSt7__cxx119sub_matchIN9__gnu_cxx17__normal_iteratorIPKcNS2_12basic_stringIcSt11char_traitsIcESaIcEEEEEEESaISE_EEESaISH_EEC2Ev
FNDA:0,_ZNSt12_Vector_baseISt4pairIlSt6vectorINSt7__cxx119sub_matchIN9__gnu_cxx17__normal_iteratorIPKcNS2_12basic_stringIcSt11char_traitsIcESaIcEEEEEEESaISE_EEESaISH_EEC2Ev
FN:285,_ZNSt12_Vector_baseISt4pairIccESaIS1_EEC2Ev
FNDA:1,_ZNSt12_Vector_baseISt4pairIccESaIS1_EEC2Ev
FN:285,_ZNSt12_Vector_baseINSt7__cxx119sub_matchIN9__gnu_cxx17__normal_iteratorIPKcNS0_12basic_stringIcSt11char_traitsIcESaIcEEEEEEESaISC_EEC2Ev
FNDA:17,_ZNSt12_Vector_baseINSt7__cxx119sub_matchIN9__gnu_cxx17__normal_iteratorIPKcNS0_12basic_stringIcSt11char_traitsIcESaIcEEEEEEESaISC_EEC2Ev
FN:285,_ZNSt12_Vector_baseINSt7__cxx1112regex_traitsIcE10_RegexMaskESaIS3_EEC2Ev
FNDA:1,_ZNSt12_Vector_baseINSt7__cxx1112regex_traitsIcE10_RegexMaskESaIS3_EEC2Ev
FN:285,_ZNSt12_Vector_baseIcSaIcEEC2Ev
FNDA:1,_ZNSt12_Vector_baseIcSaIcEEC2Ev
FN:285,_ZNSt12_Vector_baseISt4pairINSt7__cxx1112basic_stringIcSt11char_traitsIcESaIcEEES6_ESaIS7_EEC2Ev
FNDA:0,_ZNSt12_Vector_baseISt4pairINSt7__cxx1112basic_stringIcSt11char_traitsIcESaIcEEES6_ESaIS7_EEC2Ev
FN:285,_ZNSt12_Vector_baseImSaImEEC2Ev
FNDA:1,_ZNSt12_Vector_baseImSaImEEC2Ev
FN:290,_ZNSt12_Vector_baseINSt7__cxx119sub_matchIN9__gnu_cxx17__normal_iteratorIPKcNS0_12basic_stringIcSt11char_traitsIcESaIcEEEEEEESaISC_EEC2ERKSD_
FNDA:24,_ZNSt12_Vector_baseINSt7__cxx119sub_matchIN9__gnu_cxx17__normal_iteratorIPKcNS0_12basic_stringIcSt11char_traitsIcESaIcEEEEEEESaISC_EEC2ERKSD_
FN:290,_ZNSt12_Vector_baseIcSaIcEEC2ERKS0_
FNDA:246,_ZNSt12_Vector_baseIcSaIcEEC2ERKS0_
FN:300,_ZNSt12_Vector_baseINSt7__cxx119sub_matchIN9__gnu_cxx17__normal_iteratorIPKcNS0_12basic_stringIcSt11char_traitsIcESaIcEEEEEEESaISC_EEC2EmRKSD_
FNDA:12,_ZNSt12_Vector_baseINSt7__cxx119sub_matchIN9__gnu_cxx17__normal_iteratorIPKcNS0_12basic_stringIcSt11char_traitsIcESaIcEEEEEEESaISC_EEC2EmRKSD_
FN:300,_ZNSt12_Vector_baseISt4pairINSt7__cxx1112basic_stringIcSt11char_traitsIcESaIcEEES6_ESaIS7_EEC2EmRKS8_
FNDA:0,_ZNSt12_Vector_baseISt4pairINSt7__cxx1112basic_stringIcSt11char_traitsIcESaIcEEES6_ESaIS7_EEC2EmRKS8_
FN:300,_ZNSt12_Vector_baseINSt7__cxx1112regex_traitsIcE10_RegexMaskESaIS3_EEC2EmRKS4_
FNDA:8,_ZNSt12_Vector_baseINSt7__cxx1112regex_traitsIcE10_RegexMaskESaIS3_EEC2EmRKS4_
FN:300,_ZNSt12_Vector_baseISt4pairIccESaIS1_EEC2EmRKS2_
FNDA:8,_ZNSt12_Vector_baseISt4pairIccESaIS1_EEC2EmRKS2_
FN:300,_ZNSt12_Vector_baseINSt7__cxx1112basic_stringIcSt11char_traitsIcESaIcEEESaIS5_EEC2EmRKS6_
FNDA:8,_ZNSt12_Vector_baseINSt7__cxx1112basic_stringIcSt11char_traitsIcESaIcEEESaIS5_EEC2EmRKS6_
FN:300,_ZNSt12_Vector_baseISt4pairIN9__gnu_cxx17__normal_iteratorIPKcNSt7__cxx1112basic_stringIcSt11char_traitsIcESaIcEEEEEiESaISC_EEC2EmRKSD_
FNDA:17,_ZNSt12_Vector_baseISt4pairIN9__gnu_cxx17__normal_iteratorIPKcNSt7__cxx1112basic_stringIcSt11char_traitsIcESaIcEEEEEiESaISC_EEC2EmRKSD_
FN:300,_ZNSt12_Vector_baseIcSaIcEEC2EmRKS0_
FNDA:8,_ZNSt12_Vector_baseIcSaIcEEC2EmRKS0_
FN:305,_ZNSt12_Vector_baseISt4pairIccESaIS1_EEC2EOS3_
FNDA:2,_ZNSt12_Vector_baseISt4pairIccESaIS1_EEC2EOS3_
FN:305,_ZNSt12_Vector_baseIcSaIcEEC2EOS1_
FNDA:2,_ZNSt12_Vector_baseIcSaIcEEC2EOS1_
FN:305,_ZNSt12_Vector_baseISt4pairIlSt6vectorINSt7__cxx119sub_matchIN9__gnu_cxx17__normal_iteratorIPKcNS2_12basic_stringIcSt11char_traitsIcESaIcEEEEEEESaISE_EEESaISH_EEC2EOSJ_
FNDA:0,_ZNSt12_Vector_baseISt4pairIlSt6vectorINSt7__cxx119sub_matchIN9__gnu_cxx17__normal_iteratorIPKcNS2_12basic_stringIcSt11char_traitsIcESaIcEEEEEEESaISE_EEESaISH_EEC2EOSJ_
FN:305,_ZNSt12_Vector_baseINSt7__cxx1112basic_stringIcSt11char_traitsIcESaIcEEESaIS5_EEC2EOS7_
FNDA:2,_ZNSt12_Vector_baseINSt7__cxx1112basic_stringIcSt11char_traitsIcESaIcEEESaIS5_EEC2EOS7_
FN:305,_ZNSt12_Vector_baseINSt7__cxx1112regex_traitsIcE10_RegexMaskESaIS3_EEC2EOS5_
FNDA:2,_ZNSt12_Vector_baseINSt7__cxx1112regex_traitsIcE10_RegexMaskESaIS3_EEC2EOS5_
FN:305,_ZNSt12_Vector_baseINSt7__cxx119sub_matchIN9__gnu_cxx17__normal_iteratorIPKcNS0_12basic_stringIcSt11char_traitsIcESaIcEEEEEEESaISC_EEC2EOSE_
FNDA:0,_ZNSt12_Vector_baseINSt7__cxx119sub_matchIN9__gnu_cxx17__normal_iteratorIPKcNS0_12basic_stringIcSt11char_traitsIcESaIcEEEEEEESaISC_EEC2EOSE_
FN:305,_ZNSt12_Vector_baseISt4pairINSt7__cxx1112basic_stringIcSt11char_traitsIcESaIcEEES6_ESaIS7_EEC2EOS9_
FNDA:0,_ZNSt12_Vector_baseISt4pairINSt7__cxx1112basic_stringIcSt11char_traitsIcESaIcEEES6_ESaIS7_EEC2EOS9_
FN:330,_ZNSt12_Vector_baseISt4pairINSt7__cxx1112basic_stringIcSt11char_traitsIcESaIcEEES6_ESaIS7_EED2Ev
FNDA:0,_ZNSt12_Vector_baseISt4pairINSt7__cxx1112basic_stringIcSt11char_traitsIcESaIcEEES6_ESaIS7_EED2Ev
FN:330,_ZNSt12_Vector_baseImSaImEED2Ev
FNDA:1,_ZNSt12_Vector_baseImSaImEED2Ev
FN:330,_ZNSt12_Vector_baseIcSaIcEED2Ev
FNDA:257,_ZNSt12_Vector_baseIcSaIcEED2Ev
FN:330,_ZNSt12_Vector_baseINSt7__cxx1112basic_stringIcSt11char_traitsIcESaIcEEESaIS5_EED2Ev
FNDA:11,_ZNSt12_Vector_baseINSt7__cxx1112basic_stringIcSt11char_traitsIcESaIcEEESaIS5_EED2Ev
FN:330,_ZNSt12_Vector_baseINSt7__cxx119sub_matchIN9__gnu_cxx17__normal_iteratorIPKcNS0_12basic_stringIcSt11char_traitsIcESaIcEEEEEEESaISC_EED2Ev
FNDA:53,_ZNSt12_Vector_baseINSt7__cxx119sub_matchIN9__gnu_cxx17__normal_iteratorIPKcNS0_12basic_stringIcSt11char_traitsIcESaIcEEEEEEESaISC_EED2Ev
FN:330,_ZNSt12_Vector_baseISt4pairIN9__gnu_cxx17__normal_iteratorIPKcNSt7__cxx1112basic_stringIcSt11char_traitsIcESaIcEEEEEiESaISC_EED2Ev
FNDA:17,_ZNSt12_Vector_baseISt4pairIN9__gnu_cxx17__normal_iteratorIPKcNSt7__cxx1112basic_stringIcSt11char_traitsIcESaIcEEEEEiESaISC_EED2Ev
FN:330,_ZNSt12_Vector_baseINSt8__detail6_StateIcEESaIS2_EED2Ev
FNDA:1,_ZNSt12_Vector_baseINSt8__detail6_StateIcEESaIS2_EED2Ev
FN:330,_ZNSt12_Vector_baseISt4pairIlSt6vectorINSt7__cxx119sub_matchIN9__gnu_cxx17__normal_iteratorIPKcNS2_12basic_stringIcSt11char_traitsIcESaIcEEEEEEESaISE_EEESaISH_EED2Ev
FNDA:0,_ZNSt12_Vector_baseISt4pairIlSt6vectorINSt7__cxx119sub_matchIN9__gnu_cxx17__normal_iteratorIPKcNS2_12basic_stringIcSt11char_traitsIcESaIcEEEEEEESaISE_EEESaISH_EED2Ev
FN:330,_ZNSt12_Vector_baseINSt7__cxx1112regex_traitsIcE10_RegexMaskESaIS3_EED2Ev
FNDA:11,_ZNSt12_Vector_baseINSt7__cxx1112regex_traitsIcE10_RegexMaskESaIS3_EED2Ev
FN:330,_ZNSt12_Vector_baseISt4pairIccESaIS1_EED2Ev
FNDA:11,_ZNSt12_Vector_baseISt4pairIccESaIS1_EED2Ev
FN:340,_ZNSt12_Vector_baseISt4pairINSt7__cxx1112basic_stringIcSt11char_traitsIcESaIcEEES6_ESaIS7_EE11_M_allocateEm
FNDA:0,_ZNSt12_Vector_baseISt4pairINSt7__cxx1112basic_stringIcSt11char_traitsIcESaIcEEES6_ESaIS7_EE11_M_allocateEm
FN:340,_ZNSt12_Vector_baseINSt7__cxx119sub_matchIN9__gnu_cxx17__normal_iteratorIPKcNS0_12basic_stringIcSt11char_traitsIcESaIcEEEEEEESaISC_EE11_M_allocateEm
FNDA:34,_ZNSt12_Vector_baseINSt7__cxx119sub_matchIN9__gnu_cxx17__normal_iteratorIPKcNS0_12basic_stringIcSt11char_traitsIcESaIcEEEEEEESaISC_EE11_M_allocateEm
FN:340,_ZNSt12_Vector_baseISt4pairIlSt6vectorINSt7__cxx119sub_matchIN9__gnu_cxx17__normal_iteratorIPKcNS2_12basic_stringIcSt11char_traitsIcESaIcEEEEEEESaISE_EEESaISH_EE11_M_allocateEm
FNDA:0,_ZNSt12_Vector_baseISt4pairIlSt6vectorINSt7__cxx119sub_matchIN9__gnu_cxx17__normal_iteratorIPKcNS2_12basic_stringIcSt11char_traitsIcESaIcEEEEEEESaISE_EEESaISH_EE11_M_allocateEm
FN:340,_ZNSt12_Vector_baseINSt8__detail6_StateIcEESaIS2_EE11_M_allocateEm
FNDA:5,_ZNSt12_Vector_baseINSt8__detail6_StateIcEESaIS2_EE11_M_allocateEm
FN:340,_ZNSt12_Vector_baseINSt7__cxx1112basic_stringIcSt11char_traitsIcESaIcEEESaIS5_EE11_M_allocateEm
FNDA:8,_ZNSt12_Vector_baseINSt7__cxx1112basic_stringIcSt11char_traitsIcESaIcEEESaIS5_EE11_M_allocateEm
FN:340,_ZNSt12_Vector_baseIcSaIcEE11_M_allocateEm
FNDA:254,_ZNSt12_Vector_baseIcSaIcEE11_M_allocateEm
FN:340,_ZNSt12_Vector_baseISt4pairIN9__gnu_cxx17__normal_iteratorIPKcNSt7__cxx1112basic_stringIcSt11char_traitsIcESaIcEEEEEiESaISC_EE11_M_allocateEm
FNDA:17,_ZNSt12_Vector_baseISt4pairIN9__gnu_cxx17__normal_iteratorIPKcNSt7__cxx1112basic_stringIcSt11char_traitsIcESaIcEEEEEiESaISC_EE11_M_allocateEm
FN:340,_ZNSt12_Vector_baseINSt7__cxx1112regex_traitsIcE10_RegexMaskESaIS3_EE11_M_allocateEm
FNDA:8,_ZNSt12_Vector_baseINSt7__cxx1112regex_traitsIcE10_RegexMaskESaIS3_EE11_M_allocateEm
FN:340,_ZNSt12_Vector_baseISt4pairIccESaIS1_EE11_M_allocateEm
FNDA:9,_ZNSt12_Vector_baseISt4pairIccESaIS1_EE11_M_allocateEm
FN:340,_ZNSt12_Vector_baseImSaImEE11_M_allocateEm
FNDA:1,_ZNSt12_Vector_baseImSaImEE11_M_allocateEm
FN:347,_ZNSt12_Vector_baseINSt7__cxx119sub_matchIN9__gnu_cxx17__normal_iteratorIPKcNS0_12basic_stringIcSt11char_traitsIcESaIcEEEEEEESaISC_EE13_M_deallocateEPSC_m
FNDA:75,_ZNSt12_Vector_baseINSt7__cxx119sub_matchIN9__gnu_cxx17__normal_iteratorIPKcNS0_12basic_stringIcSt11char_traitsIcESaIcEEEEEEESaISC_EE13_M_deallocateEPSC_m
FN:347,_ZNSt12_Vector_baseINSt7__cxx1112regex_traitsIcE10_RegexMaskESaIS3_EE13_M_deallocateEPS3_m
FNDA:11,_ZNSt12_Vector_baseINSt7__cxx1112regex_traitsIcE10_RegexMaskESaIS3_EE13_M_deallocateEPS3_m
FN:347,_ZNSt12_Vector_baseISt4pairINSt7__cxx1112basic_stringIcSt11char_traitsIcESaIcEEES6_ESaIS7_EE13_M_deallocateEPS7_m
FNDA:0,_ZNSt12_Vector_baseISt4pairINSt7__cxx1112basic_stringIcSt11char_traitsIcESaIcEEES6_ESaIS7_EE13_M_deallocateEPS7_m
FN:347,_ZNSt12_Vector_baseISt4pairIccESaIS1_EE13_M_deallocateEPS1_m
FNDA:12,_ZNSt12_Vector_baseISt4pairIccESaIS1_EE13_M_deallocateEPS1_m
FN:347,_ZNSt12_Vector_baseINSt7__cxx1112basic_stringIcSt11char_traitsIcESaIcEEESaIS5_EE13_M_deallocateEPS5_m
FNDA:11,_ZNSt12_Vector_baseINSt7__cxx1112basic_stringIcSt11char_traitsIcESaIcEEESaIS5_EE13_M_deallocateEPS5_m
FN:347,_ZNSt12_Vector_baseIcSaIcEE13_M_deallocateEPcm
FNDA:257,_ZNSt12_Vector_baseIcSaIcEE13_M_deallocateEPcm
FN:347,_ZNSt12_Vector_baseImSaImEE13_M_deallocateEPmm
FNDA:2,_ZNSt12_Vector_baseImSaImEE13_M_deallocateEPmm
FN:347,_ZNSt12_Vector_baseINSt8__detail6_StateIcEESaIS2_EE13_M_deallocateEPS2_m
FNDA:6,_ZNSt12_Vector_baseINSt8__detail6_StateIcEESaIS2_EE13_M_deallocateEPS2_m
FN:347,_ZNSt12_Vector_baseISt4pairIN9__gnu_cxx17__normal_iteratorIPKcNSt7__cxx1112basic_stringIcSt11char_traitsIcESaIcEEEEEiESaISC_EE13_M_deallocateEPSC_m
FNDA:17,_ZNSt12_Vector_baseISt4pairIN9__gnu_cxx17__normal_iteratorIPKcNSt7__cxx1112basic_stringIcSt11char_traitsIcESaIcEEEEEiESaISC_EE13_M_deallocateEPSC_m
FN:347,_ZNSt12_Vector_baseISt4pairIlSt6vectorINSt7__cxx119sub_matchIN9__gnu_cxx17__normal_iteratorIPKcNS2_12basic_stringIcSt11char_traitsIcESaIcEEEEEEESaISE_EEESaISH_EE13_M_deallocateEPSH_m
FNDA:0,_ZNSt12_Vector_baseISt4pairIlSt6vectorINSt7__cxx119sub_matchIN9__gnu_cxx17__normal_iteratorIPKcNS2_12basic_stringIcSt11char_traitsIcESaIcEEEEEEESaISE_EEESaISH_EE13_M_deallocateEPSH_m
FN:356,_ZNSt12_Vector_baseIcSaIcEE17_M_create_storageEm
FNDA:8,_ZNSt12_Vector_baseIcSaIcEE17_M_create_storageEm
FN:356,_ZNSt12_Vector_baseINSt7__cxx1112basic_stringIcSt11char_traitsIcESaIcEEESaIS5_EE17_M_create_storageEm
FNDA:8,_ZNSt12_Vector_baseINSt7__cxx1112basic_stringIcSt11char_traitsIcESaIcEEESaIS5_EE17_M_create_storageEm
FN:356,_ZNSt12_Vector_baseISt4pairIccESaIS1_EE17_M_create_storageEm
FNDA:8,_ZNSt12_Vector_baseISt4pairIccESaIS1_EE17_M_create_storageEm
FN:356,_ZNSt12_Vector_baseINSt7__cxx1112regex_traitsIcE10_RegexMaskESaIS3_EE17_M_create_storageEm
FNDA:8,_ZNSt12_Vector_baseINSt7__cxx1112regex_traitsIcE10_RegexMaskESaIS3_EE17_M_create_storageEm
FN:356,_ZNSt12_Vector_baseINSt7__cxx119sub_matchIN9__gnu_cxx17__normal_iteratorIPKcNS0_12basic_stringIcSt11char_traitsIcESaIcEEEEEEESaISC_EE17_M_create_storageEm
FNDA:12,_ZNSt12_Vector_baseINSt7__cxx119sub_matchIN9__gnu_cxx17__normal_iteratorIPKcNS0_12basic_stringIcSt11char_traitsIcESaIcEEEEEEESaISC_EE17_M_create_storageEm
FN:356,_ZNSt12_Vector_baseISt4pairINSt7__cxx1112basic_stringIcSt11char_traitsIcESaIcEEES6_ESaIS7_EE17_M_create_storageEm
FNDA:0,_ZNSt12_Vector_baseISt4pairINSt7__cxx1112basic_stringIcSt11char_traitsIcESaIcEEES6_ESaIS7_EE17_M_create_storageEm
FN:356,_ZNSt12_Vector_baseISt4pairIN9__gnu_cxx17__normal_iteratorIPKcNSt7__cxx1112basic_stringIcSt11char_traitsIcESaIcEEEEEiESaISC_EE17_M_create_storageEm
FNDA:17,_ZNSt12_Vector_baseISt4pairIN9__gnu_cxx17__normal_iteratorIPKcNSt7__cxx1112basic_stringIcSt11char_traitsIcESaIcEEEEEiESaISC_EE17_M_create_storageEm
FN:428,_ZNSt6vectorINSt7__cxx1112basic_stringIcSt11char_traitsIcESaIcEEESaIS5_EE19_S_nothrow_relocateESt17integral_constantIbLb1EE
FNDA:0,_ZNSt6vectorINSt7__cxx1112basic_stringIcSt11char_traitsIcESaIcEEESaIS5_EE19_S_nothrow_relocateESt17integral_constantIbLb1EE
FN:428,_ZNSt6vectorINSt7__cxx119sub_matchIN9__gnu_cxx17__normal_iteratorIPKcNS0_12basic_stringIcSt11char_traitsIcESaIcEEEEEEESaISC_EE19_S_nothrow_relocateESt17integral_constantIbLb1EE
FNDA:5,_ZNSt6vectorINSt7__cxx119sub_matchIN9__gnu_cxx17__normal_iteratorIPKcNS0_12basic_stringIcSt11char_traitsIcESaIcEEEEEEESaISC_EE19_S_nothrow_relocateESt17integral_constantIbLb1EE
FN:428,_ZNSt6vectorIcSaIcEE19_S_nothrow_relocateESt17integral_constantIbLb1EE
FNDA:0,_ZNSt6vectorIcSaIcEE19_S_nothrow_relocateESt17integral_constantIbLb1EE
FN:428,_ZNSt6vectorISt4pairINSt7__cxx1112basic_stringIcSt11char_traitsIcESaIcEEES6_ESaIS7_EE19_S_nothrow_relocateESt17integral_constantIbLb1EE
FNDA:0,_ZNSt6vectorISt4pairINSt7__cxx1112basic_stringIcSt11char_traitsIcESaIcEEES6_ESaIS7_EE19_S_nothrow_relocateESt17integral_constantIbLb1EE
FN:428,_ZNSt6vectorINSt7__cxx1112regex_traitsIcE10_RegexMaskESaIS3_EE19_S_nothrow_relocateESt17integral_constantIbLb1EE
FNDA:0,_ZNSt6vectorINSt7__cxx1112regex_traitsIcE10_RegexMaskESaIS3_EE19_S_nothrow_relocateESt17integral_constantIbLb1EE
FN:428,_ZNSt6vectorINSt8__detail6_StateIcEESaIS2_EE19_S_nothrow_relocateESt17integral_constantIbLb1EE
FNDA:10,_ZNSt6vectorINSt8__detail6_StateIcEESaIS2_EE19_S_nothrow_relocateESt17integral_constantIbLb1EE
FN:428,_ZNSt6vectorISt4pairIccESaIS1_EE19_S_nothrow_relocateESt17integral_constantIbLb1EE
FNDA:2,_ZNSt6vectorISt4pairIccESaIS1_EE19_S_nothrow_relocateESt17integral_constantIbLb1EE
FN:428,_ZNSt6vectorImSaImEE19_S_nothrow_relocateESt17integral_constantIbLb1EE
FNDA:2,_ZNSt6vectorImSaImEE19_S_nothrow_relocateESt17integral_constantIbLb1EE
FN:428,_ZNSt6vectorISt4pairIlS_INSt7__cxx119sub_matchIN9__gnu_cxx17__normal_iteratorIPKcNS1_12basic_stringIcSt11char_traitsIcESaIcEEEEEEESaISD_EEESaISG_EE19_S_nothrow_relocateESt17integral_constantIbLb1EE
FNDA:0,_ZNSt6vectorISt4pairIlS_INSt7__cxx119sub_matchIN9__gnu_cxx17__normal_iteratorIPKcNS1_12basic_stringIcSt11char_traitsIcESaIcEEEEEEESaISD_EEESaISG_EE19_S_nothrow_relocateESt17integral_constantIbLb1EE
FN:441,_ZNSt6vectorINSt8__detail6_StateIcEESaIS2_EE15_S_use_relocateEv
FNDA:10,_ZNSt6vectorINSt8__detail6_StateIcEESaIS2_EE15_S_use_relocateEv
FN:441,_ZNSt6vectorINSt7__cxx119sub_matchIN9__gnu_cxx17__normal_iteratorIPKcNS0_12basic_stringIcSt11char_traitsIcESaIcEEEEEEESaISC_EE15_S_use_relocateEv
FNDA:5,_ZNSt6vectorINSt7__cxx119sub_matchIN9__gnu_cxx17__normal_iteratorIPKcNS0_12basic_stringIcSt11char_traitsIcESaIcEEEEEEESaISC_EE15_S_use_relocateEv
FN:441,_ZNSt6vectorImSaImEE15_S_use_relocateEv
FNDA:2,_ZNSt6vectorImSaImEE15_S_use_relocateEv
FN:441,_ZNSt6vectorISt4pairIlS_INSt7__cxx119sub_matchIN9__gnu_cxx17__normal_iteratorIPKcNS1_12basic_stringIcSt11char_traitsIcESaIcEEEEEEESaISD_EEESaISG_EE15_S_use_relocateEv
FNDA:0,_ZNSt6vectorISt4pairIlS_INSt7__cxx119sub_matchIN9__gnu_cxx17__normal_iteratorIPKcNS1_12basic_stringIcSt11char_traitsIcESaIcEEEEEEESaISD_EEESaISG_EE15_S_use_relocateEv
FN:441,_ZNSt6vectorINSt7__cxx1112basic_stringIcSt11char_traitsIcESaIcEEESaIS5_EE15_S_use_relocateEv
FNDA:0,_ZNSt6vectorINSt7__cxx1112basic_stringIcSt11char_traitsIcESaIcEEESaIS5_EE15_S_use_relocateEv
FN:441,_ZNSt6vectorISt4pairIccESaIS1_EE15_S_use_relocateEv
FNDA:2,_ZNSt6vectorISt4pairIccESaIS1_EE15_S_use_relocateEv
FN:441,_ZNSt6vectorINSt7__cxx1112regex_traitsIcE10_RegexMaskESaIS3_EE15_S_use_relocateEv
FNDA:0,_ZNSt6vectorINSt7__cxx1112regex_traitsIcE10_RegexMaskESaIS3_EE15_S_use_relocateEv
FN:441,_ZNSt6vectorIcSaIcEE15_S_use_relocateEv
FNDA:0,_ZNSt6vectorIcSaIcEE15_S_use_relocateEv
FN:441,_ZNSt6vectorISt4pairINSt7__cxx1112basic_stringIcSt11char_traitsIcESaIcEEES6_ESaIS7_EE15_S_use_relocateEv
FNDA:0,_ZNSt6vectorISt4pairINSt7__cxx1112basic_stringIcSt11char_traitsIcESaIcEEES6_ESaIS7_EE15_S_use_relocateEv
FN:450,_ZNSt6vectorImSaImEE14_S_do_relocateEPmS2_S2_RS0_St17integral_constantIbLb1EE
FNDA:2,_ZNSt6vectorImSaImEE14_S_do_relocateEPmS2_S2_RS0_St17integral_constantIbLb1EE
FN:450,_ZNSt6vectorINSt7__cxx119sub_matchIN9__gnu_cxx17__normal_iteratorIPKcNS0_12basic_stringIcSt11char_traitsIcESaIcEEEEEEESaISC_EE14_S_do_relocateEPSC_SF_SF_RSD_St17integral_constantIbLb1EE
FNDA:5,_ZNSt6vectorINSt7__cxx119sub_matchIN9__gnu_cxx17__normal_iteratorIPKcNS0_12basic_stringIcSt11char_traitsIcESaIcEEEEEEESaISC_EE14_S_do_relocateEPSC_SF_SF_RSD_St17integral_constantIbLb1EE
FN:450,_ZNSt6vectorINSt7__cxx1112basic_stringIcSt11char_traitsIcESaIcEEESaIS5_EE14_S_do_relocateEPS5_S8_S8_RS6_St17integral_constantIbLb1EE
FNDA:0,_ZNSt6vectorINSt7__cxx1112basic_stringIcSt11char_traitsIcESaIcEEESaIS5_EE14_S_do_relocateEPS5_S8_S8_RS6_St17integral_constantIbLb1EE
FN:450,_ZNSt6vectorISt4pairIccESaIS1_EE14_S_do_relocateEPS1_S4_S4_RS2_St17integral_constantIbLb1EE
FNDA:2,_ZNSt6vectorISt4pairIccESaIS1_EE14_S_do_relocateEPS1_S4_S4_RS2_St17integral_constantIbLb1EE
FN:450,_ZNSt6vectorIcSaIcEE14_S_do_relocateEPcS2_S2_RS0_St17integral_constantIbLb1EE
FNDA:0,_ZNSt6vectorIcSaIcEE14_S_do_relocateEPcS2_S2_RS0_St17integral_constantIbLb1EE
FN:450,_ZNSt6vectorINSt7__cxx1112regex_traitsIcE10_RegexMaskESaIS3_EE14_S_do_relocateEPS3_S6_S6_RS4_St17integral_constantIbLb1EE
FNDA:0,_ZNSt6vectorINSt7__cxx1112regex_traitsIcE10_RegexMaskESaIS3_EE14_S_do_relocateEPS3_S6_S6_RS4_St17integral_constantIbLb1EE
FN:450,_ZNSt6vectorISt4pairIlS_INSt7__cxx119sub_matchIN9__gnu_cxx17__normal_iteratorIPKcNS1_12basic_stringIcSt11char_traitsIcESaIcEEEEEEESaISD_EEESaISG_EE14_S_do_relocateEPSG_SJ_SJ_RSH_St17integral_constantIbLb1EE
FNDA:0,_ZNSt6vectorISt4pairIlS_INSt7__cxx119sub_matchIN9__gnu_cxx17__normal_iteratorIPKcNS1_12basic_stringIcSt11char_traitsIcESaIcEEEEEEESaISD_EEESaISG_EE14_S_do_relocateEPSG_SJ_SJ_RSH_St17integral_constantIbLb1EE
FN:450,_ZNSt6vectorISt4pairINSt7__cxx1112basic_stringIcSt11char_traitsIcESaIcEEES6_ESaIS7_EE14_S_do_relocateEPS7_SA_SA_RS8_St17integral_constantIbLb1EE
FNDA:0,_ZNSt6vectorISt4pairINSt7__cxx1112basic_stringIcSt11char_traitsIcESaIcEEES6_ESaIS7_EE14_S_do_relocateEPS7_SA_SA_RS8_St17integral_constantIbLb1EE
FN:457,_ZNSt6vectorINSt8__detail6_StateIcEESaIS2_EE14_S_do_relocateEPS2_S5_S5_RS3_St17integral_constantIbLb0EE
FNDA:0,_ZNSt6vectorINSt8__detail6_StateIcEESaIS2_EE14_S_do_relocateEPS2_S5_S5_RS3_St17integral_constantIbLb0EE
FN:462,_ZNSt6vectorISt4pairIccESaIS1_EE11_S_relocateEPS1_S4_S4_RS2_
FNDA:2,_ZNSt6vectorISt4pairIccESaIS1_EE11_S_relocateEPS1_S4_S4_RS2_
FN:462,_ZNSt6vectorINSt8__detail6_StateIcEESaIS2_EE11_S_relocateEPS2_S5_S5_RS3_
FNDA:0,_ZNSt6vectorINSt8__detail6_StateIcEESaIS2_EE11_S_relocateEPS2_S5_S5_RS3_
FN:462,_ZNSt6vectorISt4pairINSt7__cxx1112basic_stringIcSt11char_traitsIcESaIcEEES6_ESaIS7_EE11_S_relocateEPS7_SA_SA_RS8_
FNDA:0,_ZNSt6vectorISt4pairINSt7__cxx1112basic_stringIcSt11char_traitsIcESaIcEEES6_ESaIS7_EE11_S_relocateEPS7_SA_SA_RS8_
FN:462,_ZNSt6vectorISt4pairIlS_INSt7__cxx119sub_matchIN9__gnu_cxx17__normal_iteratorIPKcNS1_12basic_stringIcSt11char_traitsIcESaIcEEEEEEESaISD_EEESaISG_EE11_S_relocateEPSG_SJ_SJ_RSH_
FNDA:0,_ZNSt6vectorISt4pairIlS_INSt7__cxx119sub_matchIN9__gnu_cxx17__normal_iteratorIPKcNS1_12basic_stringIcSt11char_traitsIcESaIcEEEEEEESaISD_EEESaISG_EE11_S_relocateEPSG_SJ_SJ_RSH_
FN:462,_ZNSt6vectorIcSaIcEE11_S_relocateEPcS2_S2_RS0_
FNDA:0,_ZNSt6vectorIcSaIcEE11_S_relocateEPcS2_S2_RS0_
FN:462,_ZNSt6vectorINSt7__cxx1112regex_traitsIcE10_RegexMaskESaIS3_EE11_S_relocateEPS3_S6_S6_RS4_
FNDA:0,_ZNSt6vectorINSt7__cxx1112regex_traitsIcE10_RegexMaskESaIS3_EE11_S_relocateEPS3_S6_S6_RS4_
FN:462,_ZNSt6vectorImSaImEE11_S_relocateEPmS2_S2_RS0_
FNDA:2,_ZNSt6vectorImSaImEE11_S_relocateEPmS2_S2_RS0_
FN:462,_ZNSt6vectorINSt7__cxx1112basic_stringIcSt11char_traitsIcESaIcEEESaIS5_EE11_S_relocateEPS5_S8_S8_RS6_
FNDA:0,_ZNSt6vectorINSt7__cxx1112basic_stringIcSt11char_traitsIcESaIcEEESaIS5_EE11_S_relocateEPS5_S8_S8_RS6_
FN:462,_ZNSt6vectorINSt7__cxx119sub_matchIN9__gnu_cxx17__normal_iteratorIPKcNS0_12basic_stringIcSt11char_traitsIcESaIcEEEEEEESaISC_EE11_S_relocateEPSC_SF_SF_RSD_
FNDA:5,_ZNSt6vectorINSt7__cxx119sub_matchIN9__gnu_cxx17__normal_iteratorIPKcNS0_12basic_stringIcSt11char_traitsIcESaIcEEEEEEESaISC_EE11_S_relocateEPSC_SF_SF_RSD_
FN:484,_ZNSt6vectorINSt7__cxx119sub_matchIN9__gnu_cxx17__normal_iteratorIPKcNS0_12basic_stringIcSt11char_traitsIcESaIcEEEEEEESaISC_EEC2Ev
FNDA:17,_ZNSt6vectorINSt7__cxx119sub_matchIN9__gnu_cxx17__normal_iteratorIPKcNS0_12basic_stringIcSt11char_traitsIcESaIcEEEEEEESaISC_EEC2Ev
FN:484,_ZNSt6vectorISt4pairINSt7__cxx1112basic_stringIcSt11char_traitsIcESaIcEEES6_ESaIS7_EEC2Ev
FNDA:0,_ZNSt6vectorISt4pairINSt7__cxx1112basic_stringIcSt11char_traitsIcESaIcEEES6_ESaIS7_EEC2Ev
FN:484,_ZNSt6vectorIcSaIcEEC2Ev
FNDA:1,_ZNSt6vectorIcSaIcEEC2Ev
FN:484,_ZNSt6vectorINSt7__cxx1112basic_stringIcSt11char_traitsIcESaIcEEESaIS5_EEC2Ev
FNDA:1,_ZNSt6vectorINSt7__cxx1112basic_stringIcSt11char_traitsIcESaIcEEESaIS5_EEC2Ev
FN:484,_ZNSt6vectorISt4pairIccESaIS1_EEC2Ev
FNDA:1,_ZNSt6vectorISt4pairIccESaIS1_EEC2Ev
FN:484,_ZNSt6vectorISt4pairIlS_INSt7__cxx119sub_matchIN9__gnu_cxx17__normal_iteratorIPKcNS1_12basic_stringIcSt11char_traitsIcESaIcEEEEEEESaISD_EEESaISG_EEC2Ev
FNDA:0,_ZNSt6vectorISt4pairIlS_INSt7__cxx119sub_matchIN9__gnu_cxx17__normal_iteratorIPKcNS1_12basic_stringIcSt11char_traitsIcESaIcEEEEEEESaISD_EEESaISG_EEC2Ev
FN:484,_ZNSt6vectorINSt7__cxx1112regex_traitsIcE10_RegexMaskESaIS3_EEC2Ev
FNDA:1,_ZNSt6vectorINSt7__cxx1112regex_traitsIcE10_RegexMaskESaIS3_EEC2Ev
FN:484,_ZNSt6vectorINSt8__detail6_StateIcEESaIS2_EEC2Ev
FNDA:1,_ZNSt6vectorINSt8__detail6_StateIcEESaIS2_EEC2Ev
FN:484,_ZNSt6vectorImSaImEEC2Ev
FNDA:1,_ZNSt6vectorImSaImEEC2Ev
FN:494,_ZNSt6vectorINSt7__cxx119sub_matchIN9__gnu_cxx17__normal_iteratorIPKcNS0_12basic_stringIcSt11char_traitsIcESaIcEEEEEEESaISC_EEC2ERKSD_
FNDA:24,_ZNSt6vectorINSt7__cxx119sub_matchIN9__gnu_cxx17__normal_iteratorIPKcNS0_12basic_stringIcSt11char_traitsIcESaIcEEEEEEESaISC_EEC2ERKSD_
FN:507,_ZNSt6vectorISt4pairIN9__gnu_cxx17__normal_iteratorIPKcNSt7__cxx1112basic_stringIcSt11char_traitsIcESaIcEEEEEiESaISC_EEC2EmRKSD_
FNDA:17,_ZNSt6vectorISt4pairIN9__gnu_cxx17__normal_iteratorIPKcNSt7__cxx1112basic_stringIcSt11char_traitsIcESaIcEEEEEiESaISC_EEC2EmRKSD_
FN:550,_ZNSt6vectorISt4pairIccESaIS1_EEC2ERKS3_
FNDA:8,_ZNSt6vectorISt4pairIccESaIS1_EEC2ERKS3_
FN:550,_ZNSt6vectorIcSaIcEEC2ERKS1_
FNDA:8,_ZNSt6vectorIcSaIcEEC2ERKS1_
FN:550,_ZNSt6vectorINSt7__cxx1112regex_traitsIcE10_RegexMaskESaIS3_EEC2ERKS5_
FNDA:8,_ZNSt6vectorINSt7__cxx1112regex_traitsIcE10_RegexMaskESaIS3_EEC2ERKS5_
FN:550,_ZNSt6vectorINSt7__cxx1112basic_stringIcSt11char_traitsIcESaIcEEESaIS5_EEC2ERKS7_
FNDA:8,_ZNSt6vectorINSt7__cxx1112basic_stringIcSt11char_traitsIcESaIcEEESaIS5_EEC2ERKS7_
FN:550,_ZNSt6vectorISt4pairINSt7__cxx1112basic_stringIcSt11char_traitsIcESaIcEEES6_ESaIS7_EEC2ERKS9_
FNDA:0,_ZNSt6vectorISt4pairINSt7__cxx1112basic_stringIcSt11char_traitsIcESaIcEEES6_ESaIS7_EEC2ERKS9_
FN:550,_ZNSt6vectorINSt7__cxx119sub_matchIN9__gnu_cxx17__normal_iteratorIPKcNS0_12basic_stringIcSt11char_traitsIcESaIcEEEEEEESaISC_EEC2ERKSE_
FNDA:12,_ZNSt6vectorINSt7__cxx119sub_matchIN9__gnu_cxx17__normal_iteratorIPKcNS0_12basic_stringIcSt11char_traitsIcESaIcEEEEEEESaISC_EEC2ERKSE_
FN:569,_ZNSt6vectorINSt7__cxx119sub_matchIN9__gnu_cxx17__normal_iteratorIPKcNS0_12basic_stringIcSt11char_traitsIcESaIcEEEEEEESaISC_EEC2EOSE_
FNDA:0,_ZNSt6vectorINSt7__cxx119sub_matchIN9__gnu_cxx17__normal_iteratorIPKcNS0_12basic_stringIcSt11char_traitsIcESaIcEEEEEEESaISC_EEC2EOSE_
FN:569,_ZNSt6vectorIcSaIcEEC2EOS1_
FNDA:2,_ZNSt6vectorIcSaIcEEC2EOS1_
FN:569,_ZNSt6vectorINSt7__cxx1112basic_stringIcSt11char_traitsIcESaIcEEESaIS5_EEC2EOS7_
FNDA:2,_ZNSt6vectorINSt7__cxx1112basic_stringIcSt11char_traitsIcESaIcEEESaIS5_EEC2EOS7_
FN:569,_ZNSt6vectorISt4pairIccESaIS1_EEC2EOS3_
FNDA:2,_ZNSt6vectorISt4pairIccESaIS1_EEC2EOS3_
FN:569,_ZNSt6vectorINSt7__cxx1112regex_traitsIcE10_RegexMaskESaIS3_EEC2EOS5_
FNDA:2,_ZNSt6vectorINSt7__cxx1112regex_traitsIcE10_RegexMaskESaIS3_EEC2EOS5_
FN:569,_ZNSt6vectorISt4pairINSt7__cxx1112basic_stringIcSt11char_traitsIcESaIcEEES6_ESaIS7_EEC2EOS9_
FNDA:0,_ZNSt6vectorISt4pairINSt7__cxx1112basic_stringIcSt11char_traitsIcESaIcEEES6_ESaIS7_EEC2EOS9_
FN:569,_ZNSt6vectorISt4pairIlS_INSt7__cxx119sub_matchIN9__gnu_cxx17__normal_iteratorIPKcNS1_12basic_stringIcSt11char_traitsIcESaIcEEEEEEESaISD_EEESaISG_EEC2EOSI_
FNDA:0,_ZNSt6vectorISt4pairIlS_INSt7__cxx119sub_matchIN9__gnu_cxx17__normal_iteratorIPKcNS1_12basic_stringIcSt11char_traitsIcESaIcEEEEEEESaISD_EEESaISG_EEC2EOSI_
FN:650,_ZNSt6vectorIcSaIcEEC2IPKcvEET_S5_RKS0_
FNDA:246,_ZNSt6vectorIcSaIcEEC2IPKcvEET_S5_RKS0_
FN:675,_ZNSt6vectorImSaImEED2Ev
FNDA:1,_ZNSt6vectorImSaImEED2Ev
FN:675,_ZNSt6vectorISt4pairIN9__gnu_cxx17__normal_iteratorIPKcNSt7__cxx1112basic_stringIcSt11char_traitsIcESaIcEEEEEiESaISC_EED2Ev
FNDA:17,_ZNSt6vectorISt4pairIN9__gnu_cxx17__normal_iteratorIPKcNSt7__cxx1112basic_stringIcSt11char_traitsIcESaIcEEEEEiESaISC_EED2Ev
FN:675,_ZNSt6vectorISt4pairIlS_INSt7__cxx119sub_matchIN9__gnu_cxx17__normal_iteratorIPKcNS1_12basic_stringIcSt11char_traitsIcESaIcEEEEEEESaISD_EEESaISG_EED2Ev
FNDA:0,_ZNSt6vectorISt4pairIlS_INSt7__cxx119sub_matchIN9__gnu_cxx17__normal_iteratorIPKcNS1_12basic_stringIcSt11char_traitsIcESaIcEEEEEEESaISD_EEESaISG_EED2Ev
FN:675,_ZNSt6vectorISt4pairINSt7__cxx1112basic_stringIcSt11char_traitsIcESaIcEEES6_ESaIS7_EED2Ev
FNDA:0,_ZNSt6vectorISt4pairINSt7__cxx1112basic_stringIcSt11char_traitsIcESaIcEEES6_ESaIS7_EED2Ev
FN:675,_ZNSt6vectorINSt7__cxx1112regex_traitsIcE10_RegexMaskESaIS3_EED2Ev
FNDA:11,_ZNSt6vectorINSt7__cxx1112regex_traitsIcE10_RegexMaskESaIS3_EED2Ev
FN:675,_ZNSt6vectorINSt7__cxx119sub_matchIN9__gnu_cxx17__normal_iteratorIPKcNS0_12basic_stringIcSt11char_traitsIcESaIcEEEEEEESaISC_EED2Ev
FNDA:53,_ZNSt6vectorINSt7__cxx119sub_matchIN9__gnu_cxx17__normal_iteratorIPKcNS0_12basic_stringIcSt11char_traitsIcESaIcEEEEEEESaISC_EED2Ev
FN:675,_ZNSt6vectorINSt8__detail6_StateIcEESaIS2_EED2Ev
FNDA:1,_ZNSt6vectorINSt8__detail6_StateIcEESaIS2_EED2Ev
FN:675,_ZNSt6vectorIcSaIcEED2Ev
FNDA:257,_ZNSt6vectorIcSaIcEED2Ev
FN:675,_ZNSt6vectorISt4pairIccESaIS1_EED2Ev
FNDA:11,_ZNSt6vectorISt4pairIccESaIS1_EED2Ev
FN:675,_ZNSt6vectorINSt7__cxx1112basic_stringIcSt11char_traitsIcESaIcEEESaIS5_EED2Ev
FNDA:11,_ZNSt6vectorINSt7__cxx1112basic_stringIcSt11char_traitsIcESaIcEEESaIS5_EED2Ev
FN:706,_ZNSt6vectorINSt7__cxx119sub_matchIN9__gnu_cxx17__normal_iteratorIPKcNS0_12basic_stringIcSt11char_traitsIcESaIcEEEEEEESaISC_EEaSEOSE_
FNDA:0,_ZNSt6vectorINSt7__cxx119sub_matchIN9__gnu_cxx17__normal_iteratorIPKcNS0_12basic_stringIcSt11char_traitsIcESaIcEEEEEEESaISC_EEaSEOSE_
FN:808,_ZNSt6vectorImSaImEE5beginEv
FNDA:1,_ZNSt6vectorImSaImEE5beginEv
FN:808,_ZNSt6vectorINSt8__detail6_StateIcEESaIS2_EE5beginEv
FNDA:6,_ZNSt6vectorINSt8__detail6_StateIcEESaIS2_EE5beginEv
FN:808,_ZNSt6vectorINSt7__cxx1112regex_traitsIcE10_RegexMaskESaIS3_EE5beginEv
FNDA:0,_ZNSt6vectorINSt7__cxx1112regex_traitsIcE10_RegexMaskESaIS3_EE5beginEv
FN:808,_ZNSt6vectorIcSaIcEE5beginEv
FNDA:3,_ZNSt6vectorIcSaIcEE5beginEv
FN:808,_ZNSt6vectorISt4pairIlS_INSt7__cxx119sub_matchIN9__gnu_cxx17__normal_iteratorIPKcNS1_12basic_stringIcSt11char_traitsIcESaIcEEEEEEESaISD_EEESaISG_EE5beginEv
FNDA:0,_ZNSt6vectorISt4pairIlS_INSt7__cxx119sub_matchIN9__gnu_cxx17__normal_iteratorIPKcNS1_12basic_stringIcSt11char_traitsIcESaIcEEEEEEESaISD_EEESaISG_EE5beginEv
FN:808,_ZNSt6vectorISt4pairIccESaIS1_EE5beginEv
FNDA:1,_ZNSt6vectorISt4pairIccESaIS1_EE5beginEv
FN:808,_ZNSt6vectorINSt7__cxx119sub_matchIN9__gnu_cxx17__normal_iteratorIPKcNS0_12basic_stringIcSt11char_traitsIcESaIcEEEEEEESaISC_EE5beginEv
FNDA:61,_ZNSt6vectorINSt7__cxx119sub_matchIN9__gnu_cxx17__normal_iteratorIPKcNS0_12basic_stringIcSt11char_traitsIcESaIcEEEEEEESaISC_EE5beginEv
FN:808,_ZNSt6vectorINSt7__cxx1112basic_stringIcSt11char_traitsIcESaIcEEESaIS5_EE5beginEv
FNDA:0,_ZNSt6vectorINSt7__cxx1112basic_stringIcSt11char_traitsIcESaIcEEESaIS5_EE5beginEv
FN:808,_ZNSt6vectorISt4pairINSt7__cxx1112basic_stringIcSt11char_traitsIcESaIcEEES6_ESaIS7_EE5beginEv
FNDA:0,_ZNSt6vectorISt4pairINSt7__cxx1112basic_stringIcSt11char_traitsIcESaIcEEES6_ESaIS7_EE5beginEv
FN:817,_ZNKSt6vectorINSt7__cxx1112regex_traitsIcE10_RegexMaskESaIS3_EE5beginEv
FNDA:254,_ZNKSt6vectorINSt7__cxx1112regex_traitsIcE10_RegexMaskESaIS3_EE5beginEv
FN:817,_ZNKSt6vectorISt4pairIlS_INSt7__cxx119sub_matchIN9__gnu_cxx17__normal_iteratorIPKcNS1_12basic_stringIcSt11char_traitsIcESaIcEEEEEEESaISD_EEESaISG_EE5beginEv
FNDA:0,_ZNKSt6vectorISt4pairIlS_INSt7__cxx119sub_matchIN9__gnu_cxx17__normal_iteratorIPKcNS1_12basic_stringIcSt11char_traitsIcESaIcEEEEEEESaISD_EEESaISG_EE5beginEv
FN:817,_ZNKSt6vectorINSt7__cxx1112basic_stringIcSt11char_traitsIcESaIcEEESaIS5_EE5beginEv
FNDA:254,_ZNKSt6vectorINSt7__cxx1112basic_stringIcSt11char_traitsIcESaIcEEESaIS5_EE5beginEv
FN:817,_ZNKSt6vectorINSt7__cxx119sub_matchIN9__gnu_cxx17__normal_iteratorIPKcNS0_12basic_stringIcSt11char_traitsIcESaIcEEEEEEESaISC_EE5beginEv
FNDA:128,_ZNKSt6vectorINSt7__cxx119sub_matchIN9__gnu_cxx17__normal_iteratorIPKcNS0_12basic_stringIcSt11char_traitsIcESaIcEEEEEEESaISC_EE5beginEv
FN:817,_ZNKSt6vectorISt4pairINSt7__cxx1112basic_stringIcSt11char_traitsIcESaIcEEES6_ESaIS7_EE5beginEv
FNDA:0,_ZNKSt6vectorISt4pairINSt7__cxx1112basic_stringIcSt11char_traitsIcESaIcEEES6_ESaIS7_EE5beginEv
FN:817,_ZNKSt6vectorISt4pairIccESaIS1_EE5beginEv
FNDA:264,_ZNKSt6vectorISt4pairIccESaIS1_EE5beginEv
FN:817,_ZNKSt6vectorIcSaIcEE5beginEv
FNDA:264,_ZNKSt6vectorIcSaIcEE5beginEv
FN:826,_ZNSt6vectorImSaImEE3endEv
FNDA:2,_ZNSt6vectorImSaImEE3endEv
FN:826,_ZNSt6vectorINSt8__detail6_StateIcEESaIS2_EE3endEv
FNDA:6,_ZNSt6vectorINSt8__detail6_StateIcEESaIS2_EE3endEv
FN:826,_ZNSt6vectorINSt7__cxx119sub_matchIN9__gnu_cxx17__normal_iteratorIPKcNS0_12basic_stringIcSt11char_traitsIcESaIcEEEEEEESaISC_EE3endEv
FNDA:61,_ZNSt6vectorINSt7__cxx119sub_matchIN9__gnu_cxx17__normal_iteratorIPKcNS0_12basic_stringIcSt11char_traitsIcESaIcEEEEEEESaISC_EE3endEv
FN:826,_ZNSt6vectorISt4pairIlS_INSt7__cxx119sub_matchIN9__gnu_cxx17__normal_iteratorIPKcNS1_12basic_stringIcSt11char_traitsIcESaIcEEEEEEESaISD_EEESaISG_EE3endEv
FNDA:0,_ZNSt6vectorISt4pairIlS_INSt7__cxx119sub_matchIN9__gnu_cxx17__normal_iteratorIPKcNS1_12basic_stringIcSt11char_traitsIcESaIcEEEEEEESaISD_EEESaISG_EE3endEv
FN:826,_ZNSt6vectorINSt7__cxx1112basic_stringIcSt11char_traitsIcESaIcEEESaIS5_EE3endEv
FNDA:0,_ZNSt6vectorINSt7__cxx1112basic_stringIcSt11char_traitsIcESaIcEEESaIS5_EE3endEv
FN:826,_ZNSt6vectorISt4pairIccESaIS1_EE3endEv
FNDA:1,_ZNSt6vectorISt4pairIccESaIS1_EE3endEv
FN:826,_ZNSt6vectorINSt7__cxx1112regex_traitsIcE10_RegexMaskESaIS3_EE3endEv
FNDA:0,_ZNSt6vectorINSt7__cxx1112regex_traitsIcE10_RegexMaskESaIS3_EE3endEv
FN:826,_ZNSt6vectorIcSaIcEE3endEv
FNDA:3,_ZNSt6vectorIcSaIcEE3endEv
FN:826,_ZNSt6vectorISt4pairINSt7__cxx1112basic_stringIcSt11char_traitsIcESaIcEEES6_ESaIS7_EE3endEv
FNDA:0,_ZNSt6vectorISt4pairINSt7__cxx1112basic_stringIcSt11char_traitsIcESaIcEEES6_ESaIS7_EE3endEv
FN:835,_ZNKSt6vectorINSt7__cxx119sub_matchIN9__gnu_cxx17__normal_iteratorIPKcNS0_12basic_stringIcSt11char_traitsIcESaIcEEEEEEESaISC_EE3endEv
FNDA:128,_ZNKSt6vectorINSt7__cxx119sub_matchIN9__gnu_cxx17__normal_iteratorIPKcNS0_12basic_stringIcSt11char_traitsIcESaIcEEEEEEESaISC_EE3endEv
FN:835,_ZNKSt6vectorINSt7__cxx1112basic_stringIcSt11char_traitsIcESaIcEEESaIS5_EE3endEv
FNDA:500,_ZNKSt6vectorINSt7__cxx1112basic_stringIcSt11char_traitsIcESaIcEEESaIS5_EE3endEv
FN:835,_ZNKSt6vectorINSt7__cxx1112regex_traitsIcE10_RegexMaskESaIS3_EE3endEv
FNDA:254,_ZNKSt6vectorINSt7__cxx1112regex_traitsIcE10_RegexMaskESaIS3_EE3endEv
FN:835,_ZNKSt6vectorISt4pairIlS_INSt7__cxx119sub_matchIN9__gnu_cxx17__normal_iteratorIPKcNS1_12basic_stringIcSt11char_traitsIcESaIcEEEEEEESaISD_EEESaISG_EE3endEv
FNDA:0,_ZNKSt6vectorISt4pairIlS_INSt7__cxx119sub_matchIN9__gnu_cxx17__normal_iteratorIPKcNS1_12basic_stringIcSt11char_traitsIcESaIcEEEEEEESaISD_EEESaISG_EE3endEv
FN:835,_ZNKSt6vectorISt4pairIccESaIS1_EE3endEv
FNDA:264,_ZNKSt6vectorISt4pairIccESaIS1_EE3endEv
FN:835,_ZNKSt6vectorISt4pairINSt7__cxx1112basic_stringIcSt11char_traitsIcESaIcEEES6_ESaIS7_EE3endEv
FNDA:0,_ZNKSt6vectorISt4pairINSt7__cxx1112basic_stringIcSt11char_traitsIcESaIcEEES6_ESaIS7_EE3endEv
FN:835,_ZNKSt6vectorIcSaIcEE3endEv
FNDA:264,_ZNKSt6vectorIcSaIcEE3endEv
FN:881,_ZNKSt6vectorIcSaIcEE6cbeginEv
FNDA:1,_ZNKSt6vectorIcSaIcEE6cbeginEv
FN:915,_ZNKSt6vectorISt4pairIlS_INSt7__cxx119sub_matchIN9__gnu_cxx17__normal_iteratorIPKcNS1_12basic_stringIcSt11char_traitsIcESaIcEEEEEEESaISD_EEESaISG_EE4sizeEv
FNDA:0,_ZNKSt6vectorISt4pairIlS_INSt7__cxx119sub_matchIN9__gnu_cxx17__normal_iteratorIPKcNS1_12basic_stringIcSt11char_traitsIcESaIcEEEEEEESaISD_EEESaISG_EE4sizeEv
FN:915,_ZNKSt6vectorINSt8__detail6_StateIcEESaIS2_EE4sizeEv
FNDA:72,_ZNKSt6vectorINSt8__detail6_StateIcEESaIS2_EE4sizeEv
FN:915,_ZNKSt6vectorINSt7__cxx1112regex_traitsIcE10_RegexMaskESaIS3_EE4sizeEv
FNDA:8,_ZNKSt6vectorINSt7__cxx1112regex_traitsIcE10_RegexMaskESaIS3_EE4sizeEv
FN:915,_ZNKSt6vectorImSaImEE4sizeEv
FNDA:4,_ZNKSt6vectorImSaImEE4sizeEv
FN:915,_ZNKSt6vectorIcSaIcEE4sizeEv
FNDA:500,_ZNKSt6vectorIcSaIcEE4sizeEv
FN:915,_ZNKSt6vectorISt4pairINSt7__cxx1112basic_stringIcSt11char_traitsIcESaIcEEES6_ESaIS7_EE4sizeEv
FNDA:0,_ZNKSt6vectorISt4pairINSt7__cxx1112basic_stringIcSt11char_traitsIcESaIcEEES6_ESaIS7_EE4sizeEv
FN:915,_ZNKSt6vectorINSt7__cxx119sub_matchIN9__gnu_cxx17__normal_iteratorIPKcNS0_12basic_stringIcSt11char_traitsIcESaIcEEEEEEESaISC_EE4sizeEv
FNDA:256,_ZNKSt6vectorINSt7__cxx119sub_matchIN9__gnu_cxx17__normal_iteratorIPKcNS0_12basic_stringIcSt11char_traitsIcESaIcEEEEEEESaISC_EE4sizeEv
FN:915,_ZNKSt6vectorISt4pairIccESaIS1_EE4sizeEv
FNDA:12,_ZNKSt6vectorISt4pairIccESaIS1_EE4sizeEv
FN:915,_ZNKSt6vectorINSt7__cxx1112basic_stringIcSt11char_traitsIcESaIcEEESaIS5_EE4sizeEv
FNDA:8,_ZNKSt6vectorINSt7__cxx1112basic_stringIcSt11char_traitsIcESaIcEEESaIS5_EE4sizeEv
FN:920,_ZNKSt6vectorINSt7__cxx1112basic_stringIcSt11char_traitsIcESaIcEEESaIS5_EE8max_sizeEv
FNDA:0,_ZNKSt6vectorINSt7__cxx1112basic_stringIcSt11char_traitsIcESaIcEEESaIS5_EE8max_sizeEv
FN:920,_ZNKSt6vectorIcSaIcEE8max_sizeEv
FNDA:0,_ZNKSt6vectorIcSaIcEE8max_sizeEv
FN:920,_ZNKSt6vectorISt4pairIlS_INSt7__cxx119sub_matchIN9__gnu_cxx17__normal_iteratorIPKcNS1_12basic_stringIcSt11char_traitsIcESaIcEEEEEEESaISD_EEESaISG_EE8max_sizeEv
FNDA:0,_ZNKSt6vectorISt4pairIlS_INSt7__cxx119sub_matchIN9__gnu_cxx17__normal_iteratorIPKcNS1_12basic_stringIcSt11char_traitsIcESaIcEEEEEEESaISD_EEESaISG_EE8max_sizeEv
FN:920,_ZNKSt6vectorImSaImEE8max_sizeEv
FNDA:2,_ZNKSt6vectorImSaImEE8max_sizeEv
FN:920,_ZNKSt6vectorISt4pairIccESaIS1_EE8max_sizeEv
FNDA:2,_ZNKSt6vectorISt4pairIccESaIS1_EE8max_sizeEv
FN:920,_ZNKSt6vectorINSt7__cxx1112regex_traitsIcE10_RegexMaskESaIS3_EE8max_sizeEv
FNDA:0,_ZNKSt6vectorINSt7__cxx1112regex_traitsIcE10_RegexMaskESaIS3_EE8max_sizeEv
FN:920,_ZNKSt6vectorISt4pairINSt7__cxx1112basic_stringIcSt11char_traitsIcESaIcEEES6_ESaIS7_EE8max_sizeEv
FNDA:0,_ZNKSt6vectorISt4pairINSt7__cxx1112basic_stringIcSt11char_traitsIcESaIcEEES6_ESaIS7_EE8max_sizeEv
FN:920,_ZNKSt6vectorINSt7__cxx119sub_matchIN9__gnu_cxx17__normal_iteratorIPKcNS0_12basic_stringIcSt11char_traitsIcESaIcEEEEEEESaISC_EE8max_sizeEv
FNDA:20,_ZNKSt6vectorINSt7__cxx119sub_matchIN9__gnu_cxx17__normal_iteratorIPKcNS0_12basic_stringIcSt11char_traitsIcESaIcEEEEEEESaISC_EE8max_sizeEv
FN:920,_ZNKSt6vectorINSt8__detail6_StateIcEESaIS2_EE8max_sizeEv
FNDA:10,_ZNKSt6vectorINSt8__detail6_StateIcEESaIS2_EE8max_sizeEv
FN:934,_ZNSt6vectorINSt7__cxx119sub_matchIN9__gnu_cxx17__normal_iteratorIPKcNS0_12basic_stringIcSt11char_traitsIcESaIcEEEEEEESaISC_EE6resizeEm
FNDA:22,_ZNSt6vectorINSt7__cxx119sub_matchIN9__gnu_cxx17__normal_iteratorIPKcNS0_12basic_stringIcSt11char_traitsIcESaIcEEEEEEESaISC_EE6resizeEm
FN:995,_ZNKSt6vectorINSt7__cxx119sub_matchIN9__gnu_cxx17__normal_iteratorIPKcNS0_12basic_stringIcSt11char_traitsIcESaIcEEEEEEESaISC_EE8capacityEv
FNDA:44,_ZNKSt6vectorINSt7__cxx119sub_matchIN9__gnu_cxx17__normal_iteratorIPKcNS0_12basic_stringIcSt11char_traitsIcESaIcEEEEEEESaISC_EE8capacityEv
FN:1004,_ZNKSt6vectorISt4pairIlS_INSt7__cxx119sub_matchIN9__gnu_cxx17__normal_iteratorIPKcNS1_12basic_stringIcSt11char_traitsIcESaIcEEEEEEESaISD_EEESaISG_EE5emptyEv
FNDA:0,_ZNKSt6vectorISt4pairIlS_INSt7__cxx119sub_matchIN9__gnu_cxx17__normal_iteratorIPKcNS1_12basic_stringIcSt11char_traitsIcESaIcEEEEEEESaISD_EEESaISG_EE5emptyEv
FN:1004,_ZNKSt6vectorINSt7__cxx119sub_matchIN9__gnu_cxx17__normal_iteratorIPKcNS0_12basic_stringIcSt11char_traitsIcESaIcEEEEEEESaISC_EE5emptyEv
FNDA:72,_ZNKSt6vectorINSt7__cxx119sub_matchIN9__gnu_cxx17__normal_iteratorIPKcNS0_12basic_stringIcSt11char_traitsIcESaIcEEEEEEESaISC_EE5emptyEv
FN:1040,_ZNSt6vectorINSt7__cxx119sub_matchIN9__gnu_cxx17__normal_iteratorIPKcNS0_12basic_stringIcSt11char_traitsIcESaIcEEEEEEESaISC_EEixEm
FNDA:99,_ZNSt6vectorINSt7__cxx119sub_matchIN9__gnu_cxx17__normal_iteratorIPKcNS0_12basic_stringIcSt11char_traitsIcESaIcEEEEEEESaISC_EEixEm
FN:1040,_ZNSt6vectorISt4pairIN9__gnu_cxx17__normal_iteratorIPKcNSt7__cxx1112basic_stringIcSt11char_traitsIcESaIcEEEEEiESaISC_EEixEm
FNDA:13,_ZNSt6vectorISt4pairIN9__gnu_cxx17__normal_iteratorIPKcNSt7__cxx1112basic_stringIcSt11char_traitsIcESaIcEEEEEiESaISC_EEixEm
FN:1040,_ZNSt6vectorINSt8__detail6_StateIcEESaIS2_EEixEm
FNDA:24,_ZNSt6vectorINSt8__detail6_StateIcEESaIS2_EEixEm
FN:1058,_ZNKSt6vectorINSt7__cxx119sub_matchIN9__gnu_cxx17__normal_iteratorIPKcNS0_12basic_stringIcSt11char_traitsIcESaIcEEEEEEESaISC_EEixEm
FNDA:72,_ZNKSt6vectorINSt7__cxx119sub_matchIN9__gnu_cxx17__normal_iteratorIPKcNS0_12basic_stringIcSt11char_traitsIcESaIcEEEEEEESaISC_EEixEm
FN:1058,_ZNKSt6vectorINSt8__detail6_StateIcEESaIS2_EEixEm
FNDA:225,_ZNKSt6vectorINSt8__detail6_StateIcEESaIS2_EEixEm
FN:1140,_ZNSt6vectorImSaImEE4backEv
FNDA:1,_ZNSt6vectorImSaImEE4backEv
FN:1165,_ZNSt6vectorIcSaIcEE4dataEv
FNDA:984,_ZNSt6vectorIcSaIcEE4dataEv
FN:1184,_ZNSt6vectorINSt7__cxx1112regex_traitsIcE10_RegexMaskESaIS3_EE9push_backERKS3_
FNDA:0,_ZNSt6vectorINSt7__cxx1112regex_traitsIcE10_RegexMaskESaIS3_EE9push_backERKS3_
FN:1184,_ZNSt6vectorINSt7__cxx1112basic_stringIcSt11char_traitsIcESaIcEEESaIS5_EE9push_backERKS5_
FNDA:0,_ZNSt6vectorINSt7__cxx1112basic_stringIcSt11char_traitsIcESaIcEEESaIS5_EE9push_backERKS5_
FN:1184,_ZNSt6vectorImSaImEE9push_backERKm
FNDA:1,_ZNSt6vectorImSaImEE9push_backERKm
FN:1200,_ZNSt6vectorISt4pairIccESaIS1_EE9push_backEOS1_
FNDA:1,_ZNSt6vectorISt4pairIccESaIS1_EE9push_backEOS1_
FN:1200,_ZNSt6vectorINSt8__detail6_StateIcEESaIS2_EE9push_backEOS2_
FNDA:9,_ZNSt6vectorINSt8__detail6_StateIcEESaIS2_EE9push_backEOS2_
FN:1200,_ZNSt6vectorIcSaIcEE9push_backEOc
FNDA:0,_ZNSt6vectorIcSaIcEE9push_backEOc
FN:1200,_ZNSt6vectorISt4pairINSt7__cxx1112basic_stringIcSt11char_traitsIcESaIcEEES6_ESaIS7_EE9push_backEOS7_
FNDA:0,_ZNSt6vectorISt4pairINSt7__cxx1112basic_stringIcSt11char_traitsIcESaIcEEES6_ESaIS7_EE9push_backEOS7_
FN:1222,_ZNSt6vectorImSaImEE8pop_backEv
FNDA:1,_ZNSt6vectorImSaImEE8pop_backEv
FN:1454,_ZNSt6vectorIcSaIcEE5eraseEN9__gnu_cxx17__normal_iteratorIPKcS1_EES6_
FNDA:1,_ZNSt6vectorIcSaIcEE5eraseEN9__gnu_cxx17__normal_iteratorIPKcS1_EES6_
FN:1495,_ZNSt6vectorINSt7__cxx119sub_matchIN9__gnu_cxx17__normal_iteratorIPKcNS0_12basic_stringIcSt11char_traitsIcESaIcEEEEEEESaISC_EE5clearEv
FNDA:0,_ZNSt6vectorINSt7__cxx119sub_matchIN9__gnu_cxx17__normal_iteratorIPKcNS0_12basic_stringIcSt11char_traitsIcESaIcEEEEEEESaISC_EE5clearEv
FN:1495,_ZNSt6vectorISt4pairIlS_INSt7__cxx119sub_matchIN9__gnu_cxx17__normal_iteratorIPKcNS1_12basic_stringIcSt11char_traitsIcESaIcEEEEEEESaISD_EEESaISG_EE5clearEv
FNDA:0,_ZNSt6vectorISt4pairIlS_INSt7__cxx119sub_matchIN9__gnu_cxx17__normal_iteratorIPKcNS1_12basic_stringIcSt11char_traitsIcESaIcEEEEEEESaISD_EEESaISG_EE5clearEv
FN:1505,_ZNSt6vectorINSt7__cxx119sub_matchIN9__gnu_cxx17__normal_iteratorIPKcNS0_12basic_stringIcSt11char_traitsIcESaIcEEEEEEESaISC_EE20_M_allocate_and_copyINS3_IPKSC_SE_EEEEPSC_mT_SK_
FNDA:17,_ZNSt6vectorINSt7__cxx119sub_matchIN9__gnu_cxx17__normal_iteratorIPKcNS0_12basic_stringIcSt11char_traitsIcESaIcEEEEEEESaISC_EE20_M_allocate_and_copyINS3_IPKSC_SE_EEEEPSC_mT_SK_
FN:1574,_ZNSt6vectorIcSaIcEE19_M_range_initializeIPKcEEvT_S5_St20forward_iterator_tag
FNDA:246,_ZNSt6vectorIcSaIcEE19_M_range_initializeIPKcEEvT_S5_St20forward_iterator_tag
FN:1600,_ZNSt6vectorISt4pairIN9__gnu_cxx17__normal_iteratorIPKcNSt7__cxx1112basic_stringIcSt11char_traitsIcESaIcEEEEEiESaISC_EE21_M_default_initializeEm
FNDA:17,_ZNSt6vectorISt4pairIN9__gnu_cxx17__normal_iteratorIPKcNSt7__cxx1112basic_stringIcSt11char_traitsIcESaIcEEEEEiESaISC_EE21_M_default_initializeEm
FN:1753,_ZNKSt6vectorISt4pairIlS_INSt7__cxx119sub_matchIN9__gnu_cxx17__normal_iteratorIPKcNS1_12basic_stringIcSt11char_traitsIcESaIcEEEEEEESaISD_EEESaISG_EE12_M_check_lenEmS6_
FNDA:0,_ZNKSt6vectorISt4pairIlS_INSt7__cxx119sub_matchIN9__gnu_cxx17__normal_iteratorIPKcNS1_12basic_stringIcSt11char_traitsIcESaIcEEEEEEESaISD_EEESaISG_EE12_M_check_lenEmS6_
FN:1753,_ZNKSt6vectorISt4pairINSt7__cxx1112basic_stringIcSt11char_traitsIcESaIcEEES6_ESaIS7_EE12_M_check_lenEmPKc
FNDA:0,_ZNKSt6vectorISt4pairINSt7__cxx1112basic_stringIcSt11char_traitsIcESaIcEEES6_ESaIS7_EE12_M_check_lenEmPKc
FN:1753,_ZNKSt6vectorINSt7__cxx119sub_matchIN9__gnu_cxx17__normal_iteratorIPKcNS0_12basic_stringIcSt11char_traitsIcESaIcEEEEEEESaISC_EE12_M_check_lenEmS5_
FNDA:5,_ZNKSt6vectorINSt7__cxx119sub_matchIN9__gnu_cxx17__normal_iteratorIPKcNS0_12basic_stringIcSt11char_traitsIcESaIcEEEEEEESaISC_EE12_M_check_lenEmS5_
FN:1753,_ZNKSt6vectorINSt7__cxx1112regex_traitsIcE10_RegexMaskESaIS3_EE12_M_check_lenEmPKc
FNDA:0,_ZNKSt6vectorINSt7__cxx1112regex_traitsIcE10_RegexMaskESaIS3_EE12_M_check_lenEmPKc
FN:1753,_ZNKSt6vectorISt4pairIccESaIS1_EE12_M_check_lenEmPKc
FNDA:1,_ZNKSt6vectorISt4pairIccESaIS1_EE12_M_check_lenEmPKc
FN:1753,_ZNKSt6vectorImSaImEE12_M_check_lenEmPKc
FNDA:1,_ZNKSt6vectorImSaImEE12_M_check_lenEmPKc
FN:1753,_ZNKSt6vectorINSt7__cxx1112basic_stringIcSt11char_traitsIcESaIcEEESaIS5_EE12_M_check_lenEmPKc
FNDA:0,_ZNKSt6vectorINSt7__cxx1112basic_stringIcSt11char_traitsIcESaIcEEESaIS5_EE12_M_check_lenEmPKc
FN:1753,_ZNKSt6vectorINSt8__detail6_StateIcEESaIS2_EE12_M_check_lenEmPKc
FNDA:5,_ZNKSt6vectorINSt8__detail6_StateIcEESaIS2_EE12_M_check_lenEmPKc
FN:1753,_ZNKSt6vectorIcSaIcEE12_M_check_lenEmPKc
FNDA:0,_ZNKSt6vectorIcSaIcEE12_M_check_lenEmPKc
FN:1764,_ZNSt6vectorISt4pairIN9__gnu_cxx17__normal_iteratorIPKcNSt7__cxx1112basic_stringIcSt11char_traitsIcESaIcEEEEEiESaISC_EE17_S_check_init_lenEmRKSD_
FNDA:17,_ZNSt6vectorISt4pairIN9__gnu_cxx17__normal_iteratorIPKcNSt7__cxx1112basic_stringIcSt11char_traitsIcESaIcEEEEEiESaISC_EE17_S_check_init_lenEmRKSD_
FN:1764,_ZNSt6vectorIcSaIcEE17_S_check_init_lenEmRKS0_
FNDA:246,_ZNSt6vectorIcSaIcEE17_S_check_init_lenEmRKS0_
FN:1773,_ZNSt6vectorISt4pairINSt7__cxx1112basic_stringIcSt11char_traitsIcESaIcEEES6_ESaIS7_EE11_S_max_sizeERKS8_
FNDA:0,_ZNSt6vectorISt4pairINSt7__cxx1112basic_stringIcSt11char_traitsIcESaIcEEES6_ESaIS7_EE11_S_max_sizeERKS8_
FN:1773,_ZNSt6vectorINSt7__cxx1112basic_stringIcSt11char_traitsIcESaIcEEESaIS5_EE11_S_max_sizeERKS6_
FNDA:0,_ZNSt6vectorINSt7__cxx1112basic_stringIcSt11char_traitsIcESaIcEEESaIS5_EE11_S_max_sizeERKS6_
FN:1773,_ZNSt6vectorISt4pairIccESaIS1_EE11_S_max_sizeERKS2_
FNDA:2,_ZNSt6vectorISt4pairIccESaIS1_EE11_S_max_sizeERKS2_
FN:1773,_ZNSt6vectorINSt8__detail6_StateIcEESaIS2_EE11_S_max_sizeERKS3_
FNDA:10,_ZNSt6vectorINSt8__detail6_StateIcEESaIS2_EE11_S_max_sizeERKS3_
FN:1773,_ZNSt6vectorISt4pairIlS_INSt7__cxx119sub_matchIN9__gnu_cxx17__normal_iteratorIPKcNS1_12basic_stringIcSt11char_traitsIcESaIcEEEEEEESaISD_EEESaISG_EE11_S_max_sizeERKSH_
FNDA:0,_ZNSt6vectorISt4pairIlS_INSt7__cxx119sub_matchIN9__gnu_cxx17__normal_iteratorIPKcNS1_12basic_stringIcSt11char_traitsIcESaIcEEEEEEESaISD_EEESaISG_EE11_S_max_sizeERKSH_
FN:1773,_ZNSt6vectorINSt7__cxx1112regex_traitsIcE10_RegexMaskESaIS3_EE11_S_max_sizeERKS4_
FNDA:0,_ZNSt6vectorINSt7__cxx1112regex_traitsIcE10_RegexMaskESaIS3_EE11_S_max_sizeERKS4_
FN:1773,_ZNSt6vectorImSaImEE11_S_max_sizeERKS0_
FNDA:2,_ZNSt6vectorImSaImEE11_S_max_sizeERKS0_
FN:1773,_ZNSt6vectorINSt7__cxx119sub_matchIN9__gnu_cxx17__normal_iteratorIPKcNS0_12basic_stringIcSt11char_traitsIcESaIcEEEEEEESaISC_EE11_S_max_sizeERKSD_
FNDA:20,_ZNSt6vectorINSt7__cxx119sub_matchIN9__gnu_cxx17__normal_iteratorIPKcNS0_12basic_stringIcSt11char_traitsIcESaIcEEEEEEESaISC_EE11_S_max_sizeERKSD_
FN:1773,_ZNSt6vectorISt4pairIN9__gnu_cxx17__normal_iteratorIPKcNSt7__cxx1112basic_stringIcSt11char_traitsIcESaIcEEEEEiESaISC_EE11_S_max_sizeERKSD_
FNDA:17,_ZNSt6vectorISt4pairIN9__gnu_cxx17__normal_iteratorIPKcNSt7__cxx1112basic_stringIcSt11char_traitsIcESaIcEEEEEiESaISC_EE11_S_max_sizeERKSD_
FN:1773,_ZNSt6vectorIcSaIcEE11_S_max_sizeERKS0_
FNDA:246,_ZNSt6vectorIcSaIcEE11_S_max_sizeERKS0_
FN:1789,_ZNSt6vectorISt4pairIlS_INSt7__cxx119sub_matchIN9__gnu_cxx17__normal_iteratorIPKcNS1_12basic_stringIcSt11char_traitsIcESaIcEEEEEEESaISD_EEESaISG_EE15_M_erase_at_endEPSG_
FNDA:0,_ZNSt6vectorISt4pairIlS_INSt7__cxx119sub_matchIN9__gnu_cxx17__normal_iteratorIPKcNS1_12basic_stringIcSt11char_traitsIcESaIcEEEEEEESaISD_EEESaISG_EE15_M_erase_at_endEPSG_
FN:1789,_ZNSt6vectorINSt7__cxx119sub_matchIN9__gnu_cxx17__normal_iteratorIPKcNS0_12basic_stringIcSt11char_traitsIcESaIcEEEEEEESaISC_EE15_M_erase_at_endEPSC_
FNDA:5,_ZNSt6vectorINSt7__cxx119sub_matchIN9__gnu_cxx17__normal_iteratorIPKcNS0_12basic_stringIcSt11char_traitsIcESaIcEEEEEEESaISC_EE15_M_erase_at_endEPSC_
FN:1789,_ZNSt6vectorIcSaIcEE15_M_erase_at_endEPc
FNDA:0,_ZNSt6vectorIcSaIcEE15_M_erase_at_endEPc
FN:1812,_ZNSt6vectorINSt7__cxx119sub_matchIN9__gnu_cxx17__normal_iteratorIPKcNS0_12basic_stringIcSt11char_traitsIcESaIcEEEEEEESaISC_EE14_M_move_assignEOSE_St17integral_constantIbLb1EE
FNDA:0,_ZNSt6vectorINSt7__cxx119sub_matchIN9__gnu_cxx17__normal_iteratorIPKcNS0_12basic_stringIcSt11char_traitsIcESaIcEEEEEEESaISC_EE14_M_move_assignEOSE_St17integral_constantIbLb1EE
FN:1840,_ZNKSt6vectorIcSaIcEE11_M_data_ptrIcEEPT_S4_
FNDA:984,_ZNKSt6vectorIcSaIcEE11_M_data_ptrIcEEPT_S4_
DA:94,1
DA:95,1
DA:96,1
DA:94,0
DA:95,0
DA:96,0
DA:94,9
DA:95,9
DA:96,9
DA:94,9
DA:95,9
DA:96,9
DA:94,9
DA:95,9
DA:96,9
DA:94,255
DA:95,255
DA:96,255
DA:94,17
DA:95,17
DA:96,17
DA:94,0
DA:95,0
DA:96,0
DA:94,53
DA:95,53
DA:96,53
DA:94,1
DA:95,1
DA:96,1
DA:99,0
DA:100,0
DA:101,0
DA:102,0
DA:99,0
DA:100,0
DA:101,0
DA:102,0
DA:99,2
DA:100,2
DA:101,2
DA:102,2
DA:99,2
DA:100,2
DA:101,2
DA:102,2
DA:99,2
DA:100,2
DA:101,2
DA:102,2
DA:99,2
DA:100,2
DA:101,2
DA:102,2
DA:99,0
DA:100,0
DA:101,0
DA:102,0
DA:106,0
DA:108,0
DA:109,0
DA:110,0
DA:111,0
DA:114,0
DA:118,0
DA:119,0
DA:120,0
DA:121,0
DA:122,0
DA:128,1
DA:130,1
DA:131,1
DA:128,0
DA:130,0
DA:131,0
DA:128,1
DA:130,1
DA:131,1
DA:128,1
DA:130,1
DA:131,1
DA:128,1
DA:130,1
DA:131,1
DA:128,1
DA:130,1
DA:131,1
DA:128,0
DA:130,0
DA:131,0
DA:128,17
DA:130,17
DA:131,17
DA:128,1
DA:130,1
DA:131,1
DA:133,0
DA:134,0
DA:135,0
DA:133,8
DA:134,8
DA:135,8
DA:133,8
DA:134,8
DA:135,8
DA:133,8
DA:134,8
DA:135,8
DA:133,254
DA:134,254
DA:135,254
DA:133,17
DA:134,17
DA:135,17
DA:133,36
DA:134,36
DA:135,36
DA:140,0
DA:141,0
DA:142,0
DA:140,0
DA:141,0
DA:142,0
DA:140,2
DA:141,2
DA:142,2
DA:140,2
DA:141,2
DA:142,2
DA:140,2
DA:141,2
DA:142,2
DA:140,2
DA:141,2
DA:142,2
DA:140,0
DA:141,0
DA:142,0
DA:273,0
DA:274,0
DA:273,19
DA:274,19
DA:273,21
DA:274,21
DA:273,19
DA:274,19
DA:273,757
DA:274,757
DA:273,16
DA:274,16
DA:273,0
DA:274,0
DA:273,34
DA:274,34
DA:273,141
DA:274,141
DA:273,3
DA:274,3
DA:277,0
DA:278,0
DA:277,8
DA:278,8
DA:277,10
DA:278,10
DA:277,8
DA:278,8
DA:277,8
DA:278,8
DA:277,10
DA:278,10
DA:277,0
DA:278,0
DA:277,2
DA:278,2
DA:277,32
DA:278,32
DA:281,0
DA:282,0
DA:285,1
DA:285,0
DA:285,1
DA:285,1
DA:285,1
DA:285,1
DA:285,0
DA:285,17
DA:285,1
DA:290,246
DA:291,246
DA:290,24
DA:291,24
DA:300,0
DA:301,0
DA:302,0
DA:300,8
DA:301,8
DA:302,8
DA:300,8
DA:301,8
DA:302,8
DA:300,8
DA:301,8
DA:302,8
DA:300,8
DA:301,8
DA:302,8
DA:300,17
DA:301,17
DA:302,17
DA:300,12
DA:301,12
DA:302,12
DA:305,0
DA:305,0
DA:305,2
DA:305,2
DA:305,2
DA:305,2
DA:305,0
DA:330,1
DA:332,1
DA:333,1
DA:334,1
DA:330,0
DA:332,0
DA:333,0
DA:334,0
DA:330,11
DA:332,11
DA:333,11
DA:334,11
DA:330,11
DA:332,11
DA:333,11
DA:334,11
DA:330,11
DA:332,11
DA:333,11
DA:334,11
DA:330,257
DA:332,257
DA:333,257
DA:334,257
DA:330,0
DA:332,0
DA:333,0
DA:334,0
DA:330,17
DA:332,17
DA:333,17
DA:334,17
DA:330,53
DA:332,53
DA:333,53
DA:334,53
DA:330,1
DA:332,1
DA:333,1
DA:334,1
DA:340,0
DA:343,0
DA:340,9
DA:343,9
DA:340,254
DA:343,254
DA:340,8
DA:343,8
DA:340,8
DA:343,8
DA:340,5
DA:343,5
DA:340,0
DA:343,0
DA:340,1
DA:343,1
DA:340,17
DA:343,17
DA:340,34
DA:343,34
DA:347,0
DA:350,0
DA:351,0
DA:352,0
DA:347,11
DA:350,11
DA:351,0
DA:352,11
DA:347,12
DA:350,12
DA:351,9
DA:352,12
DA:347,11
DA:350,11
DA:351,0
DA:352,11
DA:347,257
DA:350,257
DA:351,246
DA:352,257
DA:347,6
DA:350,6
DA:351,5
DA:352,6
DA:347,0
DA:350,0
DA:351,0
DA:352,0
DA:347,17
DA:350,17
DA:351,17
DA:352,17
DA:347,75
DA:350,75
DA:351,34
DA:352,75
DA:347,2
DA:350,2
DA:351,1
DA:352,2
DA:356,0
DA:358,0
DA:359,0
DA:360,0
DA:361,0
DA:356,8
DA:358,8
DA:359,8
DA:360,8
DA:361,8
DA:356,8
DA:358,8
DA:359,8
DA:360,8
DA:361,8
DA:356,8
DA:358,8
DA:359,8
DA:360,8
DA:361,8
DA:356,8
DA:358,8
DA:359,8
DA:360,8
DA:361,8
DA:356,17
DA:358,17
DA:359,17
DA:360,17
DA:361,17
DA:356,12
DA:358,12
DA:359,12
DA:360,12
DA:361,12
DA:428,0
DA:433,0
DA:428,2
DA:433,2
DA:428,0
DA:433,0
DA:428,0
DA:433,0
DA:428,0
DA:433,0
DA:428,10
DA:433,10
DA:428,0
DA:433,0
DA:428,2
DA:433,2
DA:428,5
DA:433,5
DA:441,0
DA:446,0
DA:441,2
DA:446,2
DA:441,0
DA:446,0
DA:441,0
DA:446,0
DA:441,0
DA:446,0
DA:441,10
DA:446,10
DA:441,0
DA:446,0
DA:441,2
DA:446,2
DA:441,5
DA:446,5
DA:450,0
DA:453,0
DA:450,2
DA:453,2
DA:450,0
DA:453,0
DA:450,0
DA:453,0
DA:450,0
DA:453,0
DA:450,0
DA:453,0
DA:450,2
DA:453,2
DA:450,5
DA:453,5
DA:457,0
DA:459,0
DA:462,0
DA:466,0
DA:462,2
DA:466,2
DA:462,0
DA:466,0
DA:462,0
DA:466,0
DA:462,0
DA:466,0
DA:462,0
DA:466,0
DA:462,0
DA:466,0
DA:462,2
DA:466,2
DA:462,5
DA:466,5
DA:484,1
DA:484,0
DA:484,1
DA:484,1
DA:484,1
DA:484,1
DA:484,0
DA:484,17
DA:484,1
DA:494,24
DA:495,24
DA:507,17
DA:508,17
DA:509,17
DA:550,0
DA:552,0
DA:554,0
DA:555,0
DA:557,0
DA:558,0
DA:550,8
DA:552,8
DA:554,8
DA:555,8
DA:557,8
DA:558,8
DA:550,8
DA:552,8
DA:554,8
DA:555,8
DA:557,8
DA:558,8
DA:550,8
DA:552,8
DA:554,8
DA:555,8
DA:557,8
DA:558,8
DA:550,8
DA:552,8
DA:554,8
DA:555,8
DA:557,8
DA:558,8
DA:550,12
DA:552,12
DA:554,12
DA:555,12
DA:557,12
DA:558,12
DA:569,0
DA:569,0
DA:569,2
DA:569,2
DA:569,2
DA:569,2
DA:569,0
DA:650,246
DA:652,246
DA:654,246
DA:655,246
DA:656,246
DA:675,1
DA:677,1
DA:678,1
DA:680,1
DA:675,0
DA:677,0
DA:678,0
DA:680,0
DA:675,11
DA:677,11
DA:678,11
DA:680,11
DA:675,11
DA:677,11
DA:678,11
DA:680,11
DA:675,11
DA:677,11
DA:678,11
DA:680,11
DA:675,257
DA:677,257
DA:678,257
DA:680,257
DA:675,0
DA:677,0
DA:678,0
DA:680,0
DA:675,17
DA:677,17
DA:678,17
DA:680,17
DA:675,53
DA:677,53
DA:678,53
DA:680,53
DA:675,1
DA:677,1
DA:678,1
DA:680,1
DA:706,0
DA:708,0
DA:711,0
DA:712,0
DA:808,0
DA:809,0
DA:808,1
DA:809,1
DA:808,0
DA:809,0
DA:808,0
DA:809,0
DA:808,3
DA:809,3
DA:808,1
DA:809,1
DA:808,0
DA:809,0
DA:808,6
DA:809,6
DA:808,61
DA:809,61
DA:817,0
DA:818,0
DA:817,254
DA:818,254
DA:817,254
DA:818,254
DA:817,264
DA:818,264
DA:817,264
DA:818,264
DA:817,0
DA:818,0
DA:817,128
DA:818,128
DA:826,0
DA:827,0
DA:826,1
DA:827,1
DA:826,0
DA:827,0
DA:826,0
DA:827,0
DA:826,3
DA:827,3
DA:826,2
DA:827,2
DA:826,0
DA:827,0
DA:826,6
DA:827,6
DA:826,61
DA:827,61
DA:835,0
DA:836,0
DA:835,254
DA:836,254
DA:835,500
DA:836,500
DA:835,264
DA:836,264
DA:835,264
DA:836,264
DA:835,0
DA:836,0
DA:835,128
DA:836,128
DA:881,1
DA:882,1
DA:915,0
DA:916,0
DA:915,12
DA:916,12
DA:915,8
DA:916,8
DA:915,500
DA:916,500
DA:915,8
DA:916,8
DA:915,0
DA:916,0
DA:915,4
DA:916,4
DA:915,72
DA:916,72
DA:915,256
DA:916,256
DA:920,0
DA:921,0
DA:920,2
DA:921,2
DA:920,0
DA:921,0
DA:920,0
DA:921,0
DA:920,0
DA:921,0
DA:920,10
DA:921,10
DA:920,0
DA:921,0
DA:920,2
DA:921,2
DA:920,20
DA:921,20
DA:934,22
DA:936,22
DA:937,5
DA:938,17
DA:939,5
DA:940,22
DA:995,44
DA:996,44
DA:997,44
DA:1004,0
DA:1005,0
DA:1004,72
DA:1005,72
DA:1040,13
DA:1043,13
DA:1040,24
DA:1043,24
DA:1040,99
DA:1043,99
DA:1058,225
DA:1061,225
DA:1058,72
DA:1061,72
DA:1140,1
DA:1143,1
DA:1165,984
DA:1166,984
DA:1184,0
DA:1186,0
DA:1189,0
DA:1191,0
DA:1195,0
DA:1196,0
DA:1184,0
DA:1186,0
DA:1189,0
DA:1191,0
DA:1195,0
DA:1196,0
DA:1184,1
DA:1186,1
DA:1189,0
DA:1191,0
DA:1195,1
DA:1196,1
DA:1200,0
DA:1201,0
DA:1200,1
DA:1201,1
DA:1200,0
DA:1201,0
DA:1200,9
DA:1201,9
DA:1222,1
DA:1225,1
DA:1226,1
DA:1228,1
DA:1454,1
DA:1456,1
DA:1457,1
DA:1458,2
DA:1495,0
DA:1496,0
DA:1495,0
DA:1496,0
DA:1505,17
DA:1508,17
DA:1511,17
DA:1512,17
DA:1513,17
DA:1515,0
DA:1517,0
DA:1518,0
DA:1574,246
DA:1577,246
DA:1578,246
DA:1579,246
DA:1580,246
DA:1581,246
DA:1582,246
DA:1584,246
DA:1585,246
DA:1600,17
DA:1602,17
DA:1603,17
DA:1604,17
DA:1605,17
DA:1753,0
DA:1755,0
DA:1756,0
DA:1758,0
DA:1759,0
DA:1753,1
DA:1755,1
DA:1756,0
DA:1758,1
DA:1759,1
DA:1753,0
DA:1755,0
DA:1756,0
DA:1758,0
DA:1759,0
DA:1753,0
DA:1755,0
DA:1756,0
DA:1758,0
DA:1759,0
DA:1753,0
DA:1755,0
DA:1756,0
DA:1758,0
DA:1759,0
DA:1753,5
DA:1755,5
DA:1756,0
DA:1758,5
DA:1759,5
DA:1753,0
DA:1755,0
DA:1756,0
DA:1758,0
DA:1759,0
DA:1753,1
DA:1755,1
DA:1756,0
DA:1758,1
DA:1759,1
DA:1753,5
DA:1755,5
DA:1756,0
DA:1758,5
DA:1759,5
DA:1764,246
DA:1766,246
DA:1767,0
DA:1769,246
DA:1764,17
DA:1766,17
DA:1767,0
DA:1769,17
DA:1773,0
DA:1778,0
DA:1780,0
DA:1781,0
DA:1773,2
DA:1778,2
DA:1780,2
DA:1781,2
DA:1773,0
DA:1778,0
DA:1780,0
DA:1781,0
DA:1773,246
DA:1778,246
DA:1780,246
DA:1781,246
DA:1773,0
DA:1778,0
DA:1780,0
DA:1781,0
DA:1773,10
DA:1778,10
DA:1780,10
DA:1781,10
DA:1773,0
DA:1778,0
DA:1780,0
DA:1781,0
DA:1773,2
DA:1778,2
DA:1780,2
DA:1781,2
DA:1773,20
DA:1778,20
DA:1780,20
DA:1781,20
DA:1773,17
DA:1778,17
DA:1780,17
DA:1781,17
DA:1789,0
DA:1791,0
DA:1793,0
DA:1794,0
DA:1795,0
DA:1798,0
DA:1789,0
DA:1791,0
DA:1793,0
DA:1794,0
DA:1795,0
DA:1798,0
DA:1789,5
DA:1791,5
DA:1793,5
DA:1794,5
DA:1795,5
DA:1798,5
DA:1812,0
DA:1814,0
DA:1815,0
DA:1816,0
DA:1817,0
DA:1818,0
DA:1840,984
DA:1841,984
end_of_record
SF:/usr/include/c++/9/ext/type_traits.h
FN:152,_ZN9__gnu_cxx17__is_null_pointerIcEEbPT_
FNDA:246,_ZN9__gnu_cxx17__is_null_pointerIcEEbPT_
FN:152,_ZN9__gnu_cxx17__is_null_pointerIKcEEbPT_
FNDA:0,_ZN9__gnu_cxx17__is_null_pointerIKcEEbPT_
FN:157,_ZN9__gnu_cxx17__is_null_pointerINS_17__normal_iteratorIPcNSt7__cxx1112basic_stringIcSt11char_traitsIcESaIcEEEEEEEbT_
FNDA:0,_ZN9__gnu_cxx17__is_null_pointerINS_17__normal_iteratorIPcNSt7__cxx1112basic_stringIcSt11char_traitsIcESaIcEEEEEEEbT_
FN:157,_ZN9__gnu_cxx17__is_null_pointerINS_17__normal_iteratorIPKcNSt7__cxx1112basic_stringIcSt11char_traitsIcESaIcEEEEEEEbT_
FNDA:12,_ZN9__gnu_cxx17__is_null_pointerINS_17__normal_iteratorIPKcNSt7__cxx1112basic_stringIcSt11char_traitsIcESaIcEEEEEEEbT_
DA:152,246
DA:153,246
DA:152,0
DA:153,0
DA:157,0
DA:158,0
DA:157,12
DA:158,12
end_of_record
SF:/usr/include/c++/9/bits/stl_algobase.h
FN:123,_ZSt9iter_swapIN9__gnu_cxx17__normal_iteratorIPcSt6vectorIcSaIcEEEES6_EvT_T0_
FNDA:0,_ZSt9iter_swapIN9__gnu_cxx17__normal_iteratorIPcSt6vectorIcSaIcEEEES6_EvT_T0_
FN:198,_ZSt3minImERKT_S2_S2_
FNDA:297,_ZSt3minImERKT_S2_S2_
FN:222,_ZSt3maxImERKT_S2_S2_
FNDA:15,_ZSt3maxImERKT_S2_S2_
FN:280,_ZSt12__niter_baseIPbET_S1_
FNDA:0,_ZSt12__niter_baseIPbET_S1_
FN:280,_ZSt12__niter_baseIPPlET_S2_
FNDA:0,_ZSt12__niter_baseIPPlET_S2_
FN:280,_ZSt12__niter_baseIPmET_S1_
FNDA:6,_ZSt12__niter_baseIPmET_S1_
FN:280,_ZSt12__niter_baseIPNSt7__cxx119sub_matchIN9__gnu_cxx17__normal_iteratorIPKcNS0_12basic_stringIcSt11char_traitsIcESaIcEEEEEEEET_SE_
FNDA:15,_ZSt12__niter_baseIPNSt7__cxx119sub_matchIN9__gnu_cxx17__normal_iteratorIPKcNS0_12basic_stringIcSt11char_traitsIcESaIcEEEEEEEET_SE_
FN:280,_ZSt12__niter_baseIPNSt7__cxx1112regex_traitsIcE10_RegexMaskEET_S5_
FNDA:0,_ZSt12__niter_baseIPNSt7__cxx1112regex_traitsIcE10_RegexMaskEET_S5_
FN:280,_ZSt12__niter_baseIPNSt7__cxx1112basic_stringIcSt11char_traitsIcESaIcEEEET_S7_
FNDA:0,_ZSt12__niter_baseIPNSt7__cxx1112basic_stringIcSt11char_traitsIcESaIcEEEET_S7_
FN:280,_ZSt12__niter_baseIPcET_S1_
FNDA:254,_ZSt12__niter_baseIPcET_S1_
FN:280,_ZSt12__niter_baseIPSt4pairIlSt6vectorINSt7__cxx119sub_matchIN9__gnu_cxx17__normal_iteratorIPKcNS2_12basic_stringIcSt11char_traitsIcESaIcEEEEEEESaISE_EEEET_SJ_
FNDA:0,_ZSt12__niter_baseIPSt4pairIlSt6vectorINSt7__cxx119sub_matchIN9__gnu_cxx17__normal_iteratorIPKcNS2_12basic_stringIcSt11char_traitsIcESaIcEEEEEEESaISE_EEEET_SJ_
FN:280,_ZSt12__niter_baseIPSt4pairIccEET_S3_
FNDA:6,_ZSt12__niter_baseIPSt4pairIccEET_S3_
FN:280,_ZSt12__niter_baseIPSt4pairINSt7__cxx1112basic_stringIcSt11char_traitsIcESaIcEEES6_EET_S9_
FNDA:0,_ZSt12__niter_baseIPSt4pairINSt7__cxx1112basic_stringIcSt11char_traitsIcESaIcEEES6_EET_S9_
FN:280,_ZSt12__niter_baseIPPNSt8__detail9_StateSeqINSt7__cxx1112regex_traitsIcEEEEET_S8_
FNDA:0,_ZSt12__niter_baseIPPNSt8__detail9_StateSeqINSt7__cxx1112regex_traitsIcEEEEET_S8_
FN:280,_ZSt12__niter_baseIPKcET_S2_
FNDA:492,_ZSt12__niter_baseIPKcET_S2_
FN:289,_ZSt12__niter_wrapIN9__gnu_cxx17__normal_iteratorIPcSt6vectorIcSaIcEEEES2_ET_S7_T0_
FNDA:0,_ZSt12__niter_wrapIN9__gnu_cxx17__normal_iteratorIPcSt6vectorIcSaIcEEEES2_ET_S7_T0_
FN:289,_ZSt12__niter_wrapIN9__gnu_cxx17__normal_iteratorIPNSt7__cxx119sub_matchINS1_IPKcNS2_12basic_stringIcSt11char_traitsIcESaIcEEEEEEESt6vectorISC_SaISC_EEEESD_ET_SI_T0_
FNDA:27,_ZSt12__niter_wrapIN9__gnu_cxx17__normal_iteratorIPNSt7__cxx119sub_matchINS1_IPKcNS2_12basic_stringIcSt11char_traitsIcESaIcEEEEEEESt6vectorISC_SaISC_EEEESD_ET_SI_T0_
FN:295,_ZSt12__niter_wrapIPmET_RKS1_S1_
FNDA:0,_ZSt12__niter_wrapIPmET_RKS1_S1_
FN:295,_ZSt12__niter_wrapIPPNSt8__detail9_StateSeqINSt7__cxx1112regex_traitsIcEEEEET_RKS8_S8_
FNDA:0,_ZSt12__niter_wrapIPPNSt8__detail9_StateSeqINSt7__cxx1112regex_traitsIcEEEEET_RKS8_S8_
FN:295,_ZSt12__niter_wrapIPPlET_RKS2_S2_
FNDA:0,_ZSt12__niter_wrapIPPlET_RKS2_S2_
FN:295,_ZSt12__niter_wrapIPbET_RKS1_S1_
FNDA:0,_ZSt12__niter_wrapIPbET_RKS1_S1_
FN:295,_ZSt12__niter_wrapIPcET_RKS1_S1_
FNDA:254,_ZSt12__niter_wrapIPcET_RKS1_S1_
FN:295,_ZSt12__niter_wrapIPNSt7__cxx119sub_matchIN9__gnu_cxx17__normal_iteratorIPKcNS0_12basic_stringIcSt11char_traitsIcESaIcEEEEEEEET_RKSE_SE_
FNDA:0,_ZSt12__niter_wrapIPNSt7__cxx119sub_matchIN9__gnu_cxx17__normal_iteratorIPKcNS0_12basic_stringIcSt11char_traitsIcESaIcEEEEEEEET_RKSE_SE_
FN:337,_ZNSt11__copy_moveILb0ELb0ESt26random_access_iterator_tagE8__copy_mIPKNSt7__cxx119sub_matchIN9__gnu_cxx17__normal_iteratorIPKcNS3_12basic_stringIcSt11char_traitsIcESaIcEEEEEEEPSF_EET0_T_SK_SJ_
FNDA:27,_ZNSt11__copy_moveILb0ELb0ESt26random_access_iterator_tagE8__copy_mIPKNSt7__cxx119sub_matchIN9__gnu_cxx17__normal_iteratorIPKcNS3_12basic_stringIcSt11char_traitsIcESaIcEEEEEEEPSF_EET0_T_SK_SJ_
FN:337,_ZNSt11__copy_moveILb0ELb0ESt26random_access_iterator_tagE8__copy_mIPNSt7__cxx119sub_matchIN9__gnu_cxx17__normal_iteratorIPKcNS3_12basic_stringIcSt11char_traitsIcESaIcEEEEEEESG_EET0_T_SI_SH_
FNDA:0,_ZNSt11__copy_moveILb0ELb0ESt26random_access_iterator_tagE8__copy_mIPNSt7__cxx119sub_matchIN9__gnu_cxx17__normal_iteratorIPKcNS3_12basic_stringIcSt11char_traitsIcESaIcEEEEEEESG_EET0_T_SI_SH_
FN:375,_ZNSt11__copy_moveILb1ELb1ESt26random_access_iterator_tagE8__copy_mIcEEPT_PKS3_S6_S4_
FNDA:0,_ZNSt11__copy_moveILb1ELb1ESt26random_access_iterator_tagE8__copy_mIcEEPT_PKS3_S6_S4_
FN:375,_ZNSt11__copy_moveILb0ELb1ESt26random_access_iterator_tagE8__copy_mIPlEEPT_PKS4_S7_S5_
FNDA:0,_ZNSt11__copy_moveILb0ELb1ESt26random_access_iterator_tagE8__copy_mIPlEEPT_PKS4_S7_S5_
FN:375,_ZNSt11__copy_moveILb0ELb1ESt26random_access_iterator_tagE8__copy_mIcEEPT_PKS3_S6_S4_
FNDA:254,_ZNSt11__copy_moveILb0ELb1ESt26random_access_iterator_tagE8__copy_mIcEEPT_PKS3_S6_S4_
FN:375,_ZNSt11__copy_moveILb0ELb1ESt26random_access_iterator_tagE8__copy_mIPNSt8__detail9_StateSeqINSt7__cxx1112regex_traitsIcEEEEEEPT_PKSA_SD_SB_
FNDA:0,_ZNSt11__copy_moveILb0ELb1ESt26random_access_iterator_tagE8__copy_mIPNSt8__detail9_StateSeqINSt7__cxx1112regex_traitsIcEEEEEEPT_PKSA_SD_SB_
FN:375,_ZNSt11__copy_moveILb1ELb1ESt26random_access_iterator_tagE8__copy_mImEEPT_PKS3_S6_S4_
FNDA:0,_ZNSt11__copy_moveILb1ELb1ESt26random_access_iterator_tagE8__copy_mImEEPT_PKS3_S6_S4_
FN:393,_ZSt13__copy_move_aILb0EPPlS1_ET1_T0_S3_S2_
FNDA:0,_ZSt13__copy_move_aILb0EPPlS1_ET1_T0_S3_S2_
FN:393,_ZSt13__copy_move_aILb1EPmS0_ET1_T0_S2_S1_
FNDA:0,_ZSt13__copy_move_aILb1EPmS0_ET1_T0_S2_S1_
FN:393,_ZSt13__copy_move_aILb0EPPNSt8__detail9_StateSeqINSt7__cxx1112regex_traitsIcEEEES7_ET1_T0_S9_S8_
FNDA:0,_ZSt13__copy_move_aILb0EPPNSt8__detail9_StateSeqINSt7__cxx1112regex_traitsIcEEEES7_ET1_T0_S9_S8_
FN:393,_ZSt13__copy_move_aILb1EPcS0_ET1_T0_S2_S1_
FNDA:0,_ZSt13__copy_move_aILb1EPcS0_ET1_T0_S2_S1_
FN:393,_ZSt13__copy_move_aILb0EPKcPcET1_T0_S4_S3_
FNDA:254,_ZSt13__copy_move_aILb0EPKcPcET1_T0_S4_S3_
FN:393,_ZSt13__copy_move_aILb0EPNSt7__cxx119sub_matchIN9__gnu_cxx17__normal_iteratorIPKcNS0_12basic_stringIcSt11char_traitsIcESaIcEEEEEEESD_ET1_T0_SF_SE_
FNDA:0,_ZSt13__copy_move_aILb0EPNSt7__cxx119sub_matchIN9__gnu_cxx17__normal_iteratorIPKcNS0_12basic_stringIcSt11char_traitsIcESaIcEEEEEEESD_ET1_T0_SF_SE_
FN:393,_ZSt13__copy_move_aILb0EPKNSt7__cxx119sub_matchIN9__gnu_cxx17__normal_iteratorIPKcNS0_12basic_stringIcSt11char_traitsIcESaIcEEEEEEEPSC_ET1_T0_SH_SG_
FNDA:27,_ZSt13__copy_move_aILb0EPKNSt7__cxx119sub_matchIN9__gnu_cxx17__normal_iteratorIPKcNS0_12basic_stringIcSt11char_traitsIcESaIcEEEEEEEPSC_ET1_T0_SH_SG_
FN:438,_ZSt14__copy_move_a2ILb1EPmS0_ET1_T0_S2_S1_
FNDA:0,_ZSt14__copy_move_a2ILb1EPmS0_ET1_T0_S2_S1_
FN:438,_ZSt14__copy_move_a2ILb0EN9__gnu_cxx17__normal_iteratorIPKNSt7__cxx119sub_matchINS1_IPKcNS2_12basic_stringIcSt11char_traitsIcESaIcEEEEEEESt6vectorISC_SaISC_EEEENS1_IPSC_SH_EEET1_T0_SM_SL_
FNDA:27,_ZSt14__copy_move_a2ILb0EN9__gnu_cxx17__normal_iteratorIPKNSt7__cxx119sub_matchINS1_IPKcNS2_12basic_stringIcSt11char_traitsIcESaIcEEEEEEESt6vectorISC_SaISC_EEEENS1_IPSC_SH_EEET1_T0_SM_SL_
FN:438,_ZSt14__copy_move_a2ILb0EPPNSt8__detail9_StateSeqINSt7__cxx1112regex_traitsIcEEEES7_ET1_T0_S9_S8_
FNDA:0,_ZSt14__copy_move_a2ILb0EPPNSt8__detail9_StateSeqINSt7__cxx1112regex_traitsIcEEEES7_ET1_T0_S9_S8_
FN:438,_ZSt14__copy_move_a2ILb0EPNSt7__cxx119sub_matchIN9__gnu_cxx17__normal_iteratorIPKcNS0_12basic_stringIcSt11char_traitsIcESaIcEEEEEEESD_ET1_T0_SF_SE_
FNDA:0,_ZSt14__copy_move_a2ILb0EPNSt7__cxx119sub_matchIN9__gnu_cxx17__normal_iteratorIPKcNS0_12basic_stringIcSt11char_traitsIcESaIcEEEEEEESD_ET1_T0_SF_SE_
FN:438,_ZSt14__copy_move_a2ILb1EPcS0_ET1_T0_S2_S1_
FNDA:0,_ZSt14__copy_move_a2ILb1EPcS0_ET1_T0_S2_S1_
FN:438,_ZSt14__copy_move_a2ILb0EPKcPcET1_T0_S4_S3_
FNDA:246,_ZSt14__copy_move_a2ILb0EPKcPcET1_T0_S4_S3_
FN:438,_ZSt14__copy_move_a2ILb0EPPlS1_ET1_T0_S3_S2_
FNDA:0,_ZSt14__copy_move_a2ILb0EPPlS1_ET1_T0_S3_S2_
FN:438,_ZSt14__copy_move_a2ILb1EN9__gnu_cxx17__normal_iteratorIPcSt6vectorIcSaIcEEEES6_ET1_T0_S8_S7_
FNDA:0,_ZSt14__copy_move_a2ILb1EN9__gnu_cxx17__normal_iteratorIPcSt6vectorIcSaIcEEEES6_ET1_T0_S8_S7_
FN:438,_ZSt14__copy_move_a2ILb0EN9__gnu_cxx17__normal_iteratorIPKcSt6vectorIcSaIcEEEEPcET1_T0_SA_S9_
FNDA:8,_ZSt14__copy_move_a2ILb0EN9__gnu_cxx17__normal_iteratorIPKcSt6vectorIcSaIcEEEEPcET1_T0_SA_S9_
FN:465,_ZSt4copyIPNSt7__cxx119sub_matchIN9__gnu_cxx17__normal_iteratorIPKcNS0_12basic_stringIcSt11char_traitsIcESaIcEEEEEEESD_ET0_T_SF_SE_
FNDA:0,_ZSt4copyIPNSt7__cxx119sub_matchIN9__gnu_cxx17__normal_iteratorIPKcNS0_12basic_stringIcSt11char_traitsIcESaIcEEEEEEESD_ET0_T_SF_SE_
FN:465,_ZSt4copyIPPlS1_ET0_T_S3_S2_
FNDA:0,_ZSt4copyIPPlS1_ET0_T_S3_S2_
FN:465,_ZSt4copyISt13move_iteratorIPcES1_ET0_T_S4_S3_
FNDA:0,_ZSt4copyISt13move_iteratorIPcES1_ET0_T_S4_S3_
FN:465,_ZSt4copyIN9__gnu_cxx17__normal_iteratorIPKNSt7__cxx119sub_matchINS1_IPKcNS2_12basic_stringIcSt11char_traitsIcESaIcEEEEEEESt6vectorISC_SaISC_EEEENS1_IPSC_SH_EEET0_T_SM_SL_
FNDA:27,_ZSt4copyIN9__gnu_cxx17__normal_iteratorIPKNSt7__cxx119sub_matchINS1_IPKcNS2_12basic_stringIcSt11char_traitsIcESaIcEEEEEEESt6vectorISC_SaISC_EEEENS1_IPSC_SH_EEET0_T_SM_SL_
FN:465,_ZSt4copyIPKcPcET0_T_S4_S3_
FNDA:246,_ZSt4copyIPKcPcET0_T_S4_S3_
FN:465,_ZSt4copyIPPNSt8__detail9_StateSeqINSt7__cxx1112regex_traitsIcEEEES7_ET0_T_S9_S8_
FNDA:0,_ZSt4copyIPPNSt8__detail9_StateSeqINSt7__cxx1112regex_traitsIcEEEES7_ET0_T_S9_S8_
FN:465,_ZSt4copyISt13move_iteratorIPmES1_ET0_T_S4_S3_
FNDA:0,_ZSt4copyISt13move_iteratorIPmES1_ET0_T_S4_S3_
FN:465,_ZSt4copyIN9__gnu_cxx17__normal_iteratorIPKcSt6vectorIcSaIcEEEEPcET0_T_SA_S9_
FNDA:8,_ZSt4copyIN9__gnu_cxx17__normal_iteratorIPKcSt6vectorIcSaIcEEEEPcET0_T_SA_S9_
FN:497,_ZSt4moveIN9__gnu_cxx17__normal_iteratorIPcSt6vectorIcSaIcEEEES6_ET0_T_S8_S7_
FNDA:0,_ZSt4moveIN9__gnu_cxx17__normal_iteratorIPcSt6vectorIcSaIcEEEES6_ET0_T_S8_S7_
FN:577,_ZNSt20__copy_move_backwardILb0ELb1ESt26random_access_iterator_tagE13__copy_move_bIPNSt8__detail9_StateSeqINSt7__cxx1112regex_traitsIcEEEEEEPT_PKSA_SD_SB_
FNDA:0,_ZNSt20__copy_move_backwardILb0ELb1ESt26random_access_iterator_tagE13__copy_move_bIPNSt8__detail9_StateSeqINSt7__cxx1112regex_traitsIcEEEEEEPT_PKSA_SD_SB_
FN:577,_ZNSt20__copy_move_backwardILb1ELb1ESt26random_access_iterator_tagE13__copy_move_bIcEEPT_PKS3_S6_S4_
FNDA:0,_ZNSt20__copy_move_backwardILb1ELb1ESt26random_access_iterator_tagE13__copy_move_bIcEEPT_PKS3_S6_S4_
FN:577,_ZNSt20__copy_move_backwardILb0ELb1ESt26random_access_iterator_tagE13__copy_move_bIPlEEPT_PKS4_S7_S5_
FNDA:0,_ZNSt20__copy_move_backwardILb0ELb1ESt26random_access_iterator_tagE13__copy_move_bIPlEEPT_PKS4_S7_S5_
FN:595,_ZSt22__copy_move_backward_aILb1EPcS0_ET1_T0_S2_S1_
FNDA:0,_ZSt22__copy_move_backward_aILb1EPcS0_ET1_T0_S2_S1_
FN:595,_ZSt22__copy_move_backward_aILb0EPPlS1_ET1_T0_S3_S2_
FNDA:0,_ZSt22__copy_move_backward_aILb0EPPlS1_ET1_T0_S3_S2_
FN:595,_ZSt22__copy_move_backward_aILb0EPPNSt8__detail9_StateSeqINSt7__cxx1112regex_traitsIcEEEES7_ET1_T0_S9_S8_
FNDA:0,_ZSt22__copy_move_backward_aILb0EPPNSt8__detail9_StateSeqINSt7__cxx1112regex_traitsIcEEEES7_ET1_T0_S9_S8_
FN:613,_ZSt23__copy_move_backward_a2ILb1EN9__gnu_cxx17__normal_iteratorIPcSt6vectorIcSaIcEEEES6_ET1_T0_S8_S7_
FNDA:0,_ZSt23__copy_move_backward_a2ILb1EN9__gnu_cxx17__normal_iteratorIPcSt6vectorIcSaIcEEEES6_ET1_T0_S8_S7_
FN:613,_ZSt23__copy_move_backward_a2ILb0EPPlS1_ET1_T0_S3_S2_
FNDA:0,_ZSt23__copy_move_backward_a2ILb0EPPlS1_ET1_T0_S3_S2_
FN:613,_ZSt23__copy_move_backward_a2ILb0EPPNSt8__detail9_StateSeqINSt7__cxx1112regex_traitsIcEEEES7_ET1_T0_S9_S8_
FNDA:0,_ZSt23__copy_move_backward_a2ILb0EPPNSt8__detail9_StateSeqINSt7__cxx1112regex_traitsIcEEEES7_ET1_T0_S9_S8_
FN:641,_ZSt13copy_backwardIPPlS1_ET0_T_S3_S2_
FNDA:0,_ZSt13copy_backwardIPPlS1_ET0_T_S3_S2_
FN:641,_ZSt13copy_backwardIPPNSt8__detail9_StateSeqINSt7__cxx1112regex_traitsIcEEEES7_ET0_T_S9_S8_
FNDA:0,_ZSt13copy_backwardIPPNSt8__detail9_StateSeqINSt7__cxx1112regex_traitsIcEEEES7_ET0_T_S9_S8_
FN:676,_ZSt13move_backwardIN9__gnu_cxx17__normal_iteratorIPcSt6vectorIcSaIcEEEES6_ET0_T_S8_S7_
FNDA:0,_ZSt13move_backwardIN9__gnu_cxx17__normal_iteratorIPcSt6vectorIcSaIcEEEES6_ET0_T_S8_S7_
FN:767,_ZSt10__fill_n_aIPbmbEN9__gnu_cxx11__enable_ifIXsrSt11__is_scalarIT1_E7__valueET_E6__typeES6_T0_RKS4_
FNDA:0,_ZSt10__fill_n_aIPbmbEN9__gnu_cxx11__enable_ifIXsrSt11__is_scalarIT1_E7__valueET_E6__typeES6_T0_RKS4_
FN:802,_ZSt6fill_nIPbmbET_S1_T0_RKT1_
FNDA:0,_ZSt6fill_nIPbmbET_S1_T0_RKT1_
FN:831,_ZNSt7__equalILb1EE5equalIcEEbPKT_S4_S4_
FNDA:0,_ZNSt7__equalILb1EE5equalIcEEbPKT_S4_S4_
FN:841,_ZSt11__equal_auxIPKcS1_EbT_S2_T0_
FNDA:0,_ZSt11__equal_auxIPKcS1_EbT_S2_T0_
FN:966,_ZSt13__lower_boundIN9__gnu_cxx17__normal_iteratorIPKcSt6vectorIcSaIcEEEEcNS0_5__ops14_Iter_less_valEET_SA_SA_RKT0_T1_
FNDA:256,_ZSt13__lower_boundIN9__gnu_cxx17__normal_iteratorIPKcSt6vectorIcSaIcEEEEcNS0_5__ops14_Iter_less_valEET_SA_SA_RKT0_T1_
FN:1028,_ZSt4__lgl
FNDA:0,_ZSt4__lgl
FN:1059,_ZSt5equalIN9__gnu_cxx17__normal_iteratorIPKcNSt7__cxx1112basic_stringIcSt11char_traitsIcESaIcEEEEESA_EbT_SB_T0_
FNDA:0,_ZSt5equalIN9__gnu_cxx17__normal_iteratorIPKcNSt7__cxx1112basic_stringIcSt11char_traitsIcESaIcEEEEESA_EbT_SB_T0_
FN:1091,_ZSt5equalIN9__gnu_cxx17__normal_iteratorIPKcNSt7__cxx1112basic_stringIcSt11char_traitsIcESaIcEEEEESA_ZNSt8__detail16_Backref_matcherISA_NS4_12regex_traitsIcEEE8_M_applyESA_SA_SA_SA_EUlccE_EbT_SH_T0_T1_
FNDA:0,_ZSt5equalIN9__gnu_cxx17__normal_iteratorIPKcNSt7__cxx1112basic_stringIcSt11char_traitsIcESaIcEEEEESA_ZNSt8__detail16_Backref_matcherISA_NS4_12regex_traitsIcEEE8_M_applyESA_SA_SA_SA_EUlccE_EbT_SH_T0_T1_
FN:1109,_ZSt8__equal4IN9__gnu_cxx17__normal_iteratorIPKcNSt7__cxx1112basic_stringIcSt11char_traitsIcESaIcEEEEESA_EbT_SB_T0_SC_
FNDA:0,_ZSt8__equal4IN9__gnu_cxx17__normal_iteratorIPKcNSt7__cxx1112basic_stringIcSt11char_traitsIcESaIcEEEEESA_EbT_SB_T0_SC_
FN:1134,_ZSt8__equal4IN9__gnu_cxx17__normal_iteratorIPKcNSt7__cxx1112basic_stringIcSt11char_traitsIcESaIcEEEEESA_ZNSt8__detail16_Backref_matcherISA_NS4_12regex_traitsIcEEE8_M_applyESA_SA_SA_SA_EUlccE_EbT_SH_T0_SI_T1_
FNDA:0,_ZSt8__equal4IN9__gnu_cxx17__normal_iteratorIPKcNSt7__cxx1112basic_stringIcSt11char_traitsIcESaIcEEEEESA_ZNSt8__detail16_Backref_matcherISA_NS4_12regex_traitsIcEEE8_M_applyESA_SA_SA_SA_EUlccE_EbT_SH_T0_SI_T1_
DA:123,0
DA:151,0
DA:153,0
DA:198,297
DA:203,297
DA:204,0
DA:205,297
DA:222,15
DA:227,15
DA:228,8
DA:229,7
DA:280,492
DA:282,492
DA:280,0
DA:282,0
DA:280,6
DA:282,6
DA:280,254
DA:282,254
DA:280,0
DA:282,0
DA:280,0
DA:282,0
DA:280,0
DA:282,0
DA:280,0
DA:282,0
DA:280,0
DA:282,0
DA:280,6
DA:282,6
DA:280,0
DA:282,0
DA:280,15
DA:282,15
DA:289,0
DA:290,0
DA:289,27
DA:290,27
DA:295,254
DA:296,254
DA:295,0
DA:296,0
DA:295,0
DA:296,0
DA:295,0
DA:296,0
DA:295,0
DA:296,0
DA:295,0
DA:296,0
DA:337,0
DA:340,0
DA:342,0
DA:343,0
DA:344,0
DA:346,0
DA:337,27
DA:340,131
DA:342,104
DA:343,104
DA:344,104
DA:346,27
DA:375,254
DA:384,254
DA:385,254
DA:386,246
DA:387,254
DA:375,0
DA:384,0
DA:385,0
DA:386,0
DA:387,0
DA:375,0
DA:384,0
DA:385,0
DA:386,0
DA:387,0
DA:375,0
DA:384,0
DA:385,0
DA:386,0
DA:387,0
DA:375,0
DA:384,0
DA:385,0
DA:386,0
DA:387,0
DA:393,254
DA:398,254
DA:404,254
DA:393,0
DA:398,0
DA:404,0
DA:393,0
DA:398,0
DA:404,0
DA:393,0
DA:398,0
DA:404,0
DA:393,0
DA:398,0
DA:404,0
DA:393,0
DA:398,0
DA:404,0
DA:393,27
DA:398,27
DA:404,27
DA:438,0
DA:440,0
DA:443,0
DA:438,246
DA:440,246
DA:443,246
DA:438,8
DA:440,8
DA:443,8
DA:438,0
DA:440,0
DA:443,0
DA:438,0
DA:440,0
DA:443,0
DA:438,0
DA:440,0
DA:443,0
DA:438,0
DA:440,0
DA:443,0
DA:438,0
DA:440,0
DA:443,0
DA:438,27
DA:440,27
DA:443,27
DA:465,0
DA:474,0
DA:465,246
DA:474,246
DA:465,8
DA:474,8
DA:465,0
DA:474,0
DA:465,0
DA:474,0
DA:465,0
DA:474,0
DA:465,0
DA:474,0
DA:465,27
DA:474,27
DA:497,0
DA:505,0
DA:506,0
DA:577,0
DA:586,0
DA:587,0
DA:588,0
DA:589,0
DA:577,0
DA:586,0
DA:587,0
DA:588,0
DA:589,0
DA:577,0
DA:586,0
DA:587,0
DA:588,0
DA:589,0
DA:595,0
DA:600,0
DA:606,0
DA:608,0
DA:595,0
DA:600,0
DA:606,0
DA:608,0
DA:595,0
DA:600,0
DA:606,0
DA:608,0
DA:613,0
DA:615,0
DA:618,0
DA:613,0
DA:615,0
DA:618,0
DA:613,0
DA:615,0
DA:618,0
DA:641,0
DA:652,0
DA:641,0
DA:652,0
DA:676,0
DA:686,0
DA:688,0
DA:767,0
DA:769,0
DA:770,0
DA:771,0
DA:772,0
DA:773,0
DA:802,0
DA:808,0
DA:809,0
DA:831,0
DA:833,0
DA:834,0
DA:835,0
DA:841,0
DA:845,0
DA:851,0
DA:966,256
DA:972,256
DA:974,256
DA:976,0
DA:977,0
DA:978,0
DA:979,0
DA:981,0
DA:982,0
DA:983,0
DA:986,0
DA:988,256
DA:1028,0
DA:1029,0
DA:1059,0
DA:1069,0
DA:1071,0
DA:1091,0
DA:1099,0
DA:1100,0
DA:1101,0
DA:1102,0
DA:1109,0
DA:1115,0
DA:1117,0
DA:1118,0
DA:1119,0
DA:1120,0
DA:1121,0
DA:1124,0
DA:1125,0
DA:1126,0
DA:1127,0
DA:1128,0
DA:1134,0
DA:1141,0
DA:1143,0
DA:1144,0
DA:1145,0
DA:1146,0
DA:1147,0
DA:1148,0
DA:1151,0
DA:1152,0
DA:1153,0
DA:1154,0
DA:1155,0
end_of_record
SF:/usr/include/c++/9/bits/stl_map.h
FN:183,_ZNSt3mapIllSt4lessIlESaISt4pairIKllEEEC2Ev
FNDA:2,_ZNSt3mapIllSt4lessIlESaISt4pairIKllEEEC2Ev
FN:300,_ZNSt3mapIllSt4lessIlESaISt4pairIKllEEED2Ev
FNDA:2,_ZNSt3mapIllSt4lessIlESaISt4pairIKllEEED2Ev
FN:354,_ZNSt3mapIllSt4lessIlESaISt4pairIKllEEE5beginEv
FNDA:2,_ZNSt3mapIllSt4lessIlESaISt4pairIKllEEE5beginEv
FN:372,_ZNSt3mapIllSt4lessIlESaISt4pairIKllEEE3endEv
FNDA:8,_ZNSt3mapIllSt4lessIlESaISt4pairIKllEEE3endEv
FN:490,_ZNSt3mapIllSt4lessIlESaISt4pairIKllEEEixERS3_
FNDA:6,_ZNSt3mapIllSt4lessIlESaISt4pairIKllEEEixERS3_
FN:1141,_ZNKSt3mapIllSt4lessIlESaISt4pairIKllEEE8key_compEv
FNDA:4,_ZNKSt3mapIllSt4lessIlESaISt4pairIKllEEE8key_compEv
FN:1168,_ZNSt3mapIllSt4lessIlESaISt4pairIKllEEE4findERS3_
FNDA:0,_ZNSt3mapIllSt4lessIlESaISt4pairIKllEEE4findERS3_
FN:1214,_ZNKSt3mapIllSt4lessIlESaISt4pairIKllEEE5countERS3_
FNDA:0,_ZNKSt3mapIllSt4lessIlESaISt4pairIKllEEE5countERS3_
FN:1257,_ZNSt3mapIllSt4lessIlESaISt4pairIKllEEE11lower_boundERS3_
FNDA:6,_ZNSt3mapIllSt4lessIlESaISt4pairIKllEEE11lower_boundERS3_
DA:183,2
DA:300,2
DA:354,2
DA:355,2
DA:372,8
DA:373,8
DA:490,6
DA:495,6
DA:497,6
DA:499,2
DA:505,6
DA:1141,4
DA:1142,4
DA:1168,0
DA:1169,0
DA:1214,0
DA:1215,0
DA:1257,6
DA:1258,6
end_of_record
SF:/usr/include/c++/9/bits/deque.tcc
FN:162,_ZNSt5dequeINSt8__detail9_StateSeqINSt7__cxx1112regex_traitsIcEEEESaIS5_EE12emplace_backIJS5_EEEvDpOT_
FNDA:2,_ZNSt5dequeINSt8__detail9_StateSeqINSt7__cxx1112regex_traitsIcEEEESaIS5_EE12emplace_backIJS5_EEEvDpOT_
FN:479,_ZNSt5dequeIlSaIlEE16_M_push_back_auxIJRKlEEEvDpOT_
FNDA:0,_ZNSt5dequeIlSaIlEE16_M_push_back_auxIJRKlEEEvDpOT_
FN:479,_ZNSt5dequeINSt8__detail9_StateSeqINSt7__cxx1112regex_traitsIcEEEESaIS5_EE16_M_push_back_auxIJS5_EEEvDpOT_
FNDA:0,_ZNSt5dequeINSt8__detail9_StateSeqINSt7__cxx1112regex_traitsIcEEEESaIS5_EE16_M_push_back_auxIJS5_EEEvDpOT_
FN:479,_ZNSt5dequeINSt8__detail9_StateSeqINSt7__cxx1112regex_traitsIcEEEESaIS5_EE16_M_push_back_auxIJRKS5_EEEvDpOT_
FNDA:0,_ZNSt5dequeINSt8__detail9_StateSeqINSt7__cxx1112regex_traitsIcEEEESaIS5_EE16_M_push_back_auxIJRKS5_EEEvDpOT_
FN:555,_ZNSt5dequeIlSaIlEE15_M_pop_back_auxEv
FNDA:0,_ZNSt5dequeIlSaIlEE15_M_pop_back_auxEv
FN:555,_ZNSt5dequeINSt8__detail9_StateSeqINSt7__cxx1112regex_traitsIcEEEESaIS5_EE15_M_pop_back_auxEv
FNDA:0,_ZNSt5dequeINSt8__detail9_StateSeqINSt7__cxx1112regex_traitsIcEEEESaIS5_EE15_M_pop_back_auxEv
FN:926,_ZNSt5dequeIlSaIlEE17_M_reallocate_mapEmb
FNDA:0,_ZNSt5dequeIlSaIlEE17_M_reallocate_mapEmb
FN:926,_ZNSt5dequeINSt8__detail9_StateSeqINSt7__cxx1112regex_traitsIcEEEESaIS5_EE17_M_reallocate_mapEmb
FNDA:0,_ZNSt5dequeINSt8__detail9_StateSeqINSt7__cxx1112regex_traitsIcEEEESaIS5_EE17_M_reallocate_mapEmb
DA:162,2
DA:165,2
DA:166,2
DA:168,2
DA:171,2
DA:174,0
DA:178,2
DA:479,0
DA:487,0
DA:488,0
DA:491,0
DA:492,0
DA:496,0
DA:502,0
DA:504,0
DA:511,0
DA:479,0
DA:487,0
DA:488,0
DA:491,0
DA:492,0
DA:496,0
DA:502,0
DA:504,0
DA:511,0
DA:479,0
DA:487,0
DA:488,0
DA:491,0
DA:492,0
DA:496,0
DA:502,0
DA:504,0
DA:511,0
DA:555,0
DA:558,0
DA:559,0
DA:560,0
DA:561,0
DA:563,0
DA:555,0
DA:558,0
DA:559,0
DA:560,0
DA:561,0
DA:563,0
DA:926,0
DA:929,0
DA:930,0
DA:931,0
DA:934,0
DA:936,0
DA:937,0
DA:938,0
DA:939,0
DA:940,0
DA:941,0
DA:944,0
DA:945,0
DA:946,0
DA:950,0
DA:951,0
DA:954,0
DA:955,0
DA:956,0
DA:957,0
DA:958,0
DA:960,0
DA:962,0
DA:963,0
DA:966,0
DA:967,0
DA:968,0
DA:926,0
DA:929,0
DA:930,0
DA:931,0
DA:934,0
DA:936,0
DA:937,0
DA:938,0
DA:939,0
DA:940,0
DA:941,0
DA:944,0
DA:945,0
DA:946,0
DA:950,0
DA:951,0
DA:954,0
DA:955,0
DA:956,0
DA:957,0
DA:958,0
DA:960,0
DA:962,0
DA:963,0
DA:966,0
DA:967,0
DA:968,0
end_of_record
SF:/usr/include/x86_64-linux-gnu/c++/9/bits/gthr-default.h
FN:248,_ZL18__gthread_active_pv
FNDA:2,_ZL18__gthread_active_pv
DA:248,2
DA:252,2
end_of_record
SF:/usr/include/c++/9/bits/stl_uninitialized.h
FN:76,_ZNSt20__uninitialized_copyILb0EE13__uninit_copyISt13move_iteratorIPSt4pairIlSt6vectorINSt7__cxx119sub_matchIN9__gnu_cxx17__normal_iteratorIPKcNS5_12basic_stringIcSt11char_traitsIcESaIcEEEEEEESaISH_EEEESL_EET0_T_SO_SN_
FNDA:0,_ZNSt20__uninitialized_copyILb0EE13__uninit_copyISt13move_iteratorIPSt4pairIlSt6vectorINSt7__cxx119sub_matchIN9__gnu_cxx17__normal_iteratorIPKcNS5_12basic_stringIcSt11char_traitsIcESaIcEEEEEEESaISH_EEEESL_EET0_T_SO_SN_
FN:76,_ZNSt20__uninitialized_copyILb0EE13__uninit_copyISt13move_iteratorIPSt4pairINSt7__cxx1112basic_stringIcSt11char_traitsIcESaIcEEES9_EESB_EET0_T_SE_SD_
FNDA:0,_ZNSt20__uninitialized_copyILb0EE13__uninit_copyISt13move_iteratorIPSt4pairINSt7__cxx1112basic_stringIcSt11char_traitsIcESaIcEEES9_EESB_EET0_T_SE_SD_
FN:76,_ZNSt20__uninitialized_copyILb0EE13__uninit_copyISt13move_iteratorIPNSt7__cxx119sub_matchIN9__gnu_cxx17__normal_iteratorIPKcNS3_12basic_stringIcSt11char_traitsIcESaIcEEEEEEEESG_EET0_T_SJ_SI_
FNDA:0,_ZNSt20__uninitialized_copyILb0EE13__uninit_copyISt13move_iteratorIPNSt7__cxx119sub_matchIN9__gnu_cxx17__normal_iteratorIPKcNS3_12basic_stringIcSt11char_traitsIcESaIcEEEEEEEESG_EET0_T_SJ_SI_
FN:76,_ZNSt20__uninitialized_copyILb0EE13__uninit_copyISt13move_iteratorIPSt4pairIccEES5_EET0_T_S8_S7_
FNDA:0,_ZNSt20__uninitialized_copyILb0EE13__uninit_copyISt13move_iteratorIPSt4pairIccEES5_EET0_T_S8_S7_
FN:76,_ZNSt20__uninitialized_copyILb0EE13__uninit_copyIPKNSt8__detail6_StateIcEEPS4_EET0_T_S9_S8_
FNDA:10,_ZNSt20__uninitialized_copyILb0EE13__uninit_copyIPKNSt8__detail6_StateIcEEPS4_EET0_T_S9_S8_
FN:76,_ZNSt20__uninitialized_copyILb0EE13__uninit_copyIN9__gnu_cxx17__normal_iteratorIPKSt4pairINSt7__cxx1112basic_stringIcSt11char_traitsIcESaIcEEESA_ESt6vectorISB_SaISB_EEEEPSB_EET0_T_SK_SJ_
FNDA:0,_ZNSt20__uninitialized_copyILb0EE13__uninit_copyIN9__gnu_cxx17__normal_iteratorIPKSt4pairINSt7__cxx1112basic_stringIcSt11char_traitsIcESaIcEEESA_ESt6vectorISB_SaISB_EEEEPSB_EET0_T_SK_SJ_
FN:76,_ZNSt20__uninitialized_copyILb0EE13__uninit_copyIN9__gnu_cxx17__normal_iteratorIPKNSt7__cxx1112regex_traitsIcE10_RegexMaskESt6vectorIS7_SaIS7_EEEEPS7_EET0_T_SG_SF_
FNDA:8,_ZNSt20__uninitialized_copyILb0EE13__uninit_copyIN9__gnu_cxx17__normal_iteratorIPKNSt7__cxx1112regex_traitsIcE10_RegexMaskESt6vectorIS7_SaIS7_EEEEPS7_EET0_T_SG_SF_
FN:76,_ZNSt20__uninitialized_copyILb0EE13__uninit_copyIN9__gnu_cxx17__normal_iteratorIPKNSt7__cxx119sub_matchINS3_IPKcNS4_12basic_stringIcSt11char_traitsIcESaIcEEEEEEESt6vectorISE_SaISE_EEEEPSE_EET0_T_SN_SM_
FNDA:29,_ZNSt20__uninitialized_copyILb0EE13__uninit_copyIN9__gnu_cxx17__normal_iteratorIPKNSt7__cxx119sub_matchINS3_IPKcNS4_12basic_stringIcSt11char_traitsIcESaIcEEEEEEESt6vectorISE_SaISE_EEEEPSE_EET0_T_SN_SM_
FN:76,_ZNSt20__uninitialized_copyILb0EE13__uninit_copyIPNSt7__cxx119sub_matchIN9__gnu_cxx17__normal_iteratorIPKcNS2_12basic_stringIcSt11char_traitsIcESaIcEEEEEEESF_EET0_T_SH_SG_
FNDA:0,_ZNSt20__uninitialized_copyILb0EE13__uninit_copyIPNSt7__cxx119sub_matchIN9__gnu_cxx17__normal_iteratorIPKcNS2_12basic_stringIcSt11char_traitsIcESaIcEEEEEEESF_EET0_T_SH_SG_
FN:76,_ZNSt20__uninitialized_copyILb0EE13__uninit_copyIN9__gnu_cxx17__normal_iteratorIPKSt4pairIccESt6vectorIS5_SaIS5_EEEEPS5_EET0_T_SE_SD_
FNDA:8,_ZNSt20__uninitialized_copyILb0EE13__uninit_copyIN9__gnu_cxx17__normal_iteratorIPKSt4pairIccESt6vectorIS5_SaIS5_EEEEPS5_EET0_T_SE_SD_
FN:76,_ZNSt20__uninitialized_copyILb0EE13__uninit_copyIN9__gnu_cxx17__normal_iteratorIPKNSt7__cxx1112basic_stringIcSt11char_traitsIcESaIcEEESt6vectorIS9_SaIS9_EEEEPS9_EET0_T_SI_SH_
FNDA:8,_ZNSt20__uninitialized_copyILb0EE13__uninit_copyIN9__gnu_cxx17__normal_iteratorIPKNSt7__cxx1112basic_stringIcSt11char_traitsIcESaIcEEESt6vectorIS9_SaIS9_EEEEPS9_EET0_T_SI_SH_
FN:76,_ZNSt20__uninitialized_copyILb0EE13__uninit_copyISt13move_iteratorIPNSt7__cxx1112basic_stringIcSt11char_traitsIcESaIcEEEES9_EET0_T_SC_SB_
FNDA:0,_ZNSt20__uninitialized_copyILb0EE13__uninit_copyISt13move_iteratorIPNSt7__cxx1112basic_stringIcSt11char_traitsIcESaIcEEEES9_EET0_T_SC_SB_
FN:76,_ZNSt20__uninitialized_copyILb0EE13__uninit_copyISt13move_iteratorIPNSt7__cxx1112regex_traitsIcE10_RegexMaskEES7_EET0_T_SA_S9_
FNDA:0,_ZNSt20__uninitialized_copyILb0EE13__uninit_copyISt13move_iteratorIPNSt7__cxx1112regex_traitsIcE10_RegexMaskEES7_EET0_T_SA_S9_
FN:99,_ZNSt20__uninitialized_copyILb1EE13__uninit_copyIN9__gnu_cxx17__normal_iteratorIPKcSt6vectorIcSaIcEEEEPcEET0_T_SC_SB_
FNDA:8,_ZNSt20__uninitialized_copyILb1EE13__uninit_copyIN9__gnu_cxx17__normal_iteratorIPKcSt6vectorIcSaIcEEEEPcEET0_T_SC_SB_
FN:99,_ZNSt20__uninitialized_copyILb1EE13__uninit_copyISt13move_iteratorIPmES3_EET0_T_S6_S5_
FNDA:0,_ZNSt20__uninitialized_copyILb1EE13__uninit_copyISt13move_iteratorIPmES3_EET0_T_S6_S5_
FN:99,_ZNSt20__uninitialized_copyILb1EE13__uninit_copyIPKcPcEET0_T_S6_S5_
FNDA:246,_ZNSt20__uninitialized_copyILb1EE13__uninit_copyIPKcPcEET0_T_S6_S5_
FN:99,_ZNSt20__uninitialized_copyILb1EE13__uninit_copyISt13move_iteratorIPcES3_EET0_T_S6_S5_
FNDA:0,_ZNSt20__uninitialized_copyILb1EE13__uninit_copyISt13move_iteratorIPcES3_EET0_T_S6_S5_
FN:115,_ZSt18uninitialized_copyIN9__gnu_cxx17__normal_iteratorIPKSt4pairINSt7__cxx1112basic_stringIcSt11char_traitsIcESaIcEEES8_ESt6vectorIS9_SaIS9_EEEEPS9_ET0_T_SI_SH_
FNDA:0,_ZSt18uninitialized_copyIN9__gnu_cxx17__normal_iteratorIPKSt4pairINSt7__cxx1112basic_stringIcSt11char_traitsIcESaIcEEES8_ESt6vectorIS9_SaIS9_EEEEPS9_ET0_T_SI_SH_
FN:115,_ZSt18uninitialized_copyIPKcPcET0_T_S4_S3_
FNDA:246,_ZSt18uninitialized_copyIPKcPcET0_T_S4_S3_
FN:115,_ZSt18uninitialized_copyIN9__gnu_cxx17__normal_iteratorIPKNSt7__cxx1112regex_traitsIcE10_RegexMaskESt6vectorIS5_SaIS5_EEEEPS5_ET0_T_SE_SD_
FNDA:8,_ZSt18uninitialized_copyIN9__gnu_cxx17__normal_iteratorIPKNSt7__cxx1112regex_traitsIcE10_RegexMaskESt6vectorIS5_SaIS5_EEEEPS5_ET0_T_SE_SD_
FN:115,_ZSt18uninitialized_copyIN9__gnu_cxx17__normal_iteratorIPKSt4pairIccESt6vectorIS3_SaIS3_EEEEPS3_ET0_T_SC_SB_
FNDA:8,_ZSt18uninitialized_copyIN9__gnu_cxx17__normal_iteratorIPKSt4pairIccESt6vectorIS3_SaIS3_EEEEPS3_ET0_T_SC_SB_
FN:115,_ZSt18uninitialized_copyIN9__gnu_cxx17__normal_iteratorIPKNSt7__cxx1112basic_stringIcSt11char_traitsIcESaIcEEESt6vectorIS7_SaIS7_EEEEPS7_ET0_T_SG_SF_
FNDA:8,_ZSt18uninitialized_copyIN9__gnu_cxx17__normal_iteratorIPKNSt7__cxx1112basic_stringIcSt11char_traitsIcESaIcEEESt6vectorIS7_SaIS7_EEEEPS7_ET0_T_SG_SF_
FN:115,_ZSt18uninitialized_copyIN9__gnu_cxx17__normal_iteratorIPKcSt6vectorIcSaIcEEEEPcET0_T_SA_S9_
FNDA:8,_ZSt18uninitialized_copyIN9__gnu_cxx17__normal_iteratorIPKcSt6vectorIcSaIcEEEEPcET0_T_SA_S9_
FN:115,_ZSt18uninitialized_copyISt13move_iteratorIPNSt7__cxx1112regex_traitsIcE10_RegexMaskEES5_ET0_T_S8_S7_
FNDA:0,_ZSt18uninitialized_copyISt13move_iteratorIPNSt7__cxx1112regex_traitsIcE10_RegexMaskEES5_ET0_T_S8_S7_
FN:115,_ZSt18uninitialized_copyISt13move_iteratorIPmES1_ET0_T_S4_S3_
FNDA:0,_ZSt18uninitialized_copyISt13move_iteratorIPmES1_ET0_T_S4_S3_
FN:115,_ZSt18uninitialized_copyIN9__gnu_cxx17__normal_iteratorIPKNSt7__cxx119sub_matchINS1_IPKcNS2_12basic_stringIcSt11char_traitsIcESaIcEEEEEEESt6vectorISC_SaISC_EEEEPSC_ET0_T_SL_SK_
FNDA:29,_ZSt18uninitialized_copyIN9__gnu_cxx17__normal_iteratorIPKNSt7__cxx119sub_matchINS1_IPKcNS2_12basic_stringIcSt11char_traitsIcESaIcEEEEEEESt6vectorISC_SaISC_EEEEPSC_ET0_T_SL_SK_
FN:115,_ZSt18uninitialized_copyIPNSt7__cxx119sub_matchIN9__gnu_cxx17__normal_iteratorIPKcNS0_12basic_stringIcSt11char_traitsIcESaIcEEEEEEESD_ET0_T_SF_SE_
FNDA:0,_ZSt18uninitialized_copyIPNSt7__cxx119sub_matchIN9__gnu_cxx17__normal_iteratorIPKcNS0_12basic_stringIcSt11char_traitsIcESaIcEEEEEEESD_ET0_T_SF_SE_
FN:115,_ZSt18uninitialized_copyIPKNSt8__detail6_StateIcEEPS2_ET0_T_S7_S6_
FNDA:10,_ZSt18uninitialized_copyIPKNSt8__detail6_StateIcEEPS2_ET0_T_S7_S6_
FN:115,_ZSt18uninitialized_copyISt13move_iteratorIPNSt7__cxx1112basic_stringIcSt11char_traitsIcESaIcEEEES7_ET0_T_SA_S9_
FNDA:0,_ZSt18uninitialized_copyISt13move_iteratorIPNSt7__cxx1112basic_stringIcSt11char_traitsIcESaIcEEEES7_ET0_T_SA_S9_
FN:115,_ZSt18uninitialized_copyISt13move_iteratorIPSt4pairIlSt6vectorINSt7__cxx119sub_matchIN9__gnu_cxx17__normal_iteratorIPKcNS3_12basic_stringIcSt11char_traitsIcESaIcEEEEEEESaISF_EEEESJ_ET0_T_SM_SL_
FNDA:0,_ZSt18uninitialized_copyISt13move_iteratorIPSt4pairIlSt6vectorINSt7__cxx119sub_matchIN9__gnu_cxx17__normal_iteratorIPKcNS3_12basic_stringIcSt11char_traitsIcESaIcEEEEEEESaISF_EEEESJ_ET0_T_SM_SL_
FN:115,_ZSt18uninitialized_copyISt13move_iteratorIPSt4pairINSt7__cxx1112basic_stringIcSt11char_traitsIcESaIcEEES7_EES9_ET0_T_SC_SB_
FNDA:0,_ZSt18uninitialized_copyISt13move_iteratorIPSt4pairINSt7__cxx1112basic_stringIcSt11char_traitsIcESaIcEEES7_EES9_ET0_T_SC_SB_
FN:115,_ZSt18uninitialized_copyISt13move_iteratorIPcES1_ET0_T_S4_S3_
FNDA:0,_ZSt18uninitialized_copyISt13move_iteratorIPcES1_ET0_T_S4_S3_
FN:115,_ZSt18uninitialized_copyISt13move_iteratorIPSt4pairIccEES3_ET0_T_S6_S5_
FNDA:0,_ZSt18uninitialized_copyISt13move_iteratorIPSt4pairIccEES3_ET0_T_S6_S5_
FN:115,_ZSt18uninitialized_copyISt13move_iteratorIPNSt7__cxx119sub_matchIN9__gnu_cxx17__normal_iteratorIPKcNS1_12basic_stringIcSt11char_traitsIcESaIcEEEEEEEESE_ET0_T_SH_SG_
FNDA:0,_ZSt18uninitialized_copyISt13move_iteratorIPNSt7__cxx119sub_matchIN9__gnu_cxx17__normal_iteratorIPKcNS1_12basic_stringIcSt11char_traitsIcESaIcEEEEEEEESE_ET0_T_SH_SG_
FN:305,_ZSt22__uninitialized_copy_aISt13move_iteratorIPmES1_mET0_T_S4_S3_RSaIT1_E
FNDA:0,_ZSt22__uninitialized_copy_aISt13move_iteratorIPmES1_mET0_T_S4_S3_RSaIT1_E
FN:305,_ZSt22__uninitialized_copy_aISt13move_iteratorIPSt4pairIlSt6vectorINSt7__cxx119sub_matchIN9__gnu_cxx17__normal_iteratorIPKcNS3_12basic_stringIcSt11char_traitsIcESaIcEEEEEEESaISF_EEEESJ_SI_ET0_T_SM_SL_RSaIT1_E
FNDA:0,_ZSt22__uninitialized_copy_aISt13move_iteratorIPSt4pairIlSt6vectorINSt7__cxx119sub_matchIN9__gnu_cxx17__normal_iteratorIPKcNS3_12basic_stringIcSt11char_traitsIcESaIcEEEEEEESaISF_EEEESJ_SI_ET0_T_SM_SL_RSaIT1_E
FN:305,_ZSt22__uninitialized_copy_aIN9__gnu_cxx17__normal_iteratorIPKSt4pairINSt7__cxx1112basic_stringIcSt11char_traitsIcESaIcEEES8_ESt6vectorIS9_SaIS9_EEEEPS9_S9_ET0_T_SI_SH_RSaIT1_E
FNDA:0,_ZSt22__uninitialized_copy_aIN9__gnu_cxx17__normal_iteratorIPKSt4pairINSt7__cxx1112basic_stringIcSt11char_traitsIcESaIcEEES8_ESt6vectorIS9_SaIS9_EEEEPS9_S9_ET0_T_SI_SH_RSaIT1_E
FN:305,_ZSt22__uninitialized_copy_aIN9__gnu_cxx17__normal_iteratorIPKNSt7__cxx1112regex_traitsIcE10_RegexMaskESt6vectorIS5_SaIS5_EEEEPS5_S5_ET0_T_SE_SD_RSaIT1_E
FNDA:8,_ZSt22__uninitialized_copy_aIN9__gnu_cxx17__normal_iteratorIPKNSt7__cxx1112regex_traitsIcE10_RegexMaskESt6vectorIS5_SaIS5_EEEEPS5_S5_ET0_T_SE_SD_RSaIT1_E
FN:305,_ZSt22__uninitialized_copy_aIN9__gnu_cxx17__normal_iteratorIPKSt4pairIccESt6vectorIS3_SaIS3_EEEEPS3_S3_ET0_T_SC_SB_RSaIT1_E
FNDA:8,_ZSt22__uninitialized_copy_aIN9__gnu_cxx17__normal_iteratorIPKSt4pairIccESt6vectorIS3_SaIS3_EEEEPS3_S3_ET0_T_SC_SB_RSaIT1_E
FN:305,_ZSt22__uninitialized_copy_aIN9__gnu_cxx17__normal_iteratorIPKNSt7__cxx1112basic_stringIcSt11char_traitsIcESaIcEEESt6vectorIS7_SaIS7_EEEEPS7_S7_ET0_T_SG_SF_RSaIT1_E
FNDA:8,_ZSt22__uninitialized_copy_aIN9__gnu_cxx17__normal_iteratorIPKNSt7__cxx1112basic_stringIcSt11char_traitsIcESaIcEEESt6vectorIS7_SaIS7_EEEEPS7_S7_ET0_T_SG_SF_RSaIT1_E
FN:305,_ZSt22__uninitialized_copy_aIPKNSt8__detail6_StateIcEEPS2_S2_ET0_T_S7_S6_RSaIT1_E
FNDA:10,_ZSt22__uninitialized_copy_aIPKNSt8__detail6_StateIcEEPS2_S2_ET0_T_S7_S6_RSaIT1_E
FN:305,_ZSt22__uninitialized_copy_aIN9__gnu_cxx17__normal_iteratorIPKcSt6vectorIcSaIcEEEEPccET0_T_SA_S9_RSaIT1_E
FNDA:8,_ZSt22__uninitialized_copy_aIN9__gnu_cxx17__normal_iteratorIPKcSt6vectorIcSaIcEEEEPccET0_T_SA_S9_RSaIT1_E
FN:305,_ZSt22__uninitialized_copy_aISt13move_iteratorIPNSt7__cxx1112regex_traitsIcE10_RegexMaskEES5_S4_ET0_T_S8_S7_RSaIT1_E
FNDA:0,_ZSt22__uninitialized_copy_aISt13move_iteratorIPNSt7__cxx1112regex_traitsIcE10_RegexMaskEES5_S4_ET0_T_S8_S7_RSaIT1_E
FN:305,_ZSt22__uninitialized_copy_aIN9__gnu_cxx17__normal_iteratorIPKNSt7__cxx119sub_matchINS1_IPKcNS2_12basic_stringIcSt11char_traitsIcESaIcEEEEEEESt6vectorISC_SaISC_EEEEPSC_SC_ET0_T_SL_SK_RSaIT1_E
FNDA:29,_ZSt22__uninitialized_copy_aIN9__gnu_cxx17__normal_iteratorIPKNSt7__cxx119sub_matchINS1_IPKcNS2_12basic_stringIcSt11char_traitsIcESaIcEEEEEEESt6vectorISC_SaISC_EEEEPSC_SC_ET0_T_SL_SK_RSaIT1_E
FN:305,_ZSt22__uninitialized_copy_aIPNSt7__cxx119sub_matchIN9__gnu_cxx17__normal_iteratorIPKcNS0_12basic_stringIcSt11char_traitsIcESaIcEEEEEEESD_SC_ET0_T_SF_SE_RSaIT1_E
FNDA:0,_ZSt22__uninitialized_copy_aIPNSt7__cxx119sub_matchIN9__gnu_cxx17__normal_iteratorIPKcNS0_12basic_stringIcSt11char_traitsIcESaIcEEEEEEESD_SC_ET0_T_SF_SE_RSaIT1_E
FN:305,_ZSt22__uninitialized_copy_aIPKcPccET0_T_S4_S3_RSaIT1_E
FNDA:246,_ZSt22__uninitialized_copy_aIPKcPccET0_T_S4_S3_RSaIT1_E
FN:305,_ZSt22__uninitialized_copy_aISt13move_iteratorIPNSt7__cxx1112basic_stringIcSt11char_traitsIcESaIcEEEES7_S6_ET0_T_SA_S9_RSaIT1_E
FNDA:0,_ZSt22__uninitialized_copy_aISt13move_iteratorIPNSt7__cxx1112basic_stringIcSt11char_traitsIcESaIcEEEES7_S6_ET0_T_SA_S9_RSaIT1_E
FN:305,_ZSt22__uninitialized_copy_aISt13move_iteratorIPSt4pairINSt7__cxx1112basic_stringIcSt11char_traitsIcESaIcEEES7_EES9_S8_ET0_T_SC_SB_RSaIT1_E
FNDA:0,_ZSt22__uninitialized_copy_aISt13move_iteratorIPSt4pairINSt7__cxx1112basic_stringIcSt11char_traitsIcESaIcEEES7_EES9_S8_ET0_T_SC_SB_RSaIT1_E
FN:305,_ZSt22__uninitialized_copy_aISt13move_iteratorIPSt4pairIccEES3_S2_ET0_T_S6_S5_RSaIT1_E
FNDA:0,_ZSt22__uninitialized_copy_aISt13move_iteratorIPSt4pairIccEES3_S2_ET0_T_S6_S5_RSaIT1_E
FN:305,_ZSt22__uninitialized_copy_aISt13move_iteratorIPcES1_cET0_T_S4_S3_RSaIT1_E
FNDA:0,_ZSt22__uninitialized_copy_aISt13move_iteratorIPcES1_cET0_T_S4_S3_RSaIT1_E
FN:305,_ZSt22__uninitialized_copy_aISt13move_iteratorIPNSt7__cxx119sub_matchIN9__gnu_cxx17__normal_iteratorIPKcNS1_12basic_stringIcSt11char_traitsIcESaIcEEEEEEEESE_SD_ET0_T_SH_SG_RSaIT1_E
FNDA:0,_ZSt22__uninitialized_copy_aISt13move_iteratorIPNSt7__cxx119sub_matchIN9__gnu_cxx17__normal_iteratorIPKcNS1_12basic_stringIcSt11char_traitsIcESaIcEEEEEEEESE_SD_ET0_T_SH_SG_RSaIT1_E
FN:323,_ZSt34__uninitialized_move_if_noexcept_aIPSt4pairIlSt6vectorINSt7__cxx119sub_matchIN9__gnu_cxx17__normal_iteratorIPKcNS2_12basic_stringIcSt11char_traitsIcESaIcEEEEEEESaISE_EEESI_SaISH_EET0_T_SL_SK_RT1_
FNDA:0,_ZSt34__uninitialized_move_if_noexcept_aIPSt4pairIlSt6vectorINSt7__cxx119sub_matchIN9__gnu_cxx17__normal_iteratorIPKcNS2_12basic_stringIcSt11char_traitsIcESaIcEEEEEEESaISE_EEESI_SaISH_EET0_T_SL_SK_RT1_
FN:323,_ZSt34__uninitialized_move_if_noexcept_aIPmS0_SaImEET0_T_S3_S2_RT1_
FNDA:0,_ZSt34__uninitialized_move_if_noexcept_aIPmS0_SaImEET0_T_S3_S2_RT1_
FN:323,_ZSt34__uninitialized_move_if_noexcept_aIPNSt8__detail6_StateIcEES3_SaIS2_EET0_T_S6_S5_RT1_
FNDA:10,_ZSt34__uninitialized_move_if_noexcept_aIPNSt8__detail6_StateIcEES3_SaIS2_EET0_T_S6_S5_RT1_
FN:323,_ZSt34__uninitialized_move_if_noexcept_aIPNSt7__cxx119sub_matchIN9__gnu_cxx17__normal_iteratorIPKcNS0_12basic_stringIcSt11char_traitsIcESaIcEEEEEEESD_SaISC_EET0_T_SG_SF_RT1_
FNDA:0,_ZSt34__uninitialized_move_if_noexcept_aIPNSt7__cxx119sub_matchIN9__gnu_cxx17__normal_iteratorIPKcNS0_12basic_stringIcSt11char_traitsIcESaIcEEEEEEESD_SaISC_EET0_T_SG_SF_RT1_
FN:323,_ZSt34__uninitialized_move_if_noexcept_aIPSt4pairINSt7__cxx1112basic_stringIcSt11char_traitsIcESaIcEEES6_ES8_SaIS7_EET0_T_SB_SA_RT1_
FNDA:0,_ZSt34__uninitialized_move_if_noexcept_aIPSt4pairINSt7__cxx1112basic_stringIcSt11char_traitsIcESaIcEEES6_ES8_SaIS7_EET0_T_SB_SA_RT1_
FN:323,_ZSt34__uninitialized_move_if_noexcept_aIPNSt7__cxx1112regex_traitsIcE10_RegexMaskES4_SaIS3_EET0_T_S7_S6_RT1_
FNDA:0,_ZSt34__uninitialized_move_if_noexcept_aIPNSt7__cxx1112regex_traitsIcE10_RegexMaskES4_SaIS3_EET0_T_S7_S6_RT1_
FN:323,_ZSt34__uninitialized_move_if_noexcept_aIPSt4pairIccES2_SaIS1_EET0_T_S5_S4_RT1_
FNDA:0,_ZSt34__uninitialized_move_if_noexcept_aIPSt4pairIccES2_SaIS1_EET0_T_S5_S4_RT1_
FN:323,_ZSt34__uninitialized_move_if_noexcept_aIPcS0_SaIcEET0_T_S3_S2_RT1_
FNDA:0,_ZSt34__uninitialized_move_if_noexcept_aIPcS0_SaIcEET0_T_S3_S2_RT1_
FN:323,_ZSt34__uninitialized_move_if_noexcept_aIPNSt7__cxx1112basic_stringIcSt11char_traitsIcESaIcEEES6_SaIS5_EET0_T_S9_S8_RT1_
FNDA:0,_ZSt34__uninitialized_move_if_noexcept_aIPNSt7__cxx1112basic_stringIcSt11char_traitsIcESaIcEEES6_SaIS5_EET0_T_S9_S8_RT1_
FN:539,_ZNSt27__uninitialized_default_n_1ILb0EE18__uninit_default_nIPSt4pairIN9__gnu_cxx17__normal_iteratorIPKcNSt7__cxx1112basic_stringIcSt11char_traitsIcESaIcEEEEEiEmEET_SG_T0_
FNDA:17,_ZNSt27__uninitialized_default_n_1ILb0EE18__uninit_default_nIPSt4pairIN9__gnu_cxx17__normal_iteratorIPKcNSt7__cxx1112basic_stringIcSt11char_traitsIcESaIcEEEEEiEmEET_SG_T0_
FN:539,_ZNSt27__uninitialized_default_n_1ILb0EE18__uninit_default_nIPNSt7__cxx119sub_matchIN9__gnu_cxx17__normal_iteratorIPKcNS2_12basic_stringIcSt11char_traitsIcESaIcEEEEEEEmEET_SG_T0_
FNDA:5,_ZNSt27__uninitialized_default_n_1ILb0EE18__uninit_default_nIPNSt7__cxx119sub_matchIN9__gnu_cxx17__normal_iteratorIPKcNS2_12basic_stringIcSt11char_traitsIcESaIcEEEEEEEmEET_SG_T0_
FN:592,_ZSt25__uninitialized_default_nIPNSt7__cxx119sub_matchIN9__gnu_cxx17__normal_iteratorIPKcNS0_12basic_stringIcSt11char_traitsIcESaIcEEEEEEEmET_SE_T0_
FNDA:5,_ZSt25__uninitialized_default_nIPNSt7__cxx119sub_matchIN9__gnu_cxx17__normal_iteratorIPKcNS0_12basic_stringIcSt11char_traitsIcESaIcEEEEEEEmET_SE_T0_
FN:592,_ZSt25__uninitialized_default_nIPSt4pairIN9__gnu_cxx17__normal_iteratorIPKcNSt7__cxx1112basic_stringIcSt11char_traitsIcESaIcEEEEEiEmET_SE_T0_
FNDA:17,_ZSt25__uninitialized_default_nIPSt4pairIN9__gnu_cxx17__normal_iteratorIPKcNSt7__cxx1112basic_stringIcSt11char_traitsIcESaIcEEEEEiEmET_SE_T0_
FN:661,_ZSt27__uninitialized_default_n_aIPSt4pairIN9__gnu_cxx17__normal_iteratorIPKcNSt7__cxx1112basic_stringIcSt11char_traitsIcESaIcEEEEEiEmSC_ET_SE_T0_RSaIT1_E
FNDA:17,_ZSt27__uninitialized_default_n_aIPSt4pairIN9__gnu_cxx17__normal_iteratorIPKcNSt7__cxx1112basic_stringIcSt11char_traitsIcESaIcEEEEEiEmSC_ET_SE_T0_RSaIT1_E
FN:661,_ZSt27__uninitialized_default_n_aIPNSt7__cxx119sub_matchIN9__gnu_cxx17__normal_iteratorIPKcNS0_12basic_stringIcSt11char_traitsIcESaIcEEEEEEEmSC_ET_SE_T0_RSaIT1_E
FNDA:5,_ZSt27__uninitialized_default_n_aIPNSt7__cxx119sub_matchIN9__gnu_cxx17__normal_iteratorIPKcNS0_12basic_stringIcSt11char_traitsIcESaIcEEEEEEEmSC_ET_SE_T0_RSaIT1_E
FN:905,_ZSt19__relocate_object_aISt4pairIccES1_SaIS1_EEvPT_PT0_RT1_
FNDA:0,_ZSt19__relocate_object_aISt4pairIccES1_SaIS1_EEvPT_PT0_RT1_
FN:905,_ZSt19__relocate_object_aINSt7__cxx1112regex_traitsIcE10_RegexMaskES3_SaIS3_EEvPT_PT0_RT1_
FNDA:0,_ZSt19__relocate_object_aINSt7__cxx1112regex_traitsIcE10_RegexMaskES3_SaIS3_EEvPT_PT0_RT1_
FN:905,_ZSt19__relocate_object_aISt4pairINSt7__cxx1112basic_stringIcSt11char_traitsIcESaIcEEES6_ES7_SaIS7_EEvPT_PT0_RT1_
FNDA:0,_ZSt19__relocate_object_aISt4pairINSt7__cxx1112basic_stringIcSt11char_traitsIcESaIcEEES6_ES7_SaIS7_EEvPT_PT0_RT1_
FN:905,_ZSt19__relocate_object_aINSt7__cxx1112basic_stringIcSt11char_traitsIcESaIcEEES5_SaIS5_EEvPT_PT0_RT1_
FNDA:0,_ZSt19__relocate_object_aINSt7__cxx1112basic_stringIcSt11char_traitsIcESaIcEEES5_SaIS5_EEvPT_PT0_RT1_
FN:905,_ZSt19__relocate_object_aISt4pairIlSt6vectorINSt7__cxx119sub_matchIN9__gnu_cxx17__normal_iteratorIPKcNS2_12basic_stringIcSt11char_traitsIcESaIcEEEEEEESaISE_EEESH_SaISH_EEvPT_PT0_RT1_
FNDA:0,_ZSt19__relocate_object_aISt4pairIlSt6vectorINSt7__cxx119sub_matchIN9__gnu_cxx17__normal_iteratorIPKcNS2_12basic_stringIcSt11char_traitsIcESaIcEEEEEEESaISE_EEESH_SaISH_EEvPT_PT0_RT1_
FN:905,_ZSt19__relocate_object_aINSt7__cxx119sub_matchIN9__gnu_cxx17__normal_iteratorIPKcNS0_12basic_stringIcSt11char_traitsIcESaIcEEEEEEESC_SaISC_EEvPT_PT0_RT1_
FNDA:0,_ZSt19__relocate_object_aINSt7__cxx119sub_matchIN9__gnu_cxx17__normal_iteratorIPKcNS0_12basic_stringIcSt11char_traitsIcESaIcEEEEEEESC_SaISC_EEvPT_PT0_RT1_
FN:924,_ZSt14__relocate_a_1ImmENSt9enable_ifIXsrSt24__is_bitwise_relocatableIT_vE5valueEPS2_E4typeES4_S4_S4_RSaIT0_E
FNDA:2,_ZSt14__relocate_a_1ImmENSt9enable_ifIXsrSt24__is_bitwise_relocatableIT_vE5valueEPS2_E4typeES4_S4_S4_RSaIT0_E
FN:924,_ZSt14__relocate_a_1IccENSt9enable_ifIXsrSt24__is_bitwise_relocatableIT_vE5valueEPS2_E4typeES4_S4_S4_RSaIT0_E
FNDA:0,_ZSt14__relocate_a_1IccENSt9enable_ifIXsrSt24__is_bitwise_relocatableIT_vE5valueEPS2_E4typeES4_S4_S4_RSaIT0_E
FN:936,_ZSt14__relocate_a_1IPSt4pairIlSt6vectorINSt7__cxx119sub_matchIN9__gnu_cxx17__normal_iteratorIPKcNS2_12basic_stringIcSt11char_traitsIcESaIcEEEEEEESaISE_EEESI_SaISH_EET0_T_SL_SK_RT1_
FNDA:0,_ZSt14__relocate_a_1IPSt4pairIlSt6vectorINSt7__cxx119sub_matchIN9__gnu_cxx17__normal_iteratorIPKcNS2_12basic_stringIcSt11char_traitsIcESaIcEEEEEEESaISE_EEESI_SaISH_EET0_T_SL_SK_RT1_
FN:936,_ZSt14__relocate_a_1IPSt4pairINSt7__cxx1112basic_stringIcSt11char_traitsIcESaIcEEES6_ES8_SaIS7_EET0_T_SB_SA_RT1_
FNDA:0,_ZSt14__relocate_a_1IPSt4pairINSt7__cxx1112basic_stringIcSt11char_traitsIcESaIcEEES6_ES8_SaIS7_EET0_T_SB_SA_RT1_
FN:936,_ZSt14__relocate_a_1IPSt4pairIccES2_SaIS1_EET0_T_S5_S4_RT1_
FNDA:2,_ZSt14__relocate_a_1IPSt4pairIccES2_SaIS1_EET0_T_S5_S4_RT1_
FN:936,_ZSt14__relocate_a_1IPNSt7__cxx119sub_matchIN9__gnu_cxx17__normal_iteratorIPKcNS0_12basic_stringIcSt11char_traitsIcESaIcEEEEEEESD_SaISC_EET0_T_SG_SF_RT1_
FNDA:5,_ZSt14__relocate_a_1IPNSt7__cxx119sub_matchIN9__gnu_cxx17__normal_iteratorIPKcNS0_12basic_stringIcSt11char_traitsIcESaIcEEEEEEESD_SaISC_EET0_T_SG_SF_RT1_
FN:936,_ZSt14__relocate_a_1IPNSt7__cxx1112basic_stringIcSt11char_traitsIcESaIcEEES6_SaIS5_EET0_T_S9_S8_RT1_
FNDA:0,_ZSt14__relocate_a_1IPNSt7__cxx1112basic_stringIcSt11char_traitsIcESaIcEEES6_SaIS5_EET0_T_S9_S8_RT1_
FN:936,_ZSt14__relocate_a_1IPNSt7__cxx1112regex_traitsIcE10_RegexMaskES4_SaIS3_EET0_T_S7_S6_RT1_
FNDA:0,_ZSt14__relocate_a_1IPNSt7__cxx1112regex_traitsIcE10_RegexMaskES4_SaIS3_EET0_T_S7_S6_RT1_
FN:958,_ZSt12__relocate_aIPcS0_SaIcEET0_T_S3_S2_RT1_
FNDA:0,_ZSt12__relocate_aIPcS0_SaIcEET0_T_S3_S2_RT1_
FN:958,_ZSt12__relocate_aIPNSt7__cxx1112basic_stringIcSt11char_traitsIcESaIcEEES6_SaIS5_EET0_T_S9_S8_RT1_
FNDA:0,_ZSt12__relocate_aIPNSt7__cxx1112basic_stringIcSt11char_traitsIcESaIcEEES6_SaIS5_EET0_T_S9_S8_RT1_
FN:958,_ZSt12__relocate_aIPSt4pairIccES2_SaIS1_EET0_T_S5_S4_RT1_
FNDA:2,_ZSt12__relocate_aIPSt4pairIccES2_SaIS1_EET0_T_S5_S4_RT1_
FN:958,_ZSt12__relocate_aIPmS0_SaImEET0_T_S3_S2_RT1_
FNDA:2,_ZSt12__relocate_aIPmS0_SaImEET0_T_S3_S2_RT1_
FN:958,_ZSt12__relocate_aIPSt4pairINSt7__cxx1112basic_stringIcSt11char_traitsIcESaIcEEES6_ES8_SaIS7_EET0_T_SB_SA_RT1_
FNDA:0,_ZSt12__relocate_aIPSt4pairINSt7__cxx1112basic_stringIcSt11char_traitsIcESaIcEEES6_ES8_SaIS7_EET0_T_SB_SA_RT1_
FN:958,_ZSt12__relocate_aIPNSt7__cxx1112regex_traitsIcE10_RegexMaskES4_SaIS3_EET0_T_S7_S6_RT1_
FNDA:0,_ZSt12__relocate_aIPNSt7__cxx1112regex_traitsIcE10_RegexMaskES4_SaIS3_EET0_T_S7_S6_RT1_
FN:958,_ZSt12__relocate_aIPNSt7__cxx119sub_matchIN9__gnu_cxx17__normal_iteratorIPKcNS0_12basic_stringIcSt11char_traitsIcESaIcEEEEEEESD_SaISC_EET0_T_SG_SF_RT1_
FNDA:5,_ZSt12__relocate_aIPNSt7__cxx119sub_matchIN9__gnu_cxx17__normal_iteratorIPKcNS0_12basic_stringIcSt11char_traitsIcESaIcEEEEEEESD_SaISC_EET0_T_SG_SF_RT1_
FN:958,_ZSt12__relocate_aIPSt4pairIlSt6vectorINSt7__cxx119sub_matchIN9__gnu_cxx17__normal_iteratorIPKcNS2_12basic_stringIcSt11char_traitsIcESaIcEEEEEEESaISE_EEESI_SaISH_EET0_T_SL_SK_RT1_
FNDA:0,_ZSt12__relocate_aIPSt4pairIlSt6vectorINSt7__cxx119sub_matchIN9__gnu_cxx17__normal_iteratorIPKcNS2_12basic_stringIcSt11char_traitsIcESaIcEEEEEEESaISE_EEESI_SaISH_EET0_T_SL_SK_RT1_
DA:76,0
DA:79,0
DA:82,0
DA:83,0
DA:84,0
DA:86,0
DA:88,0
DA:89,0
DA:76,0
DA:79,0
DA:82,0
DA:83,0
DA:84,0
DA:86,0
DA:88,0
DA:89,0
DA:76,0
DA:79,0
DA:82,0
DA:83,0
DA:84,0
DA:86,0
DA:88,0
DA:89,0
DA:76,0
DA:79,0
DA:82,0
DA:83,0
DA:84,0
DA:86,0
DA:88,0
DA:89,0
DA:76,8
DA:79,8
DA:82,8
DA:83,0
DA:84,8
DA:76,8
DA:79,8
DA:82,16
DA:83,8
DA:84,8
DA:76,8
DA:79,8
DA:82,8
DA:83,0
DA:84,8
DA:86,0
DA:88,0
DA:89,0
DA:76,0
DA:79,0
DA:82,0
DA:83,0
DA:84,0
DA:86,0
DA:88,0
DA:89,0
DA:76,10
DA:79,10
DA:82,25
DA:83,15
DA:84,10
DA:86,0
DA:88,0
DA:89,0
DA:76,0
DA:79,0
DA:82,0
DA:83,0
DA:84,0
DA:86,0
DA:88,0
DA:89,0
DA:76,0
DA:79,0
DA:82,0
DA:83,0
DA:84,0
DA:86,0
DA:88,0
DA:89,0
DA:76,0
DA:79,0
DA:82,0
DA:83,0
DA:84,0
DA:76,29
DA:79,29
DA:82,145
DA:83,116
DA:84,29
DA:99,0
DA:101,0
DA:99,246
DA:101,246
DA:99,8
DA:101,8
DA:99,0
DA:101,0
DA:115,8
DA:134,8
DA:140,8
DA:115,29
DA:134,29
DA:140,29
DA:115,0
DA:134,0
DA:140,0
DA:115,0
DA:134,0
DA:140,0
DA:115,0
DA:134,0
DA:140,0
DA:115,0
DA:134,0
DA:140,0
DA:115,10
DA:134,10
DA:140,10
DA:115,0
DA:134,0
DA:140,0
DA:115,8
DA:134,8
DA:140,8
DA:115,0
DA:134,0
DA:140,0
DA:115,8
DA:134,8
DA:140,8
DA:115,8
DA:134,8
DA:140,8
DA:115,0
DA:134,0
DA:140,0
DA:115,246
DA:134,246
DA:140,246
DA:115,0
DA:134,0
DA:140,0
DA:115,0
DA:134,0
DA:140,0
DA:115,0
DA:134,0
DA:140,0
DA:305,8
DA:307,8
DA:305,29
DA:307,29
DA:305,0
DA:307,0
DA:305,0
DA:307,0
DA:305,0
DA:307,0
DA:305,0
DA:307,0
DA:305,10
DA:307,10
DA:305,0
DA:307,0
DA:305,8
DA:307,8
DA:305,0
DA:307,0
DA:305,8
DA:307,8
DA:305,8
DA:307,8
DA:305,0
DA:307,0
DA:305,246
DA:307,246
DA:305,0
DA:307,0
DA:305,0
DA:307,0
DA:305,0
DA:307,0
DA:323,0
DA:329,0
DA:330,0
DA:323,0
DA:329,0
DA:330,0
DA:323,0
DA:329,0
DA:330,0
DA:323,0
DA:329,0
DA:330,0
DA:323,0
DA:329,0
DA:330,0
DA:323,10
DA:329,10
DA:330,10
DA:323,0
DA:329,0
DA:330,0
DA:323,0
DA:329,0
DA:330,0
DA:323,0
DA:329,0
DA:330,0
DA:539,17
DA:541,17
DA:544,170
DA:545,153
DA:546,17
DA:548,0
DA:550,0
DA:551,0
DA:539,5
DA:541,5
DA:544,25
DA:545,20
DA:546,5
DA:592,17
DA:597,17
DA:601,17
DA:592,5
DA:597,5
DA:601,5
DA:661,17
DA:663,17
DA:661,5
DA:663,5
DA:905,0
DA:912,0
DA:913,0
DA:914,0
DA:905,0
DA:912,0
DA:913,0
DA:914,0
DA:905,0
DA:912,0
DA:913,0
DA:914,0
DA:905,0
DA:912,0
DA:913,0
DA:914,0
DA:905,0
DA:912,0
DA:913,0
DA:914,0
DA:905,0
DA:912,0
DA:913,0
DA:914,0
DA:924,0
DA:927,0
DA:928,0
DA:929,0
DA:930,0
DA:924,2
DA:927,2
DA:928,2
DA:929,0
DA:930,2
DA:936,0
DA:948,0
DA:949,0
DA:950,0
DA:952,0
DA:936,2
DA:948,2
DA:949,2
DA:950,0
DA:952,2
DA:936,0
DA:948,0
DA:949,0
DA:950,0
DA:952,0
DA:936,0
DA:948,0
DA:949,0
DA:950,0
DA:952,0
DA:936,0
DA:948,0
DA:949,0
DA:950,0
DA:952,0
DA:936,5
DA:948,5
DA:949,5
DA:950,0
DA:952,5
DA:958,0
DA:964,0
DA:966,0
DA:958,2
DA:964,2
DA:966,2
DA:958,0
DA:964,0
DA:966,0
DA:958,0
DA:964,0
DA:966,0
DA:958,0
DA:964,0
DA:966,0
DA:958,0
DA:964,0
DA:966,0
DA:958,2
DA:964,2
DA:966,2
DA:958,5
DA:964,5
DA:966,5
end_of_record
SF:/usr/include/c++/9/bits/stl_pair.h
FN:229,_ZNSt4pairIN9__gnu_cxx17__normal_iteratorIPKcNSt7__cxx1112basic_stringIcSt11char_traitsIcESaIcEEEEESA_EC2ISA_SA_Lb1EEEv
FNDA:20,_ZNSt4pairIN9__gnu_cxx17__normal_iteratorIPKcNSt7__cxx1112basic_stringIcSt11char_traitsIcESaIcEEEEESA_EC2ISA_SA_Lb1EEEv
FN:229,_ZNSt4pairIN9__gnu_cxx17__normal_iteratorIPKcNSt7__cxx1112basic_stringIcSt11char_traitsIcESaIcEEEEEiEC2ISA_iLb1EEEv
FNDA:153,_ZNSt4pairIN9__gnu_cxx17__normal_iteratorIPKcNSt7__cxx1112basic_stringIcSt11char_traitsIcESaIcEEEEEiEC2ISA_iLb1EEEv
FN:303,_ZNSt4pairINSt7__cxx1112basic_stringIcSt11char_traitsIcESaIcEEES5_EC2ERKS6_
FNDA:0,_ZNSt4pairINSt7__cxx1112basic_stringIcSt11char_traitsIcESaIcEEES5_EC2ERKS6_
FN:304,_ZNSt4pairIlSt6vectorINSt7__cxx119sub_matchIN9__gnu_cxx17__normal_iteratorIPKcNS1_12basic_stringIcSt11char_traitsIcESaIcEEEEEEESaISD_EEEC2EOSG_
FNDA:0,_ZNSt4pairIlSt6vectorINSt7__cxx119sub_matchIN9__gnu_cxx17__normal_iteratorIPKcNS1_12basic_stringIcSt11char_traitsIcESaIcEEEEEEESaISD_EEEC2EOSG_
FN:304,_ZNSt4pairINSt7__cxx1112basic_stringIcSt11char_traitsIcESaIcEEES5_EC2EOS6_
FNDA:0,_ZNSt4pairINSt7__cxx1112basic_stringIcSt11char_traitsIcESaIcEEES5_EC2EOS6_
FN:311,_ZNSt4pairIPSt18_Rb_tree_node_baseS1_EC2IRS1_Lb1EEEOT_RKS1_
FNDA:0,_ZNSt4pairIPSt18_Rb_tree_node_baseS1_EC2IRS1_Lb1EEEOT_RKS1_
FN:311,_ZNSt4pairIlSt6vectorINSt7__cxx119sub_matchIN9__gnu_cxx17__normal_iteratorIPKcNS1_12basic_stringIcSt11char_traitsIcESaIcEEEEEEESaISD_EEEC2IRlLb1EEEOT_RKSF_
FNDA:0,_ZNSt4pairIlSt6vectorINSt7__cxx119sub_matchIN9__gnu_cxx17__normal_iteratorIPKcNS1_12basic_stringIcSt11char_traitsIcESaIcEEEEEEESaISD_EEEC2IRlLb1EEEOT_RKSF_
FN:325,_ZNSt4pairIPSt18_Rb_tree_node_baseS1_EC2IRS1_Lb1EEERKS1_OT_
FNDA:0,_ZNSt4pairIPSt18_Rb_tree_node_baseS1_EC2IRS1_Lb1EEERKS1_OT_
FN:341,_ZNSt4pairIPSt18_Rb_tree_node_baseS1_EC2IRPSt13_Rb_tree_nodeIS_IKllEERS1_Lb1EEEOT_OT0_
FNDA:2,_ZNSt4pairIPSt18_Rb_tree_node_baseS1_EC2IRPSt13_Rb_tree_nodeIS_IKllEERS1_Lb1EEEOT_OT0_
FN:341,_ZNSt4pairINSt7__cxx1112basic_stringIcSt11char_traitsIcESaIcEEES5_EC2IS5_S5_Lb1EEEOT_OT0_
FNDA:0,_ZNSt4pairINSt7__cxx1112basic_stringIcSt11char_traitsIcESaIcEEES5_EC2IS5_S5_Lb1EEEOT_OT0_
FN:341,_ZNSt4pairIPSt18_Rb_tree_node_baseS1_EC2IRS1_S4_Lb1EEEOT_OT0_
FNDA:0,_ZNSt4pairIPSt18_Rb_tree_node_baseS1_EC2IRS1_S4_Lb1EEEOT_OT0_
FN:341,_ZNSt4pairIccEC1IccLb1EEEOT_OT0_
FNDA:1,_ZNSt4pairIccEC1IccLb1EEEOT_OT0_
FN:378,_ZNSt4pairIN9__gnu_cxx17__normal_iteratorIPKcNSt7__cxx1112basic_stringIcSt11char_traitsIcESaIcEEEEEiEaSERKSB_
FNDA:13,_ZNSt4pairIN9__gnu_cxx17__normal_iteratorIPKcNSt7__cxx1112basic_stringIcSt11char_traitsIcESaIcEEEEEiEaSERKSB_
FN:378,_ZNSt4pairIN9__gnu_cxx17__normal_iteratorIPKcNSt7__cxx1112basic_stringIcSt11char_traitsIcESaIcEEEEESA_EaSERKSB_
FNDA:116,_ZNSt4pairIN9__gnu_cxx17__normal_iteratorIPKcNSt7__cxx1112basic_stringIcSt11char_traitsIcESaIcEEEEESA_EaSERKSB_
FN:524,_ZSt9make_pairINSt7__cxx1112basic_stringIcSt11char_traitsIcESaIcEEES5_ESt4pairINSt17__decay_and_stripIT_E6__typeENS7_IT0_E6__typeEEOS8_OSB_
FNDA:0,_ZSt9make_pairINSt7__cxx1112basic_stringIcSt11char_traitsIcESaIcEEES5_ESt4pairINSt17__decay_and_stripIT_E6__typeENS7_IT0_E6__typeEEOS8_OSB_
FN:524,_ZSt9make_pairIccESt4pairINSt17__decay_and_stripIT_E6__typeENS1_IT0_E6__typeEEOS2_OS5_
FNDA:1,_ZSt9make_pairIccESt4pairINSt17__decay_and_stripIT_E6__typeENS1_IT0_E6__typeEEOS2_OS5_
DA:229,20
DA:230,20
DA:229,153
DA:230,153
DA:303,0
DA:304,0
DA:304,0
DA:311,0
DA:312,0
DA:311,0
DA:312,0
DA:325,0
DA:326,0
DA:341,2
DA:342,2
DA:341,0
DA:342,0
DA:341,0
DA:342,0
DA:341,1
DA:342,1
DA:378,13
DA:383,13
DA:384,13
DA:385,13
DA:378,116
DA:383,116
DA:384,116
DA:385,116
DA:524,0
DA:529,0
DA:524,1
DA:529,1
end_of_record
SF:/usr/include/c++/9/typeinfo
FN:120,_ZNKSt9type_infoeqERKS_
FNDA:0,_ZNKSt9type_infoeqERKS_
DA:120,0
DA:122,0
DA:123,0
DA:124,0
end_of_record
SF:/usr/include/c++/9/bits/move.h
FN:47,_ZSt11__addressofISaISt23_Sp_counted_ptr_inplaceINSt8__detail4_NFAINSt7__cxx1112regex_traitsIcEEEESaIS6_ELN9__gnu_cxx12_Lock_policyE2EEEEPT_RSC_
FNDA:2,_ZSt11__addressofISaISt23_Sp_counted_ptr_inplaceINSt8__detail4_NFAINSt7__cxx1112regex_traitsIcEEEESaIS6_ELN9__gnu_cxx12_Lock_policyE2EEEEPT_RSC_
FN:47,_ZSt11__addressofINSt8__detail6_StateIcEEEPT_RS3_
FNDA:39,_ZSt11__addressofINSt8__detail6_StateIcEEEPT_RS3_
FN:47,_ZSt11__addressofIKNSt8__detail11_AnyMatcherINSt7__cxx1112regex_traitsIcEELb0ELb0ELb0EEEEPT_RS7_
FNDA:0,_ZSt11__addressofIKNSt8__detail11_AnyMatcherINSt7__cxx1112regex_traitsIcEELb0ELb0ELb0EEEEPT_RS7_
FN:47,_ZSt11__addressofIKNSt8__detail11_AnyMatcherINSt7__cxx1112regex_traitsIcEELb0ELb0ELb1EEEEPT_RS7_
FNDA:0,_ZSt11__addressofIKNSt8__detail11_AnyMatcherINSt7__cxx1112regex_traitsIcEELb0ELb0ELb1EEEEPT_RS7_
FN:47,_ZSt11__addressofIKNSt8__detail11_AnyMatcherINSt7__cxx1112regex_traitsIcEELb0ELb1ELb0EEEEPT_RS7_
FNDA:0,_ZSt11__addressofIKNSt8__detail11_AnyMatcherINSt7__cxx1112regex_traitsIcEELb0ELb1ELb0EEEEPT_RS7_
FN:47,_ZSt11__addressofIKNSt8__detail11_AnyMatcherINSt7__cxx1112regex_traitsIcEELb0ELb1ELb1EEEEPT_RS7_
FNDA:0,_ZSt11__addressofIKNSt8__detail11_AnyMatcherINSt7__cxx1112regex_traitsIcEELb0ELb1ELb1EEEEPT_RS7_
FN:47,_ZSt11__addressofIKNSt8__detail11_AnyMatcherINSt7__cxx1112regex_traitsIcEELb1ELb0ELb0EEEEPT_RS7_
FNDA:0,_ZSt11__addressofIKNSt8__detail11_AnyMatcherINSt7__cxx1112regex_traitsIcEELb1ELb0ELb0EEEEPT_RS7_
FN:47,_ZSt11__addressofIKNSt8__detail11_AnyMatcherINSt7__cxx1112regex_traitsIcEELb1ELb0ELb1EEEEPT_RS7_
FNDA:0,_ZSt11__addressofIKNSt8__detail11_AnyMatcherINSt7__cxx1112regex_traitsIcEELb1ELb0ELb1EEEEPT_RS7_
FN:47,_ZSt11__addressofIKNSt8__detail11_AnyMatcherINSt7__cxx1112regex_traitsIcEELb1ELb1ELb0EEEEPT_RS7_
FNDA:0,_ZSt11__addressofIKNSt8__detail11_AnyMatcherINSt7__cxx1112regex_traitsIcEELb1ELb1ELb0EEEEPT_RS7_
FN:47,_ZSt11__addressofIKNSt8__detail11_AnyMatcherINSt7__cxx1112regex_traitsIcEELb1ELb1ELb1EEEEPT_RS7_
FNDA:0,_ZSt11__addressofIKNSt8__detail11_AnyMatcherINSt7__cxx1112regex_traitsIcEELb1ELb1ELb1EEEEPT_RS7_
FN:47,_ZSt11__addressofIKNSt8__detail12_CharMatcherINSt7__cxx1112regex_traitsIcEELb0ELb0EEEEPT_RS7_
FNDA:0,_ZSt11__addressofIKNSt8__detail12_CharMatcherINSt7__cxx1112regex_traitsIcEELb0ELb0EEEEPT_RS7_
FN:47,_ZSt11__addressofIKNSt8__detail12_CharMatcherINSt7__cxx1112regex_traitsIcEELb0ELb1EEEEPT_RS7_
FNDA:0,_ZSt11__addressofIKNSt8__detail12_CharMatcherINSt7__cxx1112regex_traitsIcEELb0ELb1EEEEPT_RS7_
FN:47,_ZSt11__addressofIKNSt8__detail12_CharMatcherINSt7__cxx1112regex_traitsIcEELb1ELb0EEEEPT_RS7_
FNDA:0,_ZSt11__addressofIKNSt8__detail12_CharMatcherINSt7__cxx1112regex_traitsIcEELb1ELb0EEEEPT_RS7_
FN:47,_ZSt11__addressofIKNSt8__detail12_CharMatcherINSt7__cxx1112regex_traitsIcEELb1ELb1EEEEPT_RS7_
FNDA:0,_ZSt11__addressofIKNSt8__detail12_CharMatcherINSt7__cxx1112regex_traitsIcEELb1ELb1EEEEPT_RS7_
FN:47,_ZSt11__addressofINSt7__cxx1112basic_stringIcSt11char_traitsIcESaIcEEEEPT_RS6_
FNDA:0,_ZSt11__addressofINSt7__cxx1112basic_stringIcSt11char_traitsIcESaIcEEEEPT_RS6_
FN:47,_ZSt11__addressofISt4pairINSt7__cxx1112basic_stringIcSt11char_traitsIcESaIcEEES6_EEPT_RS8_
FNDA:0,_ZSt11__addressofISt4pairINSt7__cxx1112basic_stringIcSt11char_traitsIcESaIcEEES6_EEPT_RS8_
FN:47,_ZSt11__addressofIKcEPT_RS1_
FNDA:1,_ZSt11__addressofIKcEPT_RS1_
FN:47,_ZSt11__addressofINSt7__cxx119sub_matchIN9__gnu_cxx17__normal_iteratorIPKcNS0_12basic_stringIcSt11char_traitsIcESaIcEEEEEEEEPT_RSD_
FNDA:136,_ZSt11__addressofINSt7__cxx119sub_matchIN9__gnu_cxx17__normal_iteratorIPKcNS0_12basic_stringIcSt11char_traitsIcESaIcEEEEEEEEPT_RSD_
FN:47,_ZSt11__addressofISt4pairIccEEPT_RS2_
FNDA:8,_ZSt11__addressofISt4pairIccEEPT_RS2_
FN:47,_ZSt11__addressofINSt7__cxx1112regex_traitsIcE10_RegexMaskEEPT_RS4_
FNDA:0,_ZSt11__addressofINSt7__cxx1112regex_traitsIcE10_RegexMaskEEPT_RS4_
FN:47,_ZSt11__addressofISt4pairIlSt6vectorINSt7__cxx119sub_matchIN9__gnu_cxx17__normal_iteratorIPKcNS2_12basic_stringIcSt11char_traitsIcESaIcEEEEEEESaISE_EEEEPT_RSI_
FNDA:0,_ZSt11__addressofISt4pairIlSt6vectorINSt7__cxx119sub_matchIN9__gnu_cxx17__normal_iteratorIPKcNS2_12basic_stringIcSt11char_traitsIcESaIcEEEEEEESaISE_EEEEPT_RSI_
FN:47,_ZSt11__addressofISt4pairIN9__gnu_cxx17__normal_iteratorIPKcNSt7__cxx1112basic_stringIcSt11char_traitsIcESaIcEEEEEiEEPT_RSD_
FNDA:153,_ZSt11__addressofISt4pairIN9__gnu_cxx17__normal_iteratorIPKcNSt7__cxx1112basic_stringIcSt11char_traitsIcESaIcEEEEEiEEPT_RSD_
FN:74,_ZSt7forwardIRKmEOT_RNSt16remove_referenceIS2_E4typeE
FNDA:3,_ZSt7forwardIRKmEOT_RNSt16remove_referenceIS2_E4typeE
FN:74,_ZSt7forwardIcEOT_RNSt16remove_referenceIS0_E4typeE
FNDA:74,_ZSt7forwardIcEOT_RNSt16remove_referenceIS0_E4typeE
FN:74,_ZSt7forwardIRKNSt7__cxx119sub_matchIN9__gnu_cxx17__normal_iteratorIPKcNS0_12basic_stringIcSt11char_traitsIcESaIcEEEEEEEEOT_RNSt16remove_referenceISF_E4typeE
FNDA:116,_ZSt7forwardIRKNSt7__cxx119sub_matchIN9__gnu_cxx17__normal_iteratorIPKcNS0_12basic_stringIcSt11char_traitsIcESaIcEEEEEEEEOT_RNSt16remove_referenceISF_E4typeE
FN:74,_ZSt7forwardIRKSt6localeEOT_RNSt16remove_referenceIS3_E4typeE
FNDA:8,_ZSt7forwardIRKSt6localeEOT_RNSt16remove_referenceIS3_E4typeE
FN:74,_ZSt7forwardIRNSt15regex_constants18syntax_option_typeEEOT_RNSt16remove_referenceIS3_E4typeE
FNDA:8,_ZSt7forwardIRNSt15regex_constants18syntax_option_typeEEOT_RNSt16remove_referenceIS3_E4typeE
FN:74,_ZSt7forwardIRNSt7__cxx119sub_matchIN9__gnu_cxx17__normal_iteratorIPKcNS0_12basic_stringIcSt11char_traitsIcESaIcEEEEEEEEOT_RNSt16remove_referenceISE_E4typeE
FNDA:0,_ZSt7forwardIRNSt7__cxx119sub_matchIN9__gnu_cxx17__normal_iteratorIPKcNS0_12basic_stringIcSt11char_traitsIcESaIcEEEEEEEEOT_RNSt16remove_referenceISE_E4typeE
FN:74,_ZSt7forwardIRlEOT_RNSt16remove_referenceIS1_E4typeE
FNDA:0,_ZSt7forwardIRlEOT_RNSt16remove_referenceIS1_E4typeE
FN:74,_ZSt7forwardIRKSt6vectorINSt7__cxx119sub_matchIN9__gnu_cxx17__normal_iteratorIPKcNS1_12basic_stringIcSt11char_traitsIcESaIcEEEEEEESaISD_EEEOT_RNSt16remove_referenceISI_E4typeE
FNDA:0,_ZSt7forwardIRKSt6vectorINSt7__cxx119sub_matchIN9__gnu_cxx17__normal_iteratorIPKcNS1_12basic_stringIcSt11char_traitsIcESaIcEEEEEEESaISD_EEEOT_RNSt16remove_referenceISI_E4typeE
FN:74,_ZSt7forwardISt5tupleIJEEEOT_RNSt16remove_referenceIS2_E4typeE
FNDA:10,_ZSt7forwardISt5tupleIJEEEOT_RNSt16remove_referenceIS2_E4typeE
FN:74,_ZSt7forwardISt5tupleIJRKlEEEOT_RNSt16remove_referenceIS4_E4typeE
FNDA:10,_ZSt7forwardISt5tupleIJRKlEEEOT_RNSt16remove_referenceIS4_E4typeE
FN:74,_ZSt7forwardINSt8__detail6_StateIcEEEOT_RNSt16remove_referenceIS3_E4typeE
FNDA:32,_ZSt7forwardINSt8__detail6_StateIcEEEOT_RNSt16remove_referenceIS3_E4typeE
FN:74,_ZSt7forwardINSt8__detail9_StateSeqINSt7__cxx1112regex_traitsIcEEEEEOT_RNSt16remove_referenceIS6_E4typeE
FNDA:6,_ZSt7forwardINSt8__detail9_StateSeqINSt7__cxx1112regex_traitsIcEEEEEOT_RNSt16remove_referenceIS6_E4typeE
FN:74,_ZSt7forwardIRKSt21piecewise_construct_tEOT_RNSt16remove_referenceIS3_E4typeE
FNDA:10,_ZSt7forwardIRKSt21piecewise_construct_tEOT_RNSt16remove_referenceIS3_E4typeE
FN:74,_ZSt7forwardIRKSt4pairIccEEOT_RNSt16remove_referenceIS4_E4typeE
FNDA:8,_ZSt7forwardIRKSt4pairIccEEOT_RNSt16remove_referenceIS4_E4typeE
FN:74,_ZSt7forwardINSt7__cxx119sub_matchIN9__gnu_cxx17__normal_iteratorIPKcNS0_12basic_stringIcSt11char_traitsIcESaIcEEEEEEEEOT_RNSt16remove_referenceISD_E4typeE
FNDA:0,_ZSt7forwardINSt7__cxx119sub_matchIN9__gnu_cxx17__normal_iteratorIPKcNS0_12basic_stringIcSt11char_traitsIcESaIcEEEEEEEEOT_RNSt16remove_referenceISD_E4typeE
FN:74,_ZSt7forwardIRKNSt8__detail9_StateSeqINSt7__cxx1112regex_traitsIcEEEEEOT_RNSt16remove_referenceIS8_E4typeE
FNDA:4,_ZSt7forwardIRKNSt8__detail9_StateSeqINSt7__cxx1112regex_traitsIcEEEEEOT_RNSt16remove_referenceIS8_E4typeE
FN:74,_ZSt7forwardISt4pairIlSt6vectorINSt7__cxx119sub_matchIN9__gnu_cxx17__normal_iteratorIPKcNS2_12basic_stringIcSt11char_traitsIcESaIcEEEEEEESaISE_EEEEOT_RNSt16remove_referenceISI_E4typeE
FNDA:0,_ZSt7forwardISt4pairIlSt6vectorINSt7__cxx119sub_matchIN9__gnu_cxx17__normal_iteratorIPKcNS2_12basic_stringIcSt11char_traitsIcESaIcEEEEEEESaISE_EEEEOT_RNSt16remove_referenceISI_E4typeE
FN:74,_ZSt7forwardIRKSt4pairINSt7__cxx1112basic_stringIcSt11char_traitsIcESaIcEEES6_EEOT_RNSt16remove_referenceISA_E4typeE
FNDA:0,_ZSt7forwardIRKSt4pairINSt7__cxx1112basic_stringIcSt11char_traitsIcESaIcEEES6_EEOT_RNSt16remove_referenceISA_E4typeE
FN:74,_ZSt7forwardINSt7__cxx1112regex_traitsIcE10_RegexMaskEEOT_RNSt16remove_referenceIS4_E4typeE
FNDA:0,_ZSt7forwardINSt7__cxx1112regex_traitsIcE10_RegexMaskEEOT_RNSt16remove_referenceIS4_E4typeE
FN:74,_ZSt7forwardIRPSt13_Rb_tree_nodeISt4pairIKllEEEOT_RNSt16remove_referenceIS7_E4typeE
FNDA:2,_ZSt7forwardIRPSt13_Rb_tree_nodeISt4pairIKllEEEOT_RNSt16remove_referenceIS7_E4typeE
FN:74,_ZSt7forwardISt4pairINSt7__cxx1112basic_stringIcSt11char_traitsIcESaIcEEES6_EEOT_RNSt16remove_referenceIS8_E4typeE
FNDA:0,_ZSt7forwardISt4pairINSt7__cxx1112basic_stringIcSt11char_traitsIcESaIcEEES6_EEOT_RNSt16remove_referenceIS8_E4typeE
FN:74,_ZSt7forwardISt4pairIccEEOT_RNSt16remove_referenceIS2_E4typeE
FNDA:4,_ZSt7forwardISt4pairIccEEOT_RNSt16remove_referenceIS2_E4typeE
FN:74,_ZSt7forwardIRKNSt7__cxx1112basic_stringIcSt11char_traitsIcESaIcEEEEOT_RNSt16remove_referenceIS8_E4typeE
FNDA:0,_ZSt7forwardIRKNSt7__cxx1112basic_stringIcSt11char_traitsIcESaIcEEEEOT_RNSt16remove_referenceIS8_E4typeE
FN:74,_ZSt7forwardIRKNSt8__detail6_StateIcEEEOT_RNSt16remove_referenceIS5_E4typeE
FNDA:15,_ZSt7forwardIRKNSt8__detail6_StateIcEEEOT_RNSt16remove_referenceIS5_E4typeE
FN:74,_ZSt7forwardIRKlEOT_RNSt16remove_referenceIS2_E4typeE
FNDA:8,_ZSt7forwardIRKlEOT_RNSt16remove_referenceIS2_E4typeE
FN:74,_ZSt7forwardIRPSt18_Rb_tree_node_baseEOT_RNSt16remove_referenceIS3_E4typeE
FNDA:2,_ZSt7forwardIRPSt18_Rb_tree_node_baseEOT_RNSt16remove_referenceIS3_E4typeE
FN:74,_ZSt7forwardIRKNSt7__cxx1112regex_traitsIcE10_RegexMaskEEOT_RNSt16remove_referenceIS6_E4typeE
FNDA:0,_ZSt7forwardIRKNSt7__cxx1112regex_traitsIcE10_RegexMaskEEOT_RNSt16remove_referenceIS6_E4typeE
FN:74,_ZSt7forwardINSt7__cxx1112basic_stringIcSt11char_traitsIcESaIcEEEEOT_RNSt16remove_referenceIS6_E4typeE
FNDA:0,_ZSt7forwardINSt7__cxx1112basic_stringIcSt11char_traitsIcESaIcEEEEOT_RNSt16remove_referenceIS6_E4typeE
FN:99,_ZSt4moveIRPFbRKSt9_Any_dataOcEEONSt16remove_referenceIT_E4typeEOS8_
FNDA:24,_ZSt4moveIRPFbRKSt9_Any_dataOcEEONSt16remove_referenceIT_E4typeEOS8_
FN:99,_ZSt4moveIRNSt12_Vector_baseIcSaIcEE12_Vector_implEEONSt16remove_referenceIT_E4typeEOS6_
FNDA:4,_ZSt4moveIRNSt12_Vector_baseIcSaIcEE12_Vector_implEEONSt16remove_referenceIT_E4typeEOS6_
FN:99,_ZSt4moveIRPFbRSt9_Any_dataRKS0_St18_Manager_operationEEONSt16remove_referenceIT_E4typeEOS9_
FNDA:24,_ZSt4moveIRPFbRSt9_Any_dataRKS0_St18_Manager_operationEEONSt16remove_referenceIT_E4typeEOS9_
FN:99,_ZSt4moveIRSt9_Any_dataEONSt16remove_referenceIT_E4typeEOS3_
FNDA:24,_ZSt4moveIRSt9_Any_dataEONSt16remove_referenceIT_E4typeEOS3_
FN:99,_ZSt4moveIRNSt12_Vector_baseISt4pairINSt7__cxx1112basic_stringIcSt11char_traitsIcESaIcEEES7_ESaIS8_EE12_Vector_implEEONSt16remove_referenceIT_E4typeEOSE_
FNDA:0,_ZSt4moveIRNSt12_Vector_baseISt4pairINSt7__cxx1112basic_stringIcSt11char_traitsIcESaIcEEES7_ESaIS8_EE12_Vector_implEEONSt16remove_referenceIT_E4typeEOSE_
FN:99,_ZSt4moveIRNSt7__cxx119sub_matchIN9__gnu_cxx17__normal_iteratorIPKcNS0_12basic_stringIcSt11char_traitsIcESaIcEEEEEEEEONSt16remove_referenceIT_E4typeEOSF_
FNDA:0,_ZSt4moveIRNSt7__cxx119sub_matchIN9__gnu_cxx17__normal_iteratorIPKcNS0_12basic_stringIcSt11char_traitsIcESaIcEEEEEEEEONSt16remove_referenceIT_E4typeEOSF_
FN:99,_ZSt4moveIRSt4pairINSt7__cxx1112basic_stringIcSt11char_traitsIcESaIcEEES6_EEONSt16remove_referenceIT_E4typeEOSA_
FNDA:0,_ZSt4moveIRSt4pairINSt7__cxx1112basic_stringIcSt11char_traitsIcESaIcEEES6_EEONSt16remove_referenceIT_E4typeEOSA_
FN:99,_ZSt4moveIRNSt12_Vector_baseISt4pairIlSt6vectorINSt7__cxx119sub_matchIN9__gnu_cxx17__normal_iteratorIPKcNS3_12basic_stringIcSt11char_traitsIcESaIcEEEEEEESaISF_EEESaISI_EE12_Vector_implEEONSt16remove_referenceIT_E4typeEOSO_
FNDA:0,_ZSt4moveIRNSt12_Vector_baseISt4pairIlSt6vectorINSt7__cxx119sub_matchIN9__gnu_cxx17__normal_iteratorIPKcNS3_12basic_stringIcSt11char_traitsIcESaIcEEEEEEESaISF_EEESaISI_EE12_Vector_implEEONSt16remove_referenceIT_E4typeEOSO_
FN:99,_ZSt4moveIRNSt8__detail9_StateSeqINSt7__cxx1112regex_traitsIcEEEEEONSt16remove_referenceIT_E4typeEOS8_
FNDA:4,_ZSt4moveIRNSt8__detail9_StateSeqINSt7__cxx1112regex_traitsIcEEEEEONSt16remove_referenceIT_E4typeEOS8_
FN:99,_ZSt4moveIRSt8functionIFbcEEEONSt16remove_referenceIT_E4typeEOS5_
FNDA:8,_ZSt4moveIRSt8functionIFbcEEEONSt16remove_referenceIT_E4typeEOS5_
FN:99,_ZSt4moveIRSt4pairIccEEONSt16remove_referenceIT_E4typeEOS4_
FNDA:1,_ZSt4moveIRSt4pairIccEEONSt16remove_referenceIT_E4typeEOS4_
FN:99,_ZSt4moveIRSt6vectorINSt7__cxx119sub_matchIN9__gnu_cxx17__normal_iteratorIPKcNS1_12basic_stringIcSt11char_traitsIcESaIcEEEEEEESaISD_EEEONSt16remove_referenceIT_E4typeEOSI_
FNDA:0,_ZSt4moveIRSt6vectorINSt7__cxx119sub_matchIN9__gnu_cxx17__normal_iteratorIPKcNS1_12basic_stringIcSt11char_traitsIcESaIcEEEEEEESaISD_EEEONSt16remove_referenceIT_E4typeEOSI_
FN:99,_ZSt4moveIRSt6vectorISt4pairIlS0_INSt7__cxx119sub_matchIN9__gnu_cxx17__normal_iteratorIPKcNS2_12basic_stringIcSt11char_traitsIcESaIcEEEEEEESaISE_EEESaISH_EEEONSt16remove_referenceIT_E4typeEOSM_
FNDA:0,_ZSt4moveIRSt6vectorISt4pairIlS0_INSt7__cxx119sub_matchIN9__gnu_cxx17__normal_iteratorIPKcNS2_12basic_stringIcSt11char_traitsIcESaIcEEEEEEESaISE_EEESaISH_EEEONSt16remove_referenceIT_E4typeEOSM_
FN:99,_ZSt4moveIRNSt8__detail6_StateIcEEEONSt16remove_referenceIT_E4typeEOS5_
FNDA:24,_ZSt4moveIRNSt8__detail6_StateIcEEEONSt16remove_referenceIT_E4typeEOS5_
FN:99,_ZSt4moveIRNSt12_Vector_baseINSt7__cxx119sub_matchIN9__gnu_cxx17__normal_iteratorIPKcNS1_12basic_stringIcSt11char_traitsIcESaIcEEEEEEESaISD_EE12_Vector_implEEONSt16remove_referenceIT_E4typeEOSJ_
FNDA:0,_ZSt4moveIRNSt12_Vector_baseINSt7__cxx119sub_matchIN9__gnu_cxx17__normal_iteratorIPKcNS1_12basic_stringIcSt11char_traitsIcESaIcEEEEEEESaISD_EE12_Vector_implEEONSt16remove_referenceIT_E4typeEOSJ_
FN:99,_ZSt4moveIRNSt7__cxx1112regex_traitsIcE10_RegexMaskEEONSt16remove_referenceIT_E4typeEOS6_
FNDA:0,_ZSt4moveIRNSt7__cxx1112regex_traitsIcE10_RegexMaskEEONSt16remove_referenceIT_E4typeEOS6_
FN:99,_ZSt4moveIRSt10shared_ptrINSt8__detail4_NFAINSt7__cxx1112regex_traitsIcEEEEEEONSt16remove_referenceIT_E4typeEOSA_
FNDA:2,_ZSt4moveIRSt10shared_ptrINSt8__detail4_NFAINSt7__cxx1112regex_traitsIcEEEEEEONSt16remove_referenceIT_E4typeEOSA_
FN:99,_ZSt4moveIRcEONSt16remove_referenceIT_E4typeEOS2_
FNDA:0,_ZSt4moveIRcEONSt16remove_referenceIT_E4typeEOS2_
FN:99,_ZSt4moveIRN9__gnu_cxx5__ops15_Iter_less_iterEEONSt16remove_referenceIT_E4typeEOS5_
FNDA:0,_ZSt4moveIRN9__gnu_cxx5__ops15_Iter_less_iterEEONSt16remove_referenceIT_E4typeEOS5_
FN:99,_ZSt4moveIRSt6localeEONSt16remove_referenceIT_E4typeEOS3_
FNDA:4,_ZSt4moveIRSt6localeEONSt16remove_referenceIT_E4typeEOS3_
FN:99,_ZSt4moveIRPKcEONSt16remove_referenceIT_E4typeEOS4_
FNDA:4,_ZSt4moveIRPKcEONSt16remove_referenceIT_E4typeEOS4_
FN:99,_ZSt4moveIRNSt7__cxx1112basic_stringIcSt11char_traitsIcESaIcEEEEONSt16remove_referenceIT_E4typeEOS8_
FNDA:0,_ZSt4moveIRNSt7__cxx1112basic_stringIcSt11char_traitsIcESaIcEEEEONSt16remove_referenceIT_E4typeEOS8_
FN:99,_ZSt4moveIRSaIcEEONSt16remove_referenceIT_E4typeEOS3_
FNDA:0,_ZSt4moveIRSaIcEEONSt16remove_referenceIT_E4typeEOS3_
FN:99,_ZSt4moveIRNSt8__detail11_AnyMatcherINSt7__cxx1112regex_traitsIcEELb0ELb0ELb0EEEEONSt16remove_referenceIT_E4typeEOS8_
FNDA:0,_ZSt4moveIRNSt8__detail11_AnyMatcherINSt7__cxx1112regex_traitsIcEELb0ELb0ELb0EEEEONSt16remove_referenceIT_E4typeEOS8_
FN:99,_ZSt4moveIRNSt12_Vector_baseINSt7__cxx1112basic_stringIcSt11char_traitsIcESaIcEEESaIS6_EE12_Vector_implEEONSt16remove_referenceIT_E4typeEOSC_
FNDA:4,_ZSt4moveIRNSt12_Vector_baseINSt7__cxx1112basic_stringIcSt11char_traitsIcESaIcEEESaIS6_EE12_Vector_implEEONSt16remove_referenceIT_E4typeEOSC_
FN:99,_ZSt4moveIRNSt8__detail12_CharMatcherINSt7__cxx1112regex_traitsIcEELb1ELb1EEEEONSt16remove_referenceIT_E4typeEOS8_
FNDA:0,_ZSt4moveIRNSt8__detail12_CharMatcherINSt7__cxx1112regex_traitsIcEELb1ELb1EEEEONSt16remove_referenceIT_E4typeEOS8_
FN:99,_ZSt4moveIRNSt8__detail12_CharMatcherINSt7__cxx1112regex_traitsIcEELb1ELb0EEEEONSt16remove_referenceIT_E4typeEOS8_
FNDA:0,_ZSt4moveIRNSt8__detail12_CharMatcherINSt7__cxx1112regex_traitsIcEELb1ELb0EEEEONSt16remove_referenceIT_E4typeEOS8_
FN:99,_ZSt4moveIRNSt8__detail12_CharMatcherINSt7__cxx1112regex_traitsIcEELb0ELb1EEEEONSt16remove_referenceIT_E4typeEOS8_
FNDA:0,_ZSt4moveIRNSt8__detail12_CharMatcherINSt7__cxx1112regex_traitsIcEELb0ELb1EEEEONSt16remove_referenceIT_E4typeEOS8_
FN:99,_ZSt4moveIRNSt8__detail12_CharMatcherINSt7__cxx1112regex_traitsIcEELb0ELb0EEEEONSt16remove_referenceIT_E4typeEOS8_
FNDA:0,_ZSt4moveIRNSt8__detail12_CharMatcherINSt7__cxx1112regex_traitsIcEELb0ELb0EEEEONSt16remove_referenceIT_E4typeEOS8_
FN:99,_ZSt4moveIRNSt8__detail11_AnyMatcherINSt7__cxx1112regex_traitsIcEELb1ELb1ELb1EEEEONSt16remove_referenceIT_E4typeEOS8_
FNDA:0,_ZSt4moveIRNSt8__detail11_AnyMatcherINSt7__cxx1112regex_traitsIcEELb1ELb1ELb1EEEEONSt16remove_referenceIT_E4typeEOS8_
FN:99,_ZSt4moveIRNSt8__detail11_AnyMatcherINSt7__cxx1112regex_traitsIcEELb1ELb1ELb0EEEEONSt16remove_referenceIT_E4typeEOS8_
FNDA:0,_ZSt4moveIRNSt8__detail11_AnyMatcherINSt7__cxx1112regex_traitsIcEELb1ELb1ELb0EEEEONSt16remove_referenceIT_E4typeEOS8_
FN:99,_ZSt4moveIRNSt8__detail11_AnyMatcherINSt7__cxx1112regex_traitsIcEELb1ELb0ELb1EEEEONSt16remove_referenceIT_E4typeEOS8_
FNDA:0,_ZSt4moveIRNSt8__detail11_AnyMatcherINSt7__cxx1112regex_traitsIcEELb1ELb0ELb1EEEEONSt16remove_referenceIT_E4typeEOS8_
FN:99,_ZSt4moveIRNSt8__detail11_AnyMatcherINSt7__cxx1112regex_traitsIcEELb1ELb0ELb0EEEEONSt16remove_referenceIT_E4typeEOS8_
FNDA:0,_ZSt4moveIRNSt8__detail11_AnyMatcherINSt7__cxx1112regex_traitsIcEELb1ELb0ELb0EEEEONSt16remove_referenceIT_E4typeEOS8_
FN:99,_ZSt4moveIRNSt8__detail11_AnyMatcherINSt7__cxx1112regex_traitsIcEELb0ELb1ELb1EEEEONSt16remove_referenceIT_E4typeEOS8_
FNDA:0,_ZSt4moveIRNSt8__detail11_AnyMatcherINSt7__cxx1112regex_traitsIcEELb0ELb1ELb1EEEEONSt16remove_referenceIT_E4typeEOS8_
FN:99,_ZSt4moveIRNSt8__detail11_AnyMatcherINSt7__cxx1112regex_traitsIcEELb0ELb1ELb0EEEEONSt16remove_referenceIT_E4typeEOS8_
FNDA:0,_ZSt4moveIRNSt8__detail11_AnyMatcherINSt7__cxx1112regex_traitsIcEELb0ELb1ELb0EEEEONSt16remove_referenceIT_E4typeEOS8_
FN:99,_ZSt4moveIRNSt8__detail11_AnyMatcherINSt7__cxx1112regex_traitsIcEELb0ELb0ELb1EEEEONSt16remove_referenceIT_E4typeEOS8_
FNDA:0,_ZSt4moveIRNSt8__detail11_AnyMatcherINSt7__cxx1112regex_traitsIcEELb0ELb0ELb1EEEEONSt16remove_referenceIT_E4typeEOS8_
FN:99,_ZSt4moveIRSaINSt7__cxx119sub_matchIN9__gnu_cxx17__normal_iteratorIPKcNS0_12basic_stringIcSt11char_traitsIcESaIcEEEEEEEEEONSt16remove_referenceIT_E4typeEOSG_
FNDA:0,_ZSt4moveIRSaINSt7__cxx119sub_matchIN9__gnu_cxx17__normal_iteratorIPKcNS0_12basic_stringIcSt11char_traitsIcESaIcEEEEEEEEEONSt16remove_referenceIT_E4typeEOSG_
FN:99,_ZSt4moveIRNSt12_Vector_baseISt4pairIccESaIS2_EE12_Vector_implEEONSt16remove_referenceIT_E4typeEOS8_
FNDA:4,_ZSt4moveIRNSt12_Vector_baseISt4pairIccESaIS2_EE12_Vector_implEEONSt16remove_referenceIT_E4typeEOS8_
FN:99,_ZSt4moveIRNSt8__detail15_BracketMatcherINSt7__cxx1112regex_traitsIcEELb1ELb1EEEEONSt16remove_referenceIT_E4typeEOS8_
FNDA:0,_ZSt4moveIRNSt8__detail15_BracketMatcherINSt7__cxx1112regex_traitsIcEELb1ELb1EEEEONSt16remove_referenceIT_E4typeEOS8_
FN:99,_ZSt4moveIRNSt8__detail15_BracketMatcherINSt7__cxx1112regex_traitsIcEELb1ELb0EEEEONSt16remove_referenceIT_E4typeEOS8_
FNDA:0,_ZSt4moveIRNSt8__detail15_BracketMatcherINSt7__cxx1112regex_traitsIcEELb1ELb0EEEEONSt16remove_referenceIT_E4typeEOS8_
FN:99,_ZSt4moveIRNSt8__detail15_BracketMatcherINSt7__cxx1112regex_traitsIcEELb0ELb1EEEEONSt16remove_referenceIT_E4typeEOS8_
FNDA:0,_ZSt4moveIRNSt8__detail15_BracketMatcherINSt7__cxx1112regex_traitsIcEELb0ELb1EEEEONSt16remove_referenceIT_E4typeEOS8_
FN:99,_ZSt4moveIRNSt8__detail15_BracketMatcherINSt7__cxx1112regex_traitsIcEELb0ELb0EEEEONSt16remove_referenceIT_E4typeEOS8_
FNDA:4,_ZSt4moveIRNSt8__detail15_BracketMatcherINSt7__cxx1112regex_traitsIcEELb0ELb0EEEEONSt16remove_referenceIT_E4typeEOS8_
FN:99,_ZSt4moveIRSt4pairIlSt6vectorINSt7__cxx119sub_matchIN9__gnu_cxx17__normal_iteratorIPKcNS2_12basic_stringIcSt11char_traitsIcESaIcEEEEEEESaISE_EEEEONSt16remove_referenceIT_E4typeEOSK_
FNDA:0,_ZSt4moveIRSt4pairIlSt6vectorINSt7__cxx119sub_matchIN9__gnu_cxx17__normal_iteratorIPKcNS2_12basic_stringIcSt11char_traitsIcESaIcEEEEEEESaISE_EEEEONSt16remove_referenceIT_E4typeEOSK_
FN:99,_ZSt4moveIRNSt12_Vector_baseINSt7__cxx1112regex_traitsIcE10_RegexMaskESaIS4_EE12_Vector_implEEONSt16remove_referenceIT_E4typeEOSA_
FNDA:4,_ZSt4moveIRNSt12_Vector_baseINSt7__cxx1112regex_traitsIcE10_RegexMaskESaIS4_EE12_Vector_implEEONSt16remove_referenceIT_E4typeEOSA_
FN:99,_ZSt4moveIRlEONSt16remove_referenceIT_E4typeEOS2_
FNDA:0,_ZSt4moveIRlEONSt16remove_referenceIT_E4typeEOS2_
FN:182,_ZSt4swapIPFbRKSt9_Any_dataOcEENSt9enable_ifIXsrSt6__and_IJSt6__not_ISt15__is_tuple_likeIT_EESt21is_move_constructibleISA_ESt18is_move_assignableISA_EEE5valueEvE4typeERSA_SK_
FNDA:8,_ZSt4swapIPFbRKSt9_Any_dataOcEENSt9enable_ifIXsrSt6__and_IJSt6__not_ISt15__is_tuple_likeIT_EESt21is_move_constructibleISA_ESt18is_move_assignableISA_EEE5valueEvE4typeERSA_SK_
FN:182,_ZSt4swapIcENSt9enable_ifIXsrSt6__and_IJSt6__not_ISt15__is_tuple_likeIT_EESt21is_move_constructibleIS4_ESt18is_move_assignableIS4_EEE5valueEvE4typeERS4_SE_
FNDA:0,_ZSt4swapIcENSt9enable_ifIXsrSt6__and_IJSt6__not_ISt15__is_tuple_likeIT_EESt21is_move_constructibleIS4_ESt18is_move_assignableIS4_EEE5valueEvE4typeERS4_SE_
FN:182,_ZSt4swapISt6localeENSt9enable_ifIXsrSt6__and_IJSt6__not_ISt15__is_tuple_likeIT_EESt21is_move_constructibleIS5_ESt18is_move_assignableIS5_EEE5valueEvE4typeERS5_SF_
FNDA:1,_ZSt4swapISt6localeENSt9enable_ifIXsrSt6__and_IJSt6__not_ISt15__is_tuple_likeIT_EESt21is_move_constructibleIS5_ESt18is_move_assignableIS5_EEE5valueEvE4typeERS5_SF_
FN:182,_ZSt4swapIlENSt9enable_ifIXsrSt6__and_IJSt6__not_ISt15__is_tuple_likeIT_EESt21is_move_constructibleIS4_ESt18is_move_assignableIS4_EEE5valueEvE4typeERS4_SE_
FNDA:0,_ZSt4swapIlENSt9enable_ifIXsrSt6__and_IJSt6__not_ISt15__is_tuple_likeIT_EESt21is_move_constructibleIS4_ESt18is_move_assignableIS4_EEE5valueEvE4typeERS4_SE_
FN:182,_ZSt4swapISt9_Any_dataENSt9enable_ifIXsrSt6__and_IJSt6__not_ISt15__is_tuple_likeIT_EESt21is_move_constructibleIS5_ESt18is_move_assignableIS5_EEE5valueEvE4typeERS5_SF_
FNDA:8,_ZSt4swapISt9_Any_dataENSt9enable_ifIXsrSt6__and_IJSt6__not_ISt15__is_tuple_likeIT_EESt21is_move_constructibleIS5_ESt18is_move_assignableIS5_EEE5valueEvE4typeERS5_SF_
FN:182,_ZSt4swapIPFbRSt9_Any_dataRKS0_St18_Manager_operationEENSt9enable_ifIXsrSt6__and_IJSt6__not_ISt15__is_tuple_likeIT_EESt21is_move_constructibleISB_ESt18is_move_assignableISB_EEE5valueEvE4typeERSB_SL_
FNDA:8,_ZSt4swapIPFbRSt9_Any_dataRKS0_St18_Manager_operationEENSt9enable_ifIXsrSt6__and_IJSt6__not_ISt15__is_tuple_likeIT_EESt21is_move_constructibleISB_ESt18is_move_assignableISB_EEE5valueEvE4typeERSB_SL_
DA:47,0
DA:48,0
DA:47,1
DA:48,1
DA:47,136
DA:48,136
DA:47,0
DA:48,0
DA:47,153
DA:48,153
DA:47,2
DA:48,2
DA:47,39
DA:48,39
DA:47,0
DA:48,0
DA:47,0
DA:48,0
DA:47,0
DA:48,0
DA:47,0
DA:48,0
DA:47,8
DA:48,8
DA:47,0
DA:48,0
DA:47,0
DA:48,0
DA:47,0
DA:48,0
DA:47,0
DA:48,0
DA:47,0
DA:48,0
DA:47,0
DA:48,0
DA:47,0
DA:48,0
DA:47,0
DA:48,0
DA:47,0
DA:48,0
DA:47,0
DA:48,0
DA:74,10
DA:75,10
DA:74,74
DA:75,74
DA:74,116
DA:75,116
DA:74,8
DA:75,8
DA:74,8
DA:75,8
DA:74,0
DA:75,0
DA:74,3
DA:75,3
DA:74,0
DA:75,0
DA:74,0
DA:75,0
DA:74,32
DA:75,32
DA:74,6
DA:75,6
DA:74,4
DA:75,4
DA:74,0
DA:75,0
DA:74,10
DA:75,10
DA:74,0
DA:75,0
DA:74,10
DA:75,10
DA:74,8
DA:75,8
DA:74,0
DA:75,0
DA:74,0
DA:75,0
DA:74,2
DA:75,2
DA:74,0
DA:75,0
DA:74,15
DA:75,15
DA:74,0
DA:75,0
DA:74,4
DA:75,4
DA:74,0
DA:75,0
DA:74,2
DA:75,2
DA:74,0
DA:75,0
DA:74,8
DA:75,8
DA:99,0
DA:100,0
DA:99,0
DA:100,0
DA:99,0
DA:100,0
DA:99,0
DA:100,0
DA:99,0
DA:100,0
DA:99,0
DA:100,0
DA:99,0
DA:100,0
DA:99,4
DA:100,4
DA:99,0
DA:100,0
DA:99,24
DA:100,24
DA:99,24
DA:100,24
DA:99,24
DA:100,24
DA:99,0
DA:100,0
DA:99,4
DA:100,4
DA:99,8
DA:100,8
DA:99,0
DA:100,0
DA:99,0
DA:100,0
DA:99,24
DA:100,24
DA:99,2
DA:100,2
DA:99,4
DA:100,4
DA:99,4
DA:100,4
DA:99,0
DA:100,0
DA:99,0
DA:100,0
DA:99,4
DA:100,4
DA:99,0
DA:100,0
DA:99,0
DA:100,0
DA:99,0
DA:100,0
DA:99,0
DA:100,0
DA:99,1
DA:100,1
DA:99,0
DA:100,0
DA:99,0
DA:100,0
DA:99,0
DA:100,0
DA:99,4
DA:100,4
DA:99,4
DA:100,4
DA:99,0
DA:100,0
DA:99,4
DA:100,4
DA:99,0
DA:100,0
DA:99,0
DA:100,0
DA:99,0
DA:100,0
DA:99,0
DA:100,0
DA:99,0
DA:100,0
DA:99,0
DA:100,0
DA:99,0
DA:100,0
DA:99,0
DA:100,0
DA:99,0
DA:100,0
DA:182,0
DA:193,0
DA:194,0
DA:195,0
DA:196,0
DA:182,1
DA:193,2
DA:194,1
DA:195,1
DA:196,1
DA:182,0
DA:193,0
DA:194,0
DA:195,0
DA:196,0
DA:182,8
DA:193,8
DA:194,8
DA:195,8
DA:196,8
DA:182,8
DA:193,8
DA:194,8
DA:195,8
DA:196,8
DA:182,8
DA:193,8
DA:194,8
DA:195,8
DA:196,8
end_of_record
SF:/usr/include/c++/9/bits/unique_ptr.h
FN:111,_ZNKSt14default_deleteIA_bEclIbEENSt9enable_ifIXsrSt14is_convertibleIPA_T_PS0_E5valueEvE4typeEPS5_
FNDA:0,_ZNKSt14default_deleteIA_bEclIbEENSt9enable_ifIXsrSt14is_convertibleIPA_T_PS0_E5valueEvE4typeEPS5_
FN:147,_ZNSt15__uniq_ptr_implIbSt14default_deleteIA_bEEC2EPb
FNDA:0,_ZNSt15__uniq_ptr_implIbSt14default_deleteIA_bEEC2EPb
FN:153,_ZNSt15__uniq_ptr_implIbSt14default_deleteIA_bEE6_M_ptrEv
FNDA:0,_ZNSt15__uniq_ptr_implIbSt14default_deleteIA_bEE6_M_ptrEv
FN:154,_ZNKSt15__uniq_ptr_implIbSt14default_deleteIA_bEE6_M_ptrEv
FNDA:0,_ZNKSt15__uniq_ptr_implIbSt14default_deleteIA_bEE6_M_ptrEv
FN:155,_ZNSt15__uniq_ptr_implIbSt14default_deleteIA_bEE10_M_deleterEv
FNDA:0,_ZNSt15__uniq_ptr_implIbSt14default_deleteIA_bEE10_M_deleterEv
FN:493,_ZNSt10unique_ptrIA_bSt14default_deleteIS0_EEC2IPbS2_vbEET_
FNDA:0,_ZNSt10unique_ptrIA_bSt14default_deleteIS0_EEC2IPbS2_vbEET_
FN:555,_ZNSt10unique_ptrIA_bSt14default_deleteIS0_EED2Ev
FNDA:0,_ZNSt10unique_ptrIA_bSt14default_deleteIS0_EED2Ev
FN:611,_ZNKSt10unique_ptrIA_bSt14default_deleteIS0_EEixEm
FNDA:0,_ZNKSt10unique_ptrIA_bSt14default_deleteIS0_EEixEm
FN:619,_ZNKSt10unique_ptrIA_bSt14default_deleteIS0_EE3getEv
FNDA:0,_ZNKSt10unique_ptrIA_bSt14default_deleteIS0_EE3getEv
FN:624,_ZNSt10unique_ptrIA_bSt14default_deleteIS0_EE11get_deleterEv
FNDA:0,_ZNSt10unique_ptrIA_bSt14default_deleteIS0_EE11get_deleterEv
DA:111,0
DA:115,0
DA:116,0
DA:147,0
DA:153,0
DA:154,0
DA:155,0
DA:493,0
DA:494,0
DA:495,0
DA:555,0
DA:557,0
DA:558,0
DA:559,0
DA:560,0
DA:561,0
DA:611,0
DA:614,0
DA:619,0
DA:620,0
DA:624,0
DA:625,0
end_of_record
SF:/usr/include/c++/9/bits/vector.tcc
FN:109,_ZNSt6vectorISt4pairINSt7__cxx1112basic_stringIcSt11char_traitsIcESaIcEEES6_ESaIS7_EE12emplace_backIJS7_EEEvDpOT_
FNDA:0,_ZNSt6vectorISt4pairINSt7__cxx1112basic_stringIcSt11char_traitsIcESaIcEEES6_ESaIS7_EE12emplace_backIJS7_EEEvDpOT_
FN:109,_ZNSt6vectorISt4pairIccESaIS1_EE12emplace_backIJS1_EEEvDpOT_
FNDA:1,_ZNSt6vectorISt4pairIccESaIS1_EE12emplace_backIJS1_EEEvDpOT_
FN:109,_ZNSt6vectorIcSaIcEE12emplace_backIJcEEEvDpOT_
FNDA:0,_ZNSt6vectorIcSaIcEE12emplace_backIJcEEEvDpOT_
FN:109,_ZNSt6vectorINSt8__detail6_StateIcEESaIS2_EE12emplace_backIJS2_EEEvDpOT_
FNDA:9,_ZNSt6vectorINSt8__detail6_StateIcEESaIS2_EE12emplace_backIJS2_EEEvDpOT_
FN:109,_ZNSt6vectorISt4pairIlS_INSt7__cxx119sub_matchIN9__gnu_cxx17__normal_iteratorIPKcNS1_12basic_stringIcSt11char_traitsIcESaIcEEEEEEESaISD_EEESaISG_EE12emplace_backIJRlRKSF_EEEvDpOT_
FNDA:0,_ZNSt6vectorISt4pairIlS_INSt7__cxx119sub_matchIN9__gnu_cxx17__normal_iteratorIPKcNS1_12basic_stringIcSt11char_traitsIcESaIcEEEEEEESaISD_EEESaISG_EE12emplace_backIJRlRKSF_EEEvDpOT_
FN:184,_ZNSt6vectorIcSaIcEE8_M_eraseEN9__gnu_cxx17__normal_iteratorIPcS1_EES5_
FNDA:1,_ZNSt6vectorIcSaIcEE8_M_eraseEN9__gnu_cxx17__normal_iteratorIPcS1_EES5_
FN:198,_ZNSt6vectorINSt7__cxx119sub_matchIN9__gnu_cxx17__normal_iteratorIPKcNS0_12basic_stringIcSt11char_traitsIcESaIcEEEEEEESaISC_EEaSERKSE_
FNDA:44,_ZNSt6vectorINSt7__cxx119sub_matchIN9__gnu_cxx17__normal_iteratorIPKcNS0_12basic_stringIcSt11char_traitsIcESaIcEEEEEEESaISC_EEaSERKSE_
FN:426,_ZNSt6vectorISt4pairINSt7__cxx1112basic_stringIcSt11char_traitsIcESaIcEEES6_ESaIS7_EE17_M_realloc_insertIJS7_EEEvN9__gnu_cxx17__normal_iteratorIPS7_S9_EEDpOT_
FNDA:0,_ZNSt6vectorISt4pairINSt7__cxx1112basic_stringIcSt11char_traitsIcESaIcEEES6_ESaIS7_EE17_M_realloc_insertIJS7_EEEvN9__gnu_cxx17__normal_iteratorIPS7_S9_EEDpOT_
FN:426,_ZNSt6vectorISt4pairIccESaIS1_EE17_M_realloc_insertIJS1_EEEvN9__gnu_cxx17__normal_iteratorIPS1_S3_EEDpOT_
FNDA:1,_ZNSt6vectorISt4pairIccESaIS1_EE17_M_realloc_insertIJS1_EEEvN9__gnu_cxx17__normal_iteratorIPS1_S3_EEDpOT_
FN:426,_ZNSt6vectorIcSaIcEE17_M_realloc_insertIJcEEEvN9__gnu_cxx17__normal_iteratorIPcS1_EEDpOT_
FNDA:0,_ZNSt6vectorIcSaIcEE17_M_realloc_insertIJcEEEvN9__gnu_cxx17__normal_iteratorIPcS1_EEDpOT_
FN:426,_ZNSt6vectorINSt7__cxx1112basic_stringIcSt11char_traitsIcESaIcEEESaIS5_EE17_M_realloc_insertIJRKS5_EEEvN9__gnu_cxx17__normal_iteratorIPS5_S7_EEDpOT_
FNDA:0,_ZNSt6vectorINSt7__cxx1112basic_stringIcSt11char_traitsIcESaIcEEESaIS5_EE17_M_realloc_insertIJRKS5_EEEvN9__gnu_cxx17__normal_iteratorIPS5_S7_EEDpOT_
FN:426,_ZNSt6vectorINSt7__cxx1112regex_traitsIcE10_RegexMaskESaIS3_EE17_M_realloc_insertIJRKS3_EEEvN9__gnu_cxx17__normal_iteratorIPS3_S5_EEDpOT_
FNDA:0,_ZNSt6vectorINSt7__cxx1112regex_traitsIcE10_RegexMaskESaIS3_EE17_M_realloc_insertIJRKS3_EEEvN9__gnu_cxx17__normal_iteratorIPS3_S5_EEDpOT_
FN:426,_ZNSt6vectorINSt8__detail6_StateIcEESaIS2_EE17_M_realloc_insertIJS2_EEEvN9__gnu_cxx17__normal_iteratorIPS2_S4_EEDpOT_
FNDA:5,_ZNSt6vectorINSt8__detail6_StateIcEESaIS2_EE17_M_realloc_insertIJS2_EEEvN9__gnu_cxx17__normal_iteratorIPS2_S4_EEDpOT_
FN:426,_ZNSt6vectorISt4pairIlS_INSt7__cxx119sub_matchIN9__gnu_cxx17__normal_iteratorIPKcNS1_12basic_stringIcSt11char_traitsIcESaIcEEEEEEESaISD_EEESaISG_EE17_M_realloc_insertIJRlRKSF_EEEvNS4_IPSG_SI_EEDpOT_
FNDA:0,_ZNSt6vectorISt4pairIlS_INSt7__cxx119sub_matchIN9__gnu_cxx17__normal_iteratorIPKcNS1_12basic_stringIcSt11char_traitsIcESaIcEEEEEEESaISD_EEESaISG_EE17_M_realloc_insertIJRlRKSF_EEEvNS4_IPSG_SI_EEDpOT_
FN:426,_ZNSt6vectorImSaImEE17_M_realloc_insertIJRKmEEEvN9__gnu_cxx17__normal_iteratorIPmS1_EEDpOT_
FNDA:1,_ZNSt6vectorImSaImEE17_M_realloc_insertIJRKmEEEvN9__gnu_cxx17__normal_iteratorIPmS1_EEDpOT_
FN:611,_ZNSt6vectorINSt7__cxx119sub_matchIN9__gnu_cxx17__normal_iteratorIPKcNS0_12basic_stringIcSt11char_traitsIcESaIcEEEEEEESaISC_EE17_M_default_appendEm
FNDA:5,_ZNSt6vectorINSt7__cxx119sub_matchIN9__gnu_cxx17__normal_iteratorIPKcNS0_12basic_stringIcSt11char_traitsIcESaIcEEEEEEESaISC_EE17_M_default_appendEm
DA:109,0
DA:112,0
DA:115,0
DA:117,0
DA:121,0
DA:125,0
DA:109,1
DA:112,1
DA:115,0
DA:117,0
DA:121,1
DA:125,1
DA:109,0
DA:112,0
DA:115,0
DA:117,0
DA:121,0
DA:125,0
DA:109,9
DA:112,9
DA:115,4
DA:117,4
DA:121,5
DA:125,9
DA:109,0
DA:112,0
DA:115,0
DA:117,0
DA:121,0
DA:125,0
DA:184,1
DA:187,1
DA:189,0
DA:190,0
DA:191,0
DA:193,1
DA:198,44
DA:201,44
DA:205,44
DA:207,0
DA:208,0
DA:211,0
DA:212,0
DA:213,0
DA:214,0
DA:215,0
DA:216,0
DA:217,0
DA:219,0
DA:223,44
DA:224,44
DA:226,17
DA:228,17
DA:229,17
DA:230,17
DA:231,17
DA:232,17
DA:233,17
DA:234,17
DA:236,27
DA:238,27
DA:239,27
DA:243,0
DA:245,0
DA:246,0
DA:248,0
DA:250,44
DA:252,44
DA:426,0
DA:435,0
DA:437,0
DA:438,0
DA:439,0
DA:440,0
DA:441,0
DA:449,0
DA:450,0
DA:456,0
DA:459,0
DA:461,0
DA:462,0
DA:464,0
DA:466,0
DA:467,0
DA:474,0
DA:475,0
DA:477,0
DA:481,0
DA:482,0
DA:485,0
DA:487,0
DA:488,0
DA:489,0
DA:491,0
DA:492,0
DA:493,0
DA:496,0
DA:498,0
DA:500,0
DA:501,0
DA:502,0
DA:503,0
DA:504,0
DA:505,0
DA:426,1
DA:435,1
DA:437,1
DA:438,1
DA:439,1
DA:440,1
DA:441,1
DA:449,1
DA:450,1
DA:456,1
DA:459,1
DA:461,1
DA:462,1
DA:464,1
DA:466,1
DA:467,1
DA:474,0
DA:475,0
DA:477,0
DA:481,0
DA:482,0
DA:485,0
DA:487,0
DA:488,0
DA:489,0
DA:491,0
DA:492,0
DA:493,0
DA:496,1
DA:498,0
DA:500,1
DA:501,1
DA:502,1
DA:503,1
DA:504,1
DA:505,1
DA:426,0
DA:435,0
DA:437,0
DA:438,0
DA:439,0
DA:440,0
DA:441,0
DA:449,0
DA:456,0
DA:459,0
DA:461,0
DA:462,0
DA:464,0
DA:466,0
DA:467,0
DA:474,0
DA:475,0
DA:477,0
DA:481,0
DA:482,0
DA:485,0
DA:487,0
DA:488,0
DA:491,0
DA:492,0
DA:493,0
DA:496,0
DA:498,0
DA:500,0
DA:501,0
DA:502,0
DA:503,0
DA:504,0
DA:505,0
DA:426,0
DA:435,0
DA:437,0
DA:438,0
DA:439,0
DA:440,0
DA:441,0
DA:449,0
DA:450,0
DA:456,0
DA:459,0
DA:461,0
DA:462,0
DA:464,0
DA:466,0
DA:467,0
DA:474,0
DA:475,0
DA:477,0
DA:481,0
DA:482,0
DA:485,0
DA:487,0
DA:488,0
DA:489,0
DA:491,0
DA:492,0
DA:493,0
DA:496,0
DA:498,0
DA:500,0
DA:501,0
DA:502,0
DA:503,0
DA:504,0
DA:505,0
DA:426,0
DA:435,0
DA:437,0
DA:438,0
DA:439,0
DA:440,0
DA:441,0
DA:449,0
DA:450,0
DA:456,0
DA:459,0
DA:461,0
DA:462,0
DA:464,0
DA:466,0
DA:467,0
DA:474,0
DA:475,0
DA:477,0
DA:481,0
DA:482,0
DA:485,0
DA:487,0
DA:488,0
DA:489,0
DA:491,0
DA:492,0
DA:493,0
DA:496,0
DA:498,0
DA:500,0
DA:501,0
DA:502,0
DA:503,0
DA:504,0
DA:505,0
DA:426,5
DA:435,5
DA:437,5
DA:438,5
DA:439,5
DA:440,5
DA:441,5
DA:449,5
DA:450,5
DA:456,5
DA:459,5
DA:461,0
DA:462,0
DA:464,0
DA:466,0
DA:467,0
DA:474,5
DA:475,5
DA:477,5
DA:481,5
DA:482,5
DA:485,0
DA:487,0
DA:488,0
DA:489,0
DA:491,0
DA:492,0
DA:493,0
DA:496,5
DA:498,5
DA:500,5
DA:501,5
DA:502,5
DA:503,5
DA:504,5
DA:505,5
DA:426,0
DA:435,0
DA:437,0
DA:438,0
DA:439,0
DA:440,0
DA:441,0
DA:449,0
DA:450,0
DA:456,0
DA:459,0
DA:461,0
DA:462,0
DA:464,0
DA:466,0
DA:467,0
DA:474,0
DA:475,0
DA:477,0
DA:481,0
DA:482,0
DA:485,0
DA:487,0
DA:488,0
DA:489,0
DA:491,0
DA:492,0
DA:493,0
DA:496,0
DA:498,0
DA:500,0
DA:501,0
DA:502,0
DA:503,0
DA:504,0
DA:505,0
DA:426,1
DA:435,1
DA:437,1
DA:438,1
DA:439,1
DA:440,1
DA:441,1
DA:449,1
DA:450,1
DA:456,1
DA:459,1
DA:461,1
DA:462,1
DA:464,1
DA:466,1
DA:467,1
DA:474,0
DA:475,0
DA:477,0
DA:481,0
DA:482,0
DA:485,0
DA:487,0
DA:488,0
DA:489,0
DA:491,0
DA:492,0
DA:493,0
DA:496,1
DA:498,0
DA:500,1
DA:501,1
DA:502,1
DA:503,1
DA:504,1
DA:505,1
DA:611,5
DA:614,5
DA:616,5
DA:617,5
DA:618,5
DA:620,5
DA:621,0
DA:623,5
DA:626,0
DA:627,0
DA:628,0
DA:633,5
DA:635,5
DA:636,5
DA:640,5
DA:641,5
DA:643,0
DA:645,0
DA:646,0
DA:648,5
DA:649,5
DA:653,0
DA:656,0
DA:657,0
DA:658,0
DA:659,0
DA:661,0
DA:663,0
DA:665,0
DA:666,0
DA:667,0
DA:668,0
DA:669,0
DA:671,0
DA:672,0
DA:675,5
DA:676,5
DA:677,5
DA:678,5
DA:679,5
DA:680,5
DA:683,5
end_of_record
SF:/usr/include/c++/9/bits/stl_iterator_base_types.h
FN:205,_ZSt19__iterator_categoryIN9__gnu_cxx17__normal_iteratorIPcNSt7__cxx1112basic_stringIcSt11char_traitsIcESaIcEEEEEENSt15iterator_traitsIT_E17iterator_categoryERKSB_
FNDA:0,_ZSt19__iterator_categoryIN9__gnu_cxx17__normal_iteratorIPcNSt7__cxx1112basic_stringIcSt11char_traitsIcESaIcEEEEEENSt15iterator_traitsIT_E17iterator_categoryERKSB_
FN:205,_ZSt19__iterator_categoryIN9__gnu_cxx17__normal_iteratorIPKcSt6vectorIcSaIcEEEEENSt15iterator_traitsIT_E17iterator_categoryERKS9_
FNDA:256,_ZSt19__iterator_categoryIN9__gnu_cxx17__normal_iteratorIPKcSt6vectorIcSaIcEEEEENSt15iterator_traitsIT_E17iterator_categoryERKS9_
FN:205,_ZSt19__iterator_categoryIN9__gnu_cxx17__normal_iteratorIPKNSt7__cxx1112basic_stringIcSt11char_traitsIcESaIcEEESt6vectorIS7_SaIS7_EEEEENSt15iterator_traitsIT_E17iterator_categoryERKSF_
FNDA:246,_ZSt19__iterator_categoryIN9__gnu_cxx17__normal_iteratorIPKNSt7__cxx1112basic_stringIcSt11char_traitsIcESaIcEEESt6vectorIS7_SaIS7_EEEEENSt15iterator_traitsIT_E17iterator_categoryERKSF_
FN:205,_ZSt19__iterator_categoryIN9__gnu_cxx17__normal_iteratorIPKcNSt7__cxx1112basic_stringIcSt11char_traitsIcESaIcEEEEEENSt15iterator_traitsIT_E17iterator_categoryERKSC_
FNDA:12,_ZSt19__iterator_categoryIN9__gnu_cxx17__normal_iteratorIPKcNSt7__cxx1112basic_stringIcSt11char_traitsIcESaIcEEEEEENSt15iterator_traitsIT_E17iterator_categoryERKSC_
FN:205,_ZSt19__iterator_categoryIPcENSt15iterator_traitsIT_E17iterator_categoryERKS2_
FNDA:246,_ZSt19__iterator_categoryIPcENSt15iterator_traitsIT_E17iterator_categoryERKS2_
FN:205,_ZSt19__iterator_categoryIPKcENSt15iterator_traitsIT_E17iterator_categoryERKS3_
FNDA:492,_ZSt19__iterator_categoryIPKcENSt15iterator_traitsIT_E17iterator_categoryERKS3_
DA:205,0
DA:206,0
DA:205,256
DA:206,256
DA:205,246
DA:206,246
DA:205,12
DA:206,12
DA:205,246
DA:206,246
DA:205,492
DA:206,492
end_of_record
SF:/usr/include/c++/9/bits/ptr_traits.h
FN:156,_ZSt12__to_addressISt23_Sp_counted_ptr_inplaceINSt8__detail4_NFAINSt7__cxx1112regex_traitsIcEEEESaIS6_ELN9__gnu_cxx12_Lock_policyE2EEEPT_SC_
FNDA:1,_ZSt12__to_addressISt23_Sp_counted_ptr_inplaceINSt8__detail4_NFAINSt7__cxx1112regex_traitsIcEEEESaIS6_ELN9__gnu_cxx12_Lock_policyE2EEEPT_SC_
DA:156,1
DA:159,1
end_of_record
SF:/usr/include/armadillo_bits/gmm_misc_bones.hpp
FN:21,_ZN4arma13gmm_dist_modeC2Ey
FNDA:12,_ZN4arma13gmm_dist_modeC2Ey
FN:26,_ZN4arma13gmm_dist_euclC2Ev
FNDA:4,_ZN4arma13gmm_dist_euclC2Ev
FN:27,_ZN4arma13gmm_dist_mahaC2Ev
FNDA:4,_ZN4arma13gmm_dist_mahaC2Ev
FN:28,_ZN4arma13gmm_dist_probC2Ev
FNDA:4,_ZN4arma13gmm_dist_probC2Ev
FN:36,_ZN4arma13gmm_seed_modeC2Ey
FNDA:20,_ZN4arma13gmm_seed_modeC2Ey
FN:41,_ZN4arma22gmm_seed_keep_existingC2Ev
FNDA:4,_ZN4arma22gmm_seed_keep_existingC2Ev
FN:42,_ZN4arma22gmm_seed_static_subsetC2Ev
FNDA:4,_ZN4arma22gmm_seed_static_subsetC2Ev
FN:43,_ZN4arma22gmm_seed_static_spreadC2Ev
FNDA:4,_ZN4arma22gmm_seed_static_spreadC2Ev
FN:44,_ZN4arma22gmm_seed_random_subsetC2Ev
FNDA:4,_ZN4arma22gmm_seed_random_subsetC2Ev
FN:45,_ZN4arma22gmm_seed_random_spreadC2Ev
FNDA:4,_ZN4arma22gmm_seed_random_spreadC2Ev
DA:21,12
DA:26,4
DA:27,4
DA:28,4
DA:36,20
DA:41,4
DA:42,4
DA:43,4
DA:44,4
DA:45,4
end_of_record
SF:/usr/include/c++/9/bits/cpp_type_traits.h
FN:428,_ZSt12__miter_baseIPcET_S1_
FNDA:0,_ZSt12__miter_baseIPcET_S1_
FN:428,_ZSt12__miter_baseIPKcET_S2_
FNDA:492,_ZSt12__miter_baseIPKcET_S2_
FN:428,_ZSt12__miter_baseIN9__gnu_cxx17__normal_iteratorIPKcSt6vectorIcSaIcEEEEET_S8_
FNDA:16,_ZSt12__miter_baseIN9__gnu_cxx17__normal_iteratorIPKcSt6vectorIcSaIcEEEEET_S8_
FN:428,_ZSt12__miter_baseIPPlET_S2_
FNDA:0,_ZSt12__miter_baseIPPlET_S2_
FN:428,_ZSt12__miter_baseIN9__gnu_cxx17__normal_iteratorIPcSt6vectorIcSaIcEEEEET_S7_
FNDA:0,_ZSt12__miter_baseIN9__gnu_cxx17__normal_iteratorIPcSt6vectorIcSaIcEEEEET_S7_
FN:428,_ZSt12__miter_baseIPmET_S1_
FNDA:0,_ZSt12__miter_baseIPmET_S1_
FN:428,_ZSt12__miter_baseIPPNSt8__detail9_StateSeqINSt7__cxx1112regex_traitsIcEEEEET_S8_
FNDA:0,_ZSt12__miter_baseIPPNSt8__detail9_StateSeqINSt7__cxx1112regex_traitsIcEEEEET_S8_
FN:428,_ZSt12__miter_baseIPNSt7__cxx119sub_matchIN9__gnu_cxx17__normal_iteratorIPKcNS0_12basic_stringIcSt11char_traitsIcESaIcEEEEEEEET_SE_
FNDA:0,_ZSt12__miter_baseIPNSt7__cxx119sub_matchIN9__gnu_cxx17__normal_iteratorIPKcNS0_12basic_stringIcSt11char_traitsIcESaIcEEEEEEEET_SE_
FN:428,_ZSt12__miter_baseIN9__gnu_cxx17__normal_iteratorIPKNSt7__cxx119sub_matchINS1_IPKcNS2_12basic_stringIcSt11char_traitsIcESaIcEEEEEEESt6vectorISC_SaISC_EEEEET_SJ_
FNDA:54,_ZSt12__miter_baseIN9__gnu_cxx17__normal_iteratorIPKNSt7__cxx119sub_matchINS1_IPKcNS2_12basic_stringIcSt11char_traitsIcESaIcEEEEEEESt6vectorISC_SaISC_EEEEET_SJ_
DA:428,0
DA:429,0
DA:428,492
DA:429,492
DA:428,16
DA:429,16
DA:428,0
DA:429,0
DA:428,0
DA:429,0
DA:428,0
DA:429,0
DA:428,0
DA:429,0
DA:428,0
DA:429,0
DA:428,54
DA:429,54
end_of_record
SF:/usr/include/c++/9/bits/regex_compiler.tcc
FN:65,_ZNSt8__detail9_CompilerINSt7__cxx1112regex_traitsIcEEEC2EPKcS6_RKSt6localeNSt15regex_constants18syntax_option_typeE
FNDA:1,_ZNSt8__detail9_CompilerINSt7__cxx1112regex_traitsIcEEEC2EPKcS6_RKSt6localeNSt15regex_constants18syntax_option_typeE
FN:96,_ZNSt8__detail9_CompilerINSt7__cxx1112regex_traitsIcEEE14_M_disjunctionEv
FNDA:1,_ZNSt8__detail9_CompilerINSt7__cxx1112regex_traitsIcEEE14_M_disjunctionEv
FN:120,_ZNSt8__detail9_CompilerINSt7__cxx1112regex_traitsIcEEE14_M_alternativeEv
FNDA:2,_ZNSt8__detail9_CompilerINSt7__cxx1112regex_traitsIcEEE14_M_alternativeEv
FN:136,_ZNSt8__detail9_CompilerINSt7__cxx1112regex_traitsIcEEE7_M_termEv
FNDA:2,_ZNSt8__detail9_CompilerINSt7__cxx1112regex_traitsIcEEE7_M_termEv
FN:151,_ZNSt8__detail9_CompilerINSt7__cxx1112regex_traitsIcEEE12_M_assertionEv
FNDA:2,_ZNSt8__detail9_CompilerINSt7__cxx1112regex_traitsIcEEE12_M_assertionEv
FN:183,_ZNSt8__detail9_CompilerINSt7__cxx1112regex_traitsIcEEE13_M_quantifierEv
FNDA:2,_ZNSt8__detail9_CompilerINSt7__cxx1112regex_traitsIcEEE13_M_quantifierEv
FN:187,_ZZNSt8__detail9_CompilerINSt7__cxx1112regex_traitsIcEEE13_M_quantifierEvENKUlvE_clEv
FNDA:0,_ZZNSt8__detail9_CompilerINSt7__cxx1112regex_traitsIcEEE13_M_quantifierEvENKUlvE_clEv
FN:313,_ZNSt8__detail9_CompilerINSt7__cxx1112regex_traitsIcEEE7_M_atomEv
FNDA:2,_ZNSt8__detail9_CompilerINSt7__cxx1112regex_traitsIcEEE7_M_atomEv
FN:358,_ZNSt8__detail9_CompilerINSt7__cxx1112regex_traitsIcEEE21_M_bracket_expressionEv
FNDA:2,_ZNSt8__detail9_CompilerINSt7__cxx1112regex_traitsIcEEE21_M_bracket_expressionEv
FN:373,_ZNSt8__detail9_CompilerINSt7__cxx1112regex_traitsIcEEE26_M_insert_any_matcher_ecmaILb0ELb0EEEvv
FNDA:0,_ZNSt8__detail9_CompilerINSt7__cxx1112regex_traitsIcEEE26_M_insert_any_matcher_ecmaILb0ELb0EEEvv
FN:373,_ZNSt8__detail9_CompilerINSt7__cxx1112regex_traitsIcEEE26_M_insert_any_matcher_ecmaILb0ELb1EEEvv
FNDA:0,_ZNSt8__detail9_CompilerINSt7__cxx1112regex_traitsIcEEE26_M_insert_any_matcher_ecmaILb0ELb1EEEvv
FN:373,_ZNSt8__detail9_CompilerINSt7__cxx1112regex_traitsIcEEE26_M_insert_any_matcher_ecmaILb1ELb0EEEvv
FNDA:0,_ZNSt8__detail9_CompilerINSt7__cxx1112regex_traitsIcEEE26_M_insert_any_matcher_ecmaILb1ELb0EEEvv
FN:373,_ZNSt8__detail9_CompilerINSt7__cxx1112regex_traitsIcEEE26_M_insert_any_matcher_ecmaILb1ELb1EEEvv
FNDA:0,_ZNSt8__detail9_CompilerINSt7__cxx1112regex_traitsIcEEE26_M_insert_any_matcher_ecmaILb1ELb1EEEvv
FN:385,_ZNSt8__detail9_CompilerINSt7__cxx1112regex_traitsIcEEE27_M_insert_any_matcher_posixILb0ELb0EEEvv
FNDA:0,_ZNSt8__detail9_CompilerINSt7__cxx1112regex_traitsIcEEE27_M_insert_any_matcher_posixILb0ELb0EEEvv
FN:385,_ZNSt8__detail9_CompilerINSt7__cxx1112regex_traitsIcEEE27_M_insert_any_matcher_posixILb0ELb1EEEvv
FNDA:0,_ZNSt8__detail9_CompilerINSt7__cxx1112regex_traitsIcEEE27_M_insert_any_matcher_posixILb0ELb1EEEvv
FN:385,_ZNSt8__detail9_CompilerINSt7__cxx1112regex_traitsIcEEE27_M_insert_any_matcher_posixILb1ELb0EEEvv
FNDA:0,_ZNSt8__detail9_CompilerINSt7__cxx1112regex_traitsIcEEE27_M_insert_any_matcher_posixILb1ELb0EEEvv
FN:385,_ZNSt8__detail9_CompilerINSt7__cxx1112regex_traitsIcEEE27_M_insert_any_matcher_posixILb1ELb1EEEvv
FNDA:0,_ZNSt8__detail9_CompilerINSt7__cxx1112regex_traitsIcEEE27_M_insert_any_matcher_posixILb1ELb1EEEvv
FN:397,_ZNSt8__detail9_CompilerINSt7__cxx1112regex_traitsIcEEE22_M_insert_char_matcherILb0ELb0EEEvv
FNDA:0,_ZNSt8__detail9_CompilerINSt7__cxx1112regex_traitsIcEEE22_M_insert_char_matcherILb0ELb0EEEvv
FN:397,_ZNSt8__detail9_CompilerINSt7__cxx1112regex_traitsIcEEE22_M_insert_char_matcherILb0ELb1EEEvv
FNDA:0,_ZNSt8__detail9_CompilerINSt7__cxx1112regex_traitsIcEEE22_M_insert_char_matcherILb0ELb1EEEvv
FN:397,_ZNSt8__detail9_CompilerINSt7__cxx1112regex_traitsIcEEE22_M_insert_char_matcherILb1ELb0EEEvv
FNDA:0,_ZNSt8__detail9_CompilerINSt7__cxx1112regex_traitsIcEEE22_M_insert_char_matcherILb1ELb0EEEvv
FN:397,_ZNSt8__detail9_CompilerINSt7__cxx1112regex_traitsIcEEE22_M_insert_char_matcherILb1ELb1EEEvv
FNDA:0,_ZNSt8__detail9_CompilerINSt7__cxx1112regex_traitsIcEEE22_M_insert_char_matcherILb1ELb1EEEvv
FN:409,_ZNSt8__detail9_CompilerINSt7__cxx1112regex_traitsIcEEE33_M_insert_character_class_matcherILb0ELb0EEEvv
FNDA:0,_ZNSt8__detail9_CompilerINSt7__cxx1112regex_traitsIcEEE33_M_insert_character_class_matcherILb0ELb0EEEvv
FN:409,_ZNSt8__detail9_CompilerINSt7__cxx1112regex_traitsIcEEE33_M_insert_character_class_matcherILb0ELb1EEEvv
FNDA:0,_ZNSt8__detail9_CompilerINSt7__cxx1112regex_traitsIcEEE33_M_insert_character_class_matcherILb0ELb1EEEvv
FN:409,_ZNSt8__detail9_CompilerINSt7__cxx1112regex_traitsIcEEE33_M_insert_character_class_matcherILb1ELb1EEEvv
FNDA:0,_ZNSt8__detail9_CompilerINSt7__cxx1112regex_traitsIcEEE33_M_insert_character_class_matcherILb1ELb1EEEvv
FN:409,_ZNSt8__detail9_CompilerINSt7__cxx1112regex_traitsIcEEE33_M_insert_character_class_matcherILb1ELb0EEEvv
FNDA:0,_ZNSt8__detail9_CompilerINSt7__cxx1112regex_traitsIcEEE33_M_insert_character_class_matcherILb1ELb0EEEvv
FN:424,_ZNSt8__detail9_CompilerINSt7__cxx1112regex_traitsIcEEE25_M_insert_bracket_matcherILb0ELb0EEEvb
FNDA:1,_ZNSt8__detail9_CompilerINSt7__cxx1112regex_traitsIcEEE25_M_insert_bracket_matcherILb0ELb0EEEvb
FN:424,_ZNSt8__detail9_CompilerINSt7__cxx1112regex_traitsIcEEE25_M_insert_bracket_matcherILb0ELb1EEEvb
FNDA:0,_ZNSt8__detail9_CompilerINSt7__cxx1112regex_traitsIcEEE25_M_insert_bracket_matcherILb0ELb1EEEvb
FN:424,_ZNSt8__detail9_CompilerINSt7__cxx1112regex_traitsIcEEE25_M_insert_bracket_matcherILb1ELb0EEEvb
FNDA:0,_ZNSt8__detail9_CompilerINSt7__cxx1112regex_traitsIcEEE25_M_insert_bracket_matcherILb1ELb0EEEvb
FN:424,_ZNSt8__detail9_CompilerINSt7__cxx1112regex_traitsIcEEE25_M_insert_bracket_matcherILb1ELb1EEEvb
FNDA:0,_ZNSt8__detail9_CompilerINSt7__cxx1112regex_traitsIcEEE25_M_insert_bracket_matcherILb1ELb1EEEvb
FN:455,_ZNSt8__detail9_CompilerINSt7__cxx1112regex_traitsIcEEE18_M_expression_termILb1ELb1EEEbRSt4pairIbcERNS_15_BracketMatcherIS3_XT_EXT0_EEE
FNDA:0,_ZNSt8__detail9_CompilerINSt7__cxx1112regex_traitsIcEEE18_M_expression_termILb1ELb1EEEbRSt4pairIbcERNS_15_BracketMatcherIS3_XT_EXT0_EEE
FN:455,_ZNSt8__detail9_CompilerINSt7__cxx1112regex_traitsIcEEE18_M_expression_termILb0ELb0EEEbRSt4pairIbcERNS_15_BracketMatcherIS3_XT_EXT0_EEE
FNDA:3,_ZNSt8__detail9_CompilerINSt7__cxx1112regex_traitsIcEEE18_M_expression_termILb0ELb0EEEbRSt4pairIbcERNS_15_BracketMatcherIS3_XT_EXT0_EEE
FN:455,_ZNSt8__detail9_CompilerINSt7__cxx1112regex_traitsIcEEE18_M_expression_termILb1ELb0EEEbRSt4pairIbcERNS_15_BracketMatcherIS3_XT_EXT0_EEE
FNDA:0,_ZNSt8__detail9_CompilerINSt7__cxx1112regex_traitsIcEEE18_M_expression_termILb1ELb0EEEbRSt4pairIbcERNS_15_BracketMatcherIS3_XT_EXT0_EEE
FN:455,_ZNSt8__detail9_CompilerINSt7__cxx1112regex_traitsIcEEE18_M_expression_termILb0ELb1EEEbRSt4pairIbcERNS_15_BracketMatcherIS3_XT_EXT0_EEE
FNDA:0,_ZNSt8__detail9_CompilerINSt7__cxx1112regex_traitsIcEEE18_M_expression_termILb0ELb1EEEbRSt4pairIbcERNS_15_BracketMatcherIS3_XT_EXT0_EEE
FN:462,_ZZNSt8__detail9_CompilerINSt7__cxx1112regex_traitsIcEEE18_M_expression_termILb0ELb0EEEbRSt4pairIbcERNS_15_BracketMatcherIS3_XT_EXT0_EEEENKUlcE_clEc
FNDA:1,_ZZNSt8__detail9_CompilerINSt7__cxx1112regex_traitsIcEEE18_M_expression_termILb0ELb0EEEbRSt4pairIbcERNS_15_BracketMatcherIS3_XT_EXT0_EEEENKUlcE_clEc
FN:462,_ZZNSt8__detail9_CompilerINSt7__cxx1112regex_traitsIcEEE18_M_expression_termILb1ELb1EEEbRSt4pairIbcERNS_15_BracketMatcherIS3_XT_EXT0_EEEENKUlcE_clEc
FNDA:0,_ZZNSt8__detail9_CompilerINSt7__cxx1112regex_traitsIcEEE18_M_expression_termILb1ELb1EEEbRSt4pairIbcERNS_15_BracketMatcherIS3_XT_EXT0_EEEENKUlcE_clEc
FN:462,_ZZNSt8__detail9_CompilerINSt7__cxx1112regex_traitsIcEEE18_M_expression_termILb0ELb1EEEbRSt4pairIbcERNS_15_BracketMatcherIS3_XT_EXT0_EEEENKUlcE_clEc
FNDA:0,_ZZNSt8__detail9_CompilerINSt7__cxx1112regex_traitsIcEEE18_M_expression_termILb0ELb1EEEbRSt4pairIbcERNS_15_BracketMatcherIS3_XT_EXT0_EEEENKUlcE_clEc
FN:462,_ZZNSt8__detail9_CompilerINSt7__cxx1112regex_traitsIcEEE18_M_expression_termILb1ELb0EEEbRSt4pairIbcERNS_15_BracketMatcherIS3_XT_EXT0_EEEENKUlcE_clEc
FNDA:0,_ZZNSt8__detail9_CompilerINSt7__cxx1112regex_traitsIcEEE18_M_expression_termILb1ELb0EEEbRSt4pairIbcERNS_15_BracketMatcherIS3_XT_EXT0_EEEENKUlcE_clEc
FN:470,_ZZNSt8__detail9_CompilerINSt7__cxx1112regex_traitsIcEEE18_M_expression_termILb0ELb1EEEbRSt4pairIbcERNS_15_BracketMatcherIS3_XT_EXT0_EEEENKUlvE0_clEv
FNDA:0,_ZZNSt8__detail9_CompilerINSt7__cxx1112regex_traitsIcEEE18_M_expression_termILb0ELb1EEEbRSt4pairIbcERNS_15_BracketMatcherIS3_XT_EXT0_EEEENKUlvE0_clEv
FN:470,_ZZNSt8__detail9_CompilerINSt7__cxx1112regex_traitsIcEEE18_M_expression_termILb1ELb1EEEbRSt4pairIbcERNS_15_BracketMatcherIS3_XT_EXT0_EEEENKUlvE0_clEv
FNDA:0,_ZZNSt8__detail9_CompilerINSt7__cxx1112regex_traitsIcEEE18_M_expression_termILb1ELb1EEEbRSt4pairIbcERNS_15_BracketMatcherIS3_XT_EXT0_EEEENKUlvE0_clEv
FN:470,_ZZNSt8__detail9_CompilerINSt7__cxx1112regex_traitsIcEEE18_M_expression_termILb1ELb0EEEbRSt4pairIbcERNS_15_BracketMatcherIS3_XT_EXT0_EEEENKUlvE0_clEv
FNDA:0,_ZZNSt8__detail9_CompilerINSt7__cxx1112regex_traitsIcEEE18_M_expression_termILb1ELb0EEEbRSt4pairIbcERNS_15_BracketMatcherIS3_XT_EXT0_EEEENKUlvE0_clEv
FN:470,_ZZNSt8__detail9_CompilerINSt7__cxx1112regex_traitsIcEEE18_M_expression_termILb0ELb0EEEbRSt4pairIbcERNS_15_BracketMatcherIS3_XT_EXT0_EEEENKUlvE0_clEv
FNDA:0,_ZZNSt8__detail9_CompilerINSt7__cxx1112regex_traitsIcEEE18_M_expression_termILb0ELb0EEEbRSt4pairIbcERNS_15_BracketMatcherIS3_XT_EXT0_EEEENKUlvE0_clEv
FN:567,_ZNSt8__detail9_CompilerINSt7__cxx1112regex_traitsIcEEE11_M_try_charEv
FNDA:5,_ZNSt8__detail9_CompilerINSt7__cxx1112regex_traitsIcEEE11_M_try_charEv
FN:588,_ZNSt8__detail9_CompilerINSt7__cxx1112regex_traitsIcEEE14_M_match_tokenENS_12_ScannerBase7_TokenTE
FNDA:62,_ZNSt8__detail9_CompilerINSt7__cxx1112regex_traitsIcEEE14_M_match_tokenENS_12_ScannerBase7_TokenTE
FN:602,_ZNSt8__detail9_CompilerINSt7__cxx1112regex_traitsIcEEE16_M_cur_int_valueEi
FNDA:1,_ZNSt8__detail9_CompilerINSt7__cxx1112regex_traitsIcEEE16_M_cur_int_valueEi
FN:614,_ZNKSt8__detail15_BracketMatcherINSt7__cxx1112regex_traitsIcEELb1ELb1EE8_M_applyEcSt17integral_constantIbLb0EE
FNDA:0,_ZNKSt8__detail15_BracketMatcherINSt7__cxx1112regex_traitsIcEELb1ELb1EE8_M_applyEcSt17integral_constantIbLb0EE
FN:614,_ZNKSt8__detail15_BracketMatcherINSt7__cxx1112regex_traitsIcEELb1ELb0EE8_M_applyEcSt17integral_constantIbLb0EE
FNDA:0,_ZNKSt8__detail15_BracketMatcherINSt7__cxx1112regex_traitsIcEELb1ELb0EE8_M_applyEcSt17integral_constantIbLb0EE
FN:614,_ZNKSt8__detail15_BracketMatcherINSt7__cxx1112regex_traitsIcEELb0ELb1EE8_M_applyEcSt17integral_constantIbLb0EE
FNDA:0,_ZNKSt8__detail15_BracketMatcherINSt7__cxx1112regex_traitsIcEELb0ELb1EE8_M_applyEcSt17integral_constantIbLb0EE
FN:614,_ZNKSt8__detail15_BracketMatcherINSt7__cxx1112regex_traitsIcEELb0ELb0EE8_M_applyEcSt17integral_constantIbLb0EE
FNDA:256,_ZNKSt8__detail15_BracketMatcherINSt7__cxx1112regex_traitsIcEELb0ELb0EE8_M_applyEcSt17integral_constantIbLb0EE
FN:617,_ZZNKSt8__detail15_BracketMatcherINSt7__cxx1112regex_traitsIcEELb0ELb1EE8_M_applyEcSt17integral_constantIbLb0EEENKUlvE_clEv
FNDA:0,_ZZNKSt8__detail15_BracketMatcherINSt7__cxx1112regex_traitsIcEELb0ELb1EE8_M_applyEcSt17integral_constantIbLb0EEENKUlvE_clEv
FN:617,_ZZNKSt8__detail15_BracketMatcherINSt7__cxx1112regex_traitsIcEELb1ELb0EE8_M_applyEcSt17integral_constantIbLb0EEENKUlvE_clEv
FNDA:0,_ZZNKSt8__detail15_BracketMatcherINSt7__cxx1112regex_traitsIcEELb1ELb0EE8_M_applyEcSt17integral_constantIbLb0EEENKUlvE_clEv
FN:617,_ZZNKSt8__detail15_BracketMatcherINSt7__cxx1112regex_traitsIcEELb0ELb0EE8_M_applyEcSt17integral_constantIbLb0EEENKUlvE_clEv
FNDA:256,_ZZNKSt8__detail15_BracketMatcherINSt7__cxx1112regex_traitsIcEELb0ELb0EE8_M_applyEcSt17integral_constantIbLb0EEENKUlvE_clEv
FN:617,_ZZNKSt8__detail15_BracketMatcherINSt7__cxx1112regex_traitsIcEELb1ELb1EE8_M_applyEcSt17integral_constantIbLb0EEENKUlvE_clEv
FNDA:0,_ZZNKSt8__detail15_BracketMatcherINSt7__cxx1112regex_traitsIcEELb1ELb1EE8_M_applyEcSt17integral_constantIbLb0EEENKUlvE_clEv
DA:65,1
DA:69,1
DA:76,0
DA:78,1
DA:79,1
DA:80,2
DA:82,1
DA:83,1
DA:84,1
DA:85,1
DA:86,0
DA:87,1
DA:89,1
DA:90,1
DA:91,1
DA:92,1
DA:96,1
DA:99,1
DA:100,1
DA:102,0
DA:103,0
DA:104,0
DA:105,0
DA:106,0
DA:107,0
DA:111,0
DA:112,0
DA:116,1
DA:120,2
DA:123,2
DA:125,1
DA:126,1
DA:127,1
DA:128,1
DA:131,1
DA:132,2
DA:136,2
DA:139,2
DA:140,0
DA:141,2
DA:143,2
DA:144,1
DA:146,1
DA:151,2
DA:154,2
DA:155,0
DA:156,2
DA:157,0
DA:158,2
DA:160,0
DA:161,0
DA:162,2
DA:164,0
DA:165,0
DA:166,0
DA:167,0
DA:169,0
DA:170,0
DA:171,0
DA:173,0
DA:174,0
DA:177,2
DA:178,0
DA:183,2
DA:186,2
DA:187,2
DA:189,0
DA:190,0
DA:192,0
DA:194,2
DA:196,0
DA:197,0
DA:198,0
DA:199,0
DA:201,0
DA:202,0
DA:204,2
DA:206,0
DA:207,0
DA:208,0
DA:210,0
DA:212,2
DA:214,0
DA:215,0
DA:216,0
DA:217,0
DA:218,0
DA:220,0
DA:221,0
DA:222,0
DA:224,2
DA:226,1
DA:227,0
DA:229,1
DA:230,0
DA:232,1
DA:233,1
DA:234,1
DA:235,1
DA:239,1
DA:240,1
DA:241,0
DA:243,1
DA:245,0
DA:246,1
DA:247,0
DA:250,1
DA:252,2
DA:253,1
DA:255,1
DA:257,1
DA:258,1
DA:259,1
DA:261,1
DA:262,1
DA:266,0
DA:267,0
DA:269,0
DA:273,0
DA:274,0
DA:276,0
DA:277,0
DA:279,0
DA:280,0
DA:282,0
DA:283,0
DA:285,0
DA:286,0
DA:287,0
DA:290,1
DA:293,1
DA:294,1
DA:313,2
DA:316,2
DA:318,0
DA:319,0
DA:321,0
DA:323,2
DA:324,0
DA:325,2
DA:326,0
DA:328,2
DA:329,0
DA:330,2
DA:332,0
DA:333,0
DA:334,0
DA:335,0
DA:337,0
DA:338,0
DA:340,2
DA:342,0
DA:343,0
DA:344,0
DA:345,0
DA:347,0
DA:348,0
DA:349,0
DA:351,2
DA:352,1
DA:353,1
DA:358,2
DA:361,2
DA:363,2
DA:364,1
DA:365,1
DA:366,1
DA:373,0
DA:376,0
DA:377,0
DA:380,0
DA:373,0
DA:376,0
DA:377,0
DA:380,0
DA:373,0
DA:376,0
DA:377,0
DA:380,0
DA:373,0
DA:376,0
DA:377,0
DA:380,0
DA:385,0
DA:388,0
DA:389,0
DA:392,0
DA:385,0
DA:388,0
DA:389,0
DA:392,0
DA:385,0
DA:388,0
DA:389,0
DA:392,0
DA:385,0
DA:388,0
DA:389,0
DA:392,0
DA:397,0
DA:400,0
DA:401,0
DA:403,0
DA:404,0
DA:397,0
DA:400,0
DA:401,0
DA:403,0
DA:404,0
DA:397,0
DA:400,0
DA:401,0
DA:403,0
DA:404,0
DA:397,0
DA:400,0
DA:401,0
DA:403,0
DA:404,0
DA:409,0
DA:413,0
DA:414,0
DA:415,0
DA:416,0
DA:417,0
DA:418,0
DA:419,0
DA:409,0
DA:413,0
DA:414,0
DA:415,0
DA:416,0
DA:417,0
DA:418,0
DA:419,0
DA:409,0
DA:413,0
DA:414,0
DA:415,0
DA:416,0
DA:417,0
DA:418,0
DA:419,0
DA:409,0
DA:413,0
DA:414,0
DA:415,0
DA:416,0
DA:417,0
DA:418,0
DA:419,0
DA:424,0
DA:427,0
DA:428,0
DA:429,0
DA:430,0
DA:432,0
DA:434,0
DA:435,0
DA:437,0
DA:439,0
DA:440,0
DA:443,0
DA:444,0
DA:445,0
DA:446,0
DA:447,0
DA:448,0
DA:449,0
DA:450,0
DA:424,0
DA:427,0
DA:428,0
DA:429,0
DA:430,0
DA:432,0
DA:434,0
DA:435,0
DA:437,0
DA:439,0
DA:440,0
DA:443,0
DA:444,0
DA:445,0
DA:446,0
DA:447,0
DA:448,0
DA:449,0
DA:450,0
DA:424,0
DA:427,0
DA:428,0
DA:429,0
DA:430,0
DA:432,0
DA:434,0
DA:435,0
DA:437,0
DA:439,0
DA:440,0
DA:443,0
DA:444,0
DA:445,0
DA:446,0
DA:447,0
DA:448,0
DA:449,0
DA:450,0
DA:424,1
DA:427,1
DA:428,1
DA:429,1
DA:430,1
DA:432,0
DA:434,0
DA:435,0
DA:437,0
DA:439,0
DA:440,0
DA:443,3
DA:444,1
DA:445,0
DA:446,1
DA:447,2
DA:448,1
DA:449,1
DA:450,1
DA:455,0
DA:459,0
DA:460,0
DA:462,0
DA:470,0
DA:479,0
DA:481,0
DA:482,0
DA:483,0
DA:485,0
DA:487,0
DA:489,0
DA:490,0
DA:492,0
DA:494,0
DA:495,0
DA:497,0
DA:498,0
DA:509,0
DA:511,0
DA:513,0
DA:515,0
DA:517,0
DA:518,0
DA:520,0
DA:526,0
DA:530,0
DA:532,0
DA:533,0
DA:535,0
DA:537,0
DA:538,0
DA:542,0
DA:543,0
DA:544,0
DA:547,0
DA:551,0
DA:553,0
DA:554,0
DA:555,0
DA:556,0
DA:559,0
DA:562,0
DA:455,0
DA:459,0
DA:460,0
DA:462,0
DA:470,0
DA:479,0
DA:481,0
DA:482,0
DA:483,0
DA:485,0
DA:487,0
DA:489,0
DA:490,0
DA:492,0
DA:494,0
DA:495,0
DA:497,0
DA:498,0
DA:509,0
DA:511,0
DA:513,0
DA:515,0
DA:517,0
DA:518,0
DA:520,0
DA:526,0
DA:530,0
DA:532,0
DA:533,0
DA:535,0
DA:537,0
DA:538,0
DA:542,0
DA:543,0
DA:544,0
DA:547,0
DA:551,0
DA:553,0
DA:554,0
DA:555,0
DA:556,0
DA:559,0
DA:562,0
DA:455,0
DA:459,0
DA:460,0
DA:462,0
DA:470,0
DA:479,0
DA:481,0
DA:482,0
DA:483,0
DA:485,0
DA:487,0
DA:489,0
DA:490,0
DA:492,0
DA:494,0
DA:495,0
DA:497,0
DA:498,0
DA:509,0
DA:511,0
DA:513,0
DA:515,0
DA:517,0
DA:518,0
DA:520,0
DA:526,0
DA:530,0
DA:532,0
DA:533,0
DA:535,0
DA:537,0
DA:538,0
DA:542,0
DA:543,0
DA:544,0
DA:547,0
DA:551,0
DA:553,0
DA:554,0
DA:555,0
DA:556,0
DA:559,0
DA:562,0
DA:455,3
DA:459,3
DA:460,1
DA:462,2
DA:470,2
DA:479,2
DA:481,0
DA:482,0
DA:483,0
DA:485,0
DA:487,2
DA:489,0
DA:490,0
DA:492,2
DA:494,0
DA:495,0
DA:497,2
DA:498,1
DA:509,1
DA:511,1
DA:513,0
DA:515,0
DA:517,0
DA:518,0
DA:520,0
DA:526,0
DA:530,1
DA:532,1
DA:533,1
DA:535,0
DA:537,0
DA:538,0
DA:542,0
DA:543,0
DA:544,0
DA:547,0
DA:551,0
DA:553,0
DA:554,0
DA:555,0
DA:556,0
DA:559,0
DA:562,2
DA:462,0
DA:462,0
DA:462,0
DA:462,3
DA:464,1
DA:465,0
DA:467,1
DA:468,1
DA:470,0
DA:470,0
DA:470,0
DA:470,0
DA:472,0
DA:474,0
DA:475,0
DA:567,5
DA:570,5
DA:571,5
DA:573,0
DA:574,0
DA:576,5
DA:578,0
DA:579,0
DA:581,5
DA:582,2
DA:583,5
DA:588,62
DA:591,62
DA:593,10
DA:594,10
DA:595,10
DA:597,52
DA:602,1
DA:605,1
DA:606,1
DA:607,2
DA:608,1
DA:609,1
DA:614,0
DA:636,0
DA:614,0
DA:636,0
DA:614,0
DA:636,0
DA:614,256
DA:636,256
DA:617,0
DA:617,0
DA:617,0
DA:617,3012
DA:619,256
DA:621,0
DA:622,256
DA:623,502
DA:624,256
DA:625,10
DA:626,246
DA:627,0
DA:628,492
DA:629,246
DA:630,738
DA:631,0
DA:632,246
DA:633,0
DA:634,0
DA:635,246
end_of_record
SF:/usr/include/c++/9/new
FN:57,_ZNSt9bad_allocC2Ev
FNDA:0,_ZNSt9bad_allocC2Ev
FN:173,_ZnwmPv
FNDA:350,_ZnwmPv
FN:179,_ZdlPvS_
FNDA:0,_ZdlPvS_
DA:57,0
DA:173,350
